TN:
SF:/home/runner/work/fakelua/fakelua/include/fakelua.h
FN:100,102,_ZNK7fakelua13SimpleVarImpl8ViGetIntEv
FN:104,106,_ZNK7fakelua13SimpleVarImpl10ViGetFloatEv
FN:108,110,_ZNK7fakelua13SimpleVarImpl11ViGetStringEv
FN:112,114,_ZNK7fakelua13SimpleVarImpl14ViGetTableSizeEv
FN:116,118,_ZNK7fakelua13SimpleVarImpl12ViGetTableKvEi
FN:120,147,_ZNK7fakelua13SimpleVarImpl10ViToStringB5cxx11Ei
FN:150,177,_ZN7fakelua13SimpleVarImpl11ViSortTableEv
FN:151,171,_ZZN7fakelua13SimpleVarImpl11ViSortTableEvENKUlRKT_RKT0_E_clISt4pairIPNS_12VarInterfaceESB_ESC_EEDaS3_S6_
FN:521,562,_ZN7fakelua4CallINS_4CVarEJDnRA3_KcEEEvPNS_5StateENS_7JITTypeERKSt17basic_string_viewIcSt11char_traitsIcEERT_DpOT0_
FN:521,562,_ZN7fakelua4CallINS_4CVarEJEEEvPNS_5StateENS_7JITTypeERKSt17basic_string_viewIcSt11char_traitsIcEERT_DpOT0_
FN:521,562,_ZN7fakelua4CallINS_4CVarEJbiEEEvPNS_5StateENS_7JITTypeERKSt17basic_string_viewIcSt11char_traitsIcEERT_DpOT0_
FN:521,562,_ZN7fakelua4CallINS_4CVarEJiiiEEEvPNS_5StateENS_7JITTypeERKSt17basic_string_viewIcSt11char_traitsIcEERT_DpOT0_
FN:521,562,_ZN7fakelua4CallINSt7__cxx1112basic_stringIcSt11char_traitsIcESaIcEEEJEEEvPNS_5StateENS_7JITTypeERKSt17basic_string_viewIcS4_ERT_DpOT0_
FN:521,562,_ZN7fakelua4CallINSt7__cxx1112basic_stringIcSt11char_traitsIcESaIcEEEJbdEEEvPNS_5StateENS_7JITTypeERKSt17basic_string_viewIcS4_ERT_DpOT0_
FN:521,562,_ZN7fakelua4CallINSt7__cxx1112basic_stringIcSt11char_traitsIcESaIcEEEJbiEEEvPNS_5StateENS_7JITTypeERKSt17basic_string_viewIcS4_ERT_DpOT0_
FN:521,562,_ZN7fakelua4CallINSt7__cxx1112basic_stringIcSt11char_traitsIcESaIcEEEJdRA5_KcbiEEEvPNS_5StateENS_7JITTypeERKSt17basic_string_viewIcS4_ERT_DpOT0_
FN:521,562,_ZN7fakelua4CallINSt7__cxx1112basic_stringIcSt11char_traitsIcESaIcEEEJiEEEvPNS_5StateENS_7JITTypeERKSt17basic_string_viewIcS4_ERT_DpOT0_
FN:521,562,_ZN7fakelua4CallINSt7__cxx1112basic_stringIcSt11char_traitsIcESaIcEEEJiRA2_KcEEEvPNS_5StateENS_7JITTypeERKSt17basic_string_viewIcS4_ERT_DpOT0_
FN:521,562,_ZN7fakelua4CallINSt7__cxx1112basic_stringIcSt11char_traitsIcESaIcEEEJiS6_EEEvPNS_5StateENS_7JITTypeERKSt17basic_string_viewIcS4_ERT_DpOT0_
FN:521,562,_ZN7fakelua4CallINSt7__cxx1112basic_stringIcSt11char_traitsIcESaIcEEEJidbRA5_KcEEEvPNS_5StateENS_7JITTypeERKSt17basic_string_viewIcS4_ERT_DpOT0_
FN:521,562,_ZN7fakelua4CallINSt7__cxx1112basic_stringIcSt11char_traitsIcESaIcEEEJiiEEEvPNS_5StateENS_7JITTypeERKSt17basic_string_viewIcS4_ERT_DpOT0_
FN:521,562,_ZN7fakelua4CallIPNS_12VarInterfaceEJEEEvPNS_5StateENS_7JITTypeERKSt17basic_string_viewIcSt11char_traitsIcEERT_DpOT0_
FN:521,562,_ZN7fakelua4CallISt17basic_string_viewIcSt11char_traitsIcEEJiEEEvPNS_5StateENS_7JITTypeERKS4_RT_DpOT0_
FN:521,562,_ZN7fakelua4CallIbJDnEEEvPNS_5StateENS_7JITTypeERKSt17basic_string_viewIcSt11char_traitsIcEERT_DpOT0_
FN:521,562,_ZN7fakelua4CallIbJEEEvPNS_5StateENS_7JITTypeERKSt17basic_string_viewIcSt11char_traitsIcEERT_DpOT0_
FN:521,562,_ZN7fakelua4CallIbJRA3_KcS3_EEEvPNS_5StateENS_7JITTypeERKSt17basic_string_viewIcSt11char_traitsIcEERT_DpOT0_
FN:521,562,_ZN7fakelua4CallIbJbbEEEvPNS_5StateENS_7JITTypeERKSt17basic_string_viewIcSt11char_traitsIcEERT_DpOT0_
FN:521,562,_ZN7fakelua4CallIbJbiEEEvPNS_5StateENS_7JITTypeERKSt17basic_string_viewIcSt11char_traitsIcEERT_DpOT0_
FN:521,562,_ZN7fakelua4CallIbJdRA5_KcbiEEEvPNS_5StateENS_7JITTypeERKSt17basic_string_viewIcSt11char_traitsIcEERT_DpOT0_
FN:521,562,_ZN7fakelua4CallIbJdiEEEvPNS_5StateENS_7JITTypeERKSt17basic_string_viewIcSt11char_traitsIcEERT_DpOT0_
FN:521,562,_ZN7fakelua4CallIbJiEEEvPNS_5StateENS_7JITTypeERKSt17basic_string_viewIcSt11char_traitsIcEERT_DpOT0_
FN:521,562,_ZN7fakelua4CallIbJidEEEvPNS_5StateENS_7JITTypeERKSt17basic_string_viewIcSt11char_traitsIcEERT_DpOT0_
FN:521,562,_ZN7fakelua4CallIbJiiEEEvPNS_5StateENS_7JITTypeERKSt17basic_string_viewIcSt11char_traitsIcEERT_DpOT0_
FN:521,562,_ZN7fakelua4CallIcJRA2_KcEEEvPNS_5StateENS_7JITTypeERKSt17basic_string_viewIcSt11char_traitsIcEERT_DpOT0_
FN:521,562,_ZN7fakelua4CallIdJEEEvPNS_5StateENS_7JITTypeERKSt17basic_string_viewIcSt11char_traitsIcEERT_DpOT0_
FN:521,562,_ZN7fakelua4CallIdJRA2_KcEEEvPNS_5StateENS_7JITTypeERKSt17basic_string_viewIcSt11char_traitsIcEERT_DpOT0_
FN:521,562,_ZN7fakelua4CallIdJdRA5_KcbiEEEvPNS_5StateENS_7JITTypeERKSt17basic_string_viewIcSt11char_traitsIcEERT_DpOT0_
FN:521,562,_ZN7fakelua4CallIdJddEEEvPNS_5StateENS_7JITTypeERKSt17basic_string_viewIcSt11char_traitsIcEERT_DpOT0_
FN:521,562,_ZN7fakelua4CallIdJidEEEvPNS_5StateENS_7JITTypeERKSt17basic_string_viewIcSt11char_traitsIcEERT_DpOT0_
FN:521,562,_ZN7fakelua4CallIdJiiEEEvPNS_5StateENS_7JITTypeERKSt17basic_string_viewIcSt11char_traitsIcEERT_DpOT0_
FN:521,562,_ZN7fakelua4CallIfJDniiEEEvPNS_5StateENS_7JITTypeERKSt17basic_string_viewIcSt11char_traitsIcEERT_DpOT0_
FN:521,562,_ZN7fakelua4CallIfJRA2_KcEEEvPNS_5StateENS_7JITTypeERKSt17basic_string_viewIcSt11char_traitsIcEERT_DpOT0_
FN:521,562,_ZN7fakelua4CallIfJidEEEvPNS_5StateENS_7JITTypeERKSt17basic_string_viewIcSt11char_traitsIcEERT_DpOT0_
FN:521,562,_ZN7fakelua4CallIhJRA2_KcEEEvPNS_5StateENS_7JITTypeERKSt17basic_string_viewIcSt11char_traitsIcEERT_DpOT0_
FN:521,562,_ZN7fakelua4CallIiJDniEEEvPNS_5StateENS_7JITTypeERKSt17basic_string_viewIcSt11char_traitsIcEERT_DpOT0_
FN:521,562,_ZN7fakelua4CallIiJEEEvPNS_5StateENS_7JITTypeERKSt17basic_string_viewIcSt11char_traitsIcEERT_DpOT0_
FN:521,562,_ZN7fakelua4CallIiJNSt7__cxx1112basic_stringIcSt11char_traitsIcESaIcEEEEEEvPNS_5StateENS_7JITTypeERKSt17basic_string_viewIcS4_ERT_DpOT0_
FN:521,562,_ZN7fakelua4CallIiJNSt7__cxx1112basic_stringIcSt11char_traitsIcESaIcEEEiEEEvPNS_5StateENS_7JITTypeERKSt17basic_string_viewIcS4_ERT_DpOT0_
FN:521,562,_ZN7fakelua4CallIiJRA2_KcEEEvPNS_5StateENS_7JITTypeERKSt17basic_string_viewIcSt11char_traitsIcEERT_DpOT0_
FN:521,562,_ZN7fakelua4CallIiJRA4_KcEEEvPNS_5StateENS_7JITTypeERKSt17basic_string_viewIcSt11char_traitsIcEERT_DpOT0_
FN:521,562,_ZN7fakelua4CallIiJbdEEEvPNS_5StateENS_7JITTypeERKSt17basic_string_viewIcSt11char_traitsIcEERT_DpOT0_
FN:521,562,_ZN7fakelua4CallIiJbiEEEvPNS_5StateENS_7JITTypeERKSt17basic_string_viewIcSt11char_traitsIcEERT_DpOT0_
FN:521,562,_ZN7fakelua4CallIiJdRA5_KcbiEEEvPNS_5StateENS_7JITTypeERKSt17basic_string_viewIcSt11char_traitsIcEERT_DpOT0_
FN:521,562,_ZN7fakelua4CallIiJiEEEvPNS_5StateENS_7JITTypeERKSt17basic_string_viewIcSt11char_traitsIcEERT_DpOT0_
FN:521,562,_ZN7fakelua4CallIiJiNSt7__cxx1112basic_stringIcSt11char_traitsIcESaIcEEEEEEvPNS_5StateENS_7JITTypeERKSt17basic_string_viewIcS4_ERT_DpOT0_
FN:521,562,_ZN7fakelua4CallIiJiRA2_KcEEEvPNS_5StateENS_7JITTypeERKSt17basic_string_viewIcSt11char_traitsIcEERT_DpOT0_
FN:521,562,_ZN7fakelua4CallIiJidEEEvPNS_5StateENS_7JITTypeERKSt17basic_string_viewIcSt11char_traitsIcEERT_DpOT0_
FN:521,562,_ZN7fakelua4CallIiJiiEEEvPNS_5StateENS_7JITTypeERKSt17basic_string_viewIcSt11char_traitsIcEERT_DpOT0_
FN:521,562,_ZN7fakelua4CallIiJiiiEEEvPNS_5StateENS_7JITTypeERKSt17basic_string_viewIcSt11char_traitsIcEERT_DpOT0_
FN:521,562,_ZN7fakelua4CallIiJiiiiiEEEvPNS_5StateENS_7JITTypeERKSt17basic_string_viewIcSt11char_traitsIcEERT_DpOT0_
FN:521,562,_ZN7fakelua4CallIjJRA2_KcEEEvPNS_5StateENS_7JITTypeERKSt17basic_string_viewIcSt11char_traitsIcEERT_DpOT0_
FN:521,562,_ZN7fakelua4CallIlJRA2_KcEEEvPNS_5StateENS_7JITTypeERKSt17basic_string_viewIcSt11char_traitsIcEERT_DpOT0_
FN:521,562,_ZN7fakelua4CallImJRA2_KcEEEvPNS_5StateENS_7JITTypeERKSt17basic_string_viewIcSt11char_traitsIcEERT_DpOT0_
FN:521,562,_ZN7fakelua4CallIsJRA2_KcEEEvPNS_5StateENS_7JITTypeERKSt17basic_string_viewIcSt11char_traitsIcEERT_DpOT0_
FN:521,562,_ZN7fakelua4CallItJRA2_KcEEEvPNS_5StateENS_7JITTypeERKSt17basic_string_viewIcSt11char_traitsIcEERT_DpOT0_
FN:521,562,_ZN7fakelua4CallIxJRA2_KcEEEvPNS_5StateENS_7JITTypeERKSt17basic_string_viewIcSt11char_traitsIcEERT_DpOT0_
FN:521,562,_ZN7fakelua4CallIyJRA2_KcEEEvPNS_5StateENS_7JITTypeERKSt17basic_string_viewIcSt11char_traitsIcEERT_DpOT0_
FN:61,61,_ZN7fakelua13SimpleVarImplD0Ev
FN:61,61,_ZN7fakelua13SimpleVarImplD2Ev
FN:63,65,_ZNK7fakelua13SimpleVarImpl9ViGetTypeEv
FN:67,69,_ZN7fakelua13SimpleVarImpl8ViSetNilEv
FN:71,74,_ZN7fakelua13SimpleVarImpl9ViSetBoolEb
FN:76,79,_ZN7fakelua13SimpleVarImpl8ViSetIntEl
FN:81,84,_ZN7fakelua13SimpleVarImpl10ViSetFloatEd
FN:86,89,_ZN7fakelua13SimpleVarImpl11ViSetStringERKSt17basic_string_viewIcSt11char_traitsIcEE
FN:91,94,_ZN7fakelua13SimpleVarImpl10ViSetTableERKSt6vectorISt4pairIPNS_12VarInterfaceES4_ESaIS5_EE
FN:96,98,_ZNK7fakelua13SimpleVarImpl9ViGetBoolEv
FNDA:420,_ZNK7fakelua13SimpleVarImpl8ViGetIntEv
FNDA:14,_ZNK7fakelua13SimpleVarImpl10ViGetFloatEv
FNDA:186,_ZNK7fakelua13SimpleVarImpl11ViGetStringEv
FNDA:28,_ZNK7fakelua13SimpleVarImpl14ViGetTableSizeEv
FNDA:12,_ZNK7fakelua13SimpleVarImpl12ViGetTableKvEi
FNDA:947,_ZNK7fakelua13SimpleVarImpl10ViToStringB5cxx11Ei
FNDA:51,_ZN7fakelua13SimpleVarImpl11ViSortTableEv
FNDA:409,_ZZN7fakelua13SimpleVarImpl11ViSortTableEvENKUlRKT_RKT0_E_clISt4pairIPNS_12VarInterfaceESB_ESC_EEDaS3_S6_
FNDA:16,_ZN7fakelua4CallINS_4CVarEJDnRA3_KcEEEvPNS_5StateENS_7JITTypeERKSt17basic_string_viewIcSt11char_traitsIcEERT_DpOT0_
FNDA:112,_ZN7fakelua4CallINS_4CVarEJEEEvPNS_5StateENS_7JITTypeERKSt17basic_string_viewIcSt11char_traitsIcEERT_DpOT0_
FNDA:16,_ZN7fakelua4CallINS_4CVarEJbiEEEvPNS_5StateENS_7JITTypeERKSt17basic_string_viewIcSt11char_traitsIcEERT_DpOT0_
FNDA:8,_ZN7fakelua4CallINS_4CVarEJiiiEEEvPNS_5StateENS_7JITTypeERKSt17basic_string_viewIcSt11char_traitsIcEERT_DpOT0_
FNDA:68,_ZN7fakelua4CallINSt7__cxx1112basic_stringIcSt11char_traitsIcESaIcEEEJEEEvPNS_5StateENS_7JITTypeERKSt17basic_string_viewIcS4_ERT_DpOT0_
FNDA:16,_ZN7fakelua4CallINSt7__cxx1112basic_stringIcSt11char_traitsIcESaIcEEEJbdEEEvPNS_5StateENS_7JITTypeERKSt17basic_string_viewIcS4_ERT_DpOT0_
FNDA:16,_ZN7fakelua4CallINSt7__cxx1112basic_stringIcSt11char_traitsIcESaIcEEEJbiEEEvPNS_5StateENS_7JITTypeERKSt17basic_string_viewIcS4_ERT_DpOT0_
FNDA:16,_ZN7fakelua4CallINSt7__cxx1112basic_stringIcSt11char_traitsIcESaIcEEEJdRA5_KcbiEEEvPNS_5StateENS_7JITTypeERKSt17basic_string_viewIcS4_ERT_DpOT0_
FNDA:4,_ZN7fakelua4CallINSt7__cxx1112basic_stringIcSt11char_traitsIcESaIcEEEJiEEEvPNS_5StateENS_7JITTypeERKSt17basic_string_viewIcS4_ERT_DpOT0_
FNDA:16,_ZN7fakelua4CallINSt7__cxx1112basic_stringIcSt11char_traitsIcESaIcEEEJiRA2_KcEEEvPNS_5StateENS_7JITTypeERKSt17basic_string_viewIcS4_ERT_DpOT0_
FNDA:16,_ZN7fakelua4CallINSt7__cxx1112basic_stringIcSt11char_traitsIcESaIcEEEJiS6_EEEvPNS_5StateENS_7JITTypeERKSt17basic_string_viewIcS4_ERT_DpOT0_
FNDA:16,_ZN7fakelua4CallINSt7__cxx1112basic_stringIcSt11char_traitsIcESaIcEEEJidbRA5_KcEEEvPNS_5StateENS_7JITTypeERKSt17basic_string_viewIcS4_ERT_DpOT0_
FNDA:16,_ZN7fakelua4CallINSt7__cxx1112basic_stringIcSt11char_traitsIcESaIcEEEJiiEEEvPNS_5StateENS_7JITTypeERKSt17basic_string_viewIcS4_ERT_DpOT0_
FNDA:64,_ZN7fakelua4CallIPNS_12VarInterfaceEJEEEvPNS_5StateENS_7JITTypeERKSt17basic_string_viewIcSt11char_traitsIcEERT_DpOT0_
FNDA:4,_ZN7fakelua4CallISt17basic_string_viewIcSt11char_traitsIcEEJiEEEvPNS_5StateENS_7JITTypeERKS4_RT_DpOT0_
FNDA:16,_ZN7fakelua4CallIbJDnEEEvPNS_5StateENS_7JITTypeERKSt17basic_string_viewIcSt11char_traitsIcEERT_DpOT0_
FNDA:32,_ZN7fakelua4CallIbJEEEvPNS_5StateENS_7JITTypeERKSt17basic_string_viewIcSt11char_traitsIcEERT_DpOT0_
FNDA:32,_ZN7fakelua4CallIbJRA3_KcS3_EEEvPNS_5StateENS_7JITTypeERKSt17basic_string_viewIcSt11char_traitsIcEERT_DpOT0_
FNDA:32,_ZN7fakelua4CallIbJbbEEEvPNS_5StateENS_7JITTypeERKSt17basic_string_viewIcSt11char_traitsIcEERT_DpOT0_
FNDA:16,_ZN7fakelua4CallIbJbiEEEvPNS_5StateENS_7JITTypeERKSt17basic_string_viewIcSt11char_traitsIcEERT_DpOT0_
FNDA:16,_ZN7fakelua4CallIbJdRA5_KcbiEEEvPNS_5StateENS_7JITTypeERKSt17basic_string_viewIcSt11char_traitsIcEERT_DpOT0_
FNDA:16,_ZN7fakelua4CallIbJdiEEEvPNS_5StateENS_7JITTypeERKSt17basic_string_viewIcSt11char_traitsIcEERT_DpOT0_
FNDA:20,_ZN7fakelua4CallIbJiEEEvPNS_5StateENS_7JITTypeERKSt17basic_string_viewIcSt11char_traitsIcEERT_DpOT0_
FNDA:128,_ZN7fakelua4CallIbJidEEEvPNS_5StateENS_7JITTypeERKSt17basic_string_viewIcSt11char_traitsIcEERT_DpOT0_
FNDA:176,_ZN7fakelua4CallIbJiiEEEvPNS_5StateENS_7JITTypeERKSt17basic_string_viewIcSt11char_traitsIcEERT_DpOT0_
FNDA:4,_ZN7fakelua4CallIcJRA2_KcEEEvPNS_5StateENS_7JITTypeERKSt17basic_string_viewIcSt11char_traitsIcEERT_DpOT0_
FNDA:292,_ZN7fakelua4CallIdJEEEvPNS_5StateENS_7JITTypeERKSt17basic_string_viewIcSt11char_traitsIcEERT_DpOT0_
FNDA:4,_ZN7fakelua4CallIdJRA2_KcEEEvPNS_5StateENS_7JITTypeERKSt17basic_string_viewIcSt11char_traitsIcEERT_DpOT0_
FNDA:16,_ZN7fakelua4CallIdJdRA5_KcbiEEEvPNS_5StateENS_7JITTypeERKSt17basic_string_viewIcSt11char_traitsIcEERT_DpOT0_
FNDA:112,_ZN7fakelua4CallIdJddEEEvPNS_5StateENS_7JITTypeERKSt17basic_string_viewIcSt11char_traitsIcEERT_DpOT0_
FNDA:64,_ZN7fakelua4CallIdJidEEEvPNS_5StateENS_7JITTypeERKSt17basic_string_viewIcSt11char_traitsIcEERT_DpOT0_
FNDA:48,_ZN7fakelua4CallIdJiiEEEvPNS_5StateENS_7JITTypeERKSt17basic_string_viewIcSt11char_traitsIcEERT_DpOT0_
FNDA:16,_ZN7fakelua4CallIfJDniiEEEvPNS_5StateENS_7JITTypeERKSt17basic_string_viewIcSt11char_traitsIcEERT_DpOT0_
FNDA:4,_ZN7fakelua4CallIfJRA2_KcEEEvPNS_5StateENS_7JITTypeERKSt17basic_string_viewIcSt11char_traitsIcEERT_DpOT0_
FNDA:32,_ZN7fakelua4CallIfJidEEEvPNS_5StateENS_7JITTypeERKSt17basic_string_viewIcSt11char_traitsIcEERT_DpOT0_
FNDA:4,_ZN7fakelua4CallIhJRA2_KcEEEvPNS_5StateENS_7JITTypeERKSt17basic_string_viewIcSt11char_traitsIcEERT_DpOT0_
FNDA:16,_ZN7fakelua4CallIiJDniEEEvPNS_5StateENS_7JITTypeERKSt17basic_string_viewIcSt11char_traitsIcEERT_DpOT0_
FNDA:712,_ZN7fakelua4CallIiJEEEvPNS_5StateENS_7JITTypeERKSt17basic_string_viewIcSt11char_traitsIcEERT_DpOT0_
FNDA:16,_ZN7fakelua4CallIiJNSt7__cxx1112basic_stringIcSt11char_traitsIcESaIcEEEEEEvPNS_5StateENS_7JITTypeERKSt17basic_string_viewIcS4_ERT_DpOT0_
FNDA:32,_ZN7fakelua4CallIiJNSt7__cxx1112basic_stringIcSt11char_traitsIcESaIcEEEiEEEvPNS_5StateENS_7JITTypeERKSt17basic_string_viewIcS4_ERT_DpOT0_
FNDA:4,_ZN7fakelua4CallIiJRA2_KcEEEvPNS_5StateENS_7JITTypeERKSt17basic_string_viewIcSt11char_traitsIcEERT_DpOT0_
FNDA:32,_ZN7fakelua4CallIiJRA4_KcEEEvPNS_5StateENS_7JITTypeERKSt17basic_string_viewIcSt11char_traitsIcEERT_DpOT0_
FNDA:32,_ZN7fakelua4CallIiJbdEEEvPNS_5StateENS_7JITTypeERKSt17basic_string_viewIcSt11char_traitsIcEERT_DpOT0_
FNDA:32,_ZN7fakelua4CallIiJbiEEEvPNS_5StateENS_7JITTypeERKSt17basic_string_viewIcSt11char_traitsIcEERT_DpOT0_
FNDA:16,_ZN7fakelua4CallIiJdRA5_KcbiEEEvPNS_5StateENS_7JITTypeERKSt17basic_string_viewIcSt11char_traitsIcEERT_DpOT0_
FNDA:604,_ZN7fakelua4CallIiJiEEEvPNS_5StateENS_7JITTypeERKSt17basic_string_viewIcSt11char_traitsIcEERT_DpOT0_
FNDA:16,_ZN7fakelua4CallIiJiNSt7__cxx1112basic_stringIcSt11char_traitsIcESaIcEEEEEEvPNS_5StateENS_7JITTypeERKSt17basic_string_viewIcS4_ERT_DpOT0_
FNDA:16,_ZN7fakelua4CallIiJiRA2_KcEEEvPNS_5StateENS_7JITTypeERKSt17basic_string_viewIcSt11char_traitsIcEERT_DpOT0_
FNDA:16,_ZN7fakelua4CallIiJidEEEvPNS_5StateENS_7JITTypeERKSt17basic_string_viewIcSt11char_traitsIcEERT_DpOT0_
FNDA:1504,_ZN7fakelua4CallIiJiiEEEvPNS_5StateENS_7JITTypeERKSt17basic_string_viewIcSt11char_traitsIcEERT_DpOT0_
FNDA:64,_ZN7fakelua4CallIiJiiiEEEvPNS_5StateENS_7JITTypeERKSt17basic_string_viewIcSt11char_traitsIcEERT_DpOT0_
FNDA:12,_ZN7fakelua4CallIiJiiiiiEEEvPNS_5StateENS_7JITTypeERKSt17basic_string_viewIcSt11char_traitsIcEERT_DpOT0_
FNDA:4,_ZN7fakelua4CallIjJRA2_KcEEEvPNS_5StateENS_7JITTypeERKSt17basic_string_viewIcSt11char_traitsIcEERT_DpOT0_
FNDA:4,_ZN7fakelua4CallIlJRA2_KcEEEvPNS_5StateENS_7JITTypeERKSt17basic_string_viewIcSt11char_traitsIcEERT_DpOT0_
FNDA:4,_ZN7fakelua4CallImJRA2_KcEEEvPNS_5StateENS_7JITTypeERKSt17basic_string_viewIcSt11char_traitsIcEERT_DpOT0_
FNDA:4,_ZN7fakelua4CallIsJRA2_KcEEEvPNS_5StateENS_7JITTypeERKSt17basic_string_viewIcSt11char_traitsIcEERT_DpOT0_
FNDA:4,_ZN7fakelua4CallItJRA2_KcEEEvPNS_5StateENS_7JITTypeERKSt17basic_string_viewIcSt11char_traitsIcEERT_DpOT0_
FNDA:4,_ZN7fakelua4CallIxJRA2_KcEEEvPNS_5StateENS_7JITTypeERKSt17basic_string_viewIcSt11char_traitsIcEERT_DpOT0_
FNDA:4,_ZN7fakelua4CallIyJRA2_KcEEEvPNS_5StateENS_7JITTypeERKSt17basic_string_viewIcSt11char_traitsIcEERT_DpOT0_
FNDA:936,_ZN7fakelua13SimpleVarImplD0Ev
FNDA:0,_ZN7fakelua13SimpleVarImplD2Ev
FNDA:1740,_ZNK7fakelua13SimpleVarImpl9ViGetTypeEv
FNDA:8,_ZN7fakelua13SimpleVarImpl8ViSetNilEv
FNDA:8,_ZN7fakelua13SimpleVarImpl9ViSetBoolEb
FNDA:664,_ZN7fakelua13SimpleVarImpl8ViSetIntEl
FNDA:8,_ZN7fakelua13SimpleVarImpl10ViSetFloatEd
FNDA:176,_ZN7fakelua13SimpleVarImpl11ViSetStringERKSt17basic_string_viewIcSt11char_traitsIcEE
FNDA:112,_ZN7fakelua13SimpleVarImpl10ViSetTableERKSt6vectorISt4pairIPNS_12VarInterfaceES4_ESaIS5_EE
FNDA:16,_ZNK7fakelua13SimpleVarImpl9ViGetBoolEv
FNF:77
FNH:76
DA:14,1034
DA:26,991
DA:59,1013
DA:61,943
DA:63,1740
DA:64,1740
DA:67,8
DA:68,8
DA:69,8
DA:71,18
DA:72,18
DA:73,15
DA:74,8
DA:76,692
DA:77,692
DA:78,677
DA:79,664
DA:81,18
DA:82,18
DA:83,15
DA:84,8
DA:86,184
DA:87,184
DA:88,192
DA:89,184
DA:91,129
DA:92,129
DA:93,129
DA:94,129
DA:96,16
DA:97,16
DA:100,420
DA:101,420
DA:104,14
DA:105,14
DA:108,186
DA:109,186
DA:112,28
DA:113,28
DA:116,12
DA:117,12
DA:120,947
DA:121,947
DA:122,947
DA:123,6
DA:124,6
DA:126,6
DA:127,6
DA:129,664
DA:130,664
DA:131,664
DA:132,6
DA:133,6
DA:134,6
DA:135,160
DA:136,160
DA:137,160
DA:138,105
DA:139,105
DA:140,545
DA:141,880
DA:146,947
DA:147,0
DA:150,51
DA:151,51
DA:152,409
DA:153,97
DA:155,312
DA:158,4
DA:159,4
DA:160,208
DA:161,208
DA:162,3
DA:163,3
DA:164,88
DA:165,88
DA:166,3
DA:167,3
DA:172,283
DA:173,232
DA:174,16
DA:177,51
DA:194,19639
DA:239,4
DA:245,3321
DA:263,706
DA:266,706
DA:267,706
DA:268,706
DA:270,192
DA:347,6228
DA:350,64
DA:354,272
DA:374,4932
DA:402,608
DA:406,272
DA:414,80
DA:450,4628
DA:452,484
DA:454,4
DA:456,4
DA:458,4
DA:460,4
DA:462,3060
DA:464,4
DA:466,4
DA:468,4
DA:470,4
DA:472,4
DA:474,52
DA:476,536
DA:478,168
DA:480,4
DA:482,144
DA:487,64
DA:505,4628
DA:506,4628
DA:509,4628
DA:510,56
DA:511,4628
DA:521,4636
DA:522,4636
DA:523,4636
DA:524,4636
DA:525,8
DA:528,4632
DA:529,8
DA:533,4628
DA:534,4628
DA:536,4628
DA:538,4628
DA:540,1280
DA:542,760
DA:544,2496
DA:546,80
DA:548,80
DA:550,12
DA:561,4572
DA:562,4568
LF:139
LH:138
end_of_record
TN:
SF:/home/runner/work/fakelua/fakelua/src/compile/c_gen.cpp
FN:10,11,_ZN7fakelua4CGenC2EPNS_5StateE
FN:1069,1120,_ZN7fakelua4CGen23GenerateEntryDispatcherERKNSt7__cxx1112basic_stringIcSt11char_traitsIcESaIcEEERKSt6vectorIS6_SaIS6_EERKS9_IiSaIiEE
FN:1122,1130,_ZN7fakelua4CGen12SpecFuncNameERKNSt7__cxx1112basic_stringIcSt11char_traitsIcESaIcEEERKSt6vectorIiSaIiEEi
FN:1132,1199,_ZNK7fakelua4CGen19InferArgTypeForSpecERKSt10shared_ptrINS_19SyntaxTreeInterfaceEE
FN:1201,1207,_ZN7fakelua4CGen20TryCompileNativeExprB5cxx11ERKSt10shared_ptrINS_19SyntaxTreeInterfaceEE
FN:1209,1216,_ZN7fakelua4CGen16CompileStmtBlockERKSt10shared_ptrINS_19SyntaxTreeInterfaceEE
FN:1218,1290,_ZN7fakelua4CGen11CompileStmtERKSt10shared_ptrINS_19SyntaxTreeInterfaceEE
FN:1292,1326,_ZN7fakelua4CGen17CompileStmtReturnERKSt10shared_ptrINS_19SyntaxTreeInterfaceEE
FN:13,15,_ZN7fakelua4CGen19EnterNativeVarScopeEv
FN:1328,1367,_ZN7fakelua4CGen19CompileStmtLocalVarERKSt10shared_ptrINS_19SyntaxTreeInterfaceEE
FN:1369,1405,_ZN7fakelua4CGen17CompileStmtAssignERKSt10shared_ptrINS_19SyntaxTreeInterfaceEE
FN:1407,1409,_ZN7fakelua4CGen23CompileStmtFunctioncallERKSt10shared_ptrINS_19SyntaxTreeInterfaceEE
FN:1411,1431,_ZN7fakelua4CGen16CompileStmtWhileERKSt10shared_ptrINS_19SyntaxTreeInterfaceEE
FN:1433,1452,_ZN7fakelua4CGen17CompileStmtRepeatERKSt10shared_ptrINS_19SyntaxTreeInterfaceEE
FN:1454,1511,_ZN7fakelua4CGen13CompileStmtIfERKSt10shared_ptrINS_19SyntaxTreeInterfaceEE
FN:1513,1515,_ZN7fakelua4CGen16CompileStmtBreakERKSt10shared_ptrINS_19SyntaxTreeInterfaceEE
FN:1517,1669,_ZN7fakelua4CGen18CompileStmtForLoopERKSt10shared_ptrINS_19SyntaxTreeInterfaceEE
FN:1671,1769,_ZN7fakelua4CGen16CompileStmtForInERKSt10shared_ptrINS_19SyntaxTreeInterfaceEE
FN:17,21,_ZN7fakelua4CGen18ExitNativeVarScopeEv
FN:1771,1834,_ZN7fakelua4CGen10CompileExpB5cxx11ERKSt10shared_ptrINS_19SyntaxTreeInterfaceEE
FN:1836,1852,_ZN7fakelua4CGen16CompilePrefixexpB5cxx11ERKSt10shared_ptrINS_19SyntaxTreeInterfaceEE
FN:1854,1901,_ZN7fakelua4CGen23CompileTableconstructorB5cxx11ERKSt10shared_ptrINS_19SyntaxTreeInterfaceEE
FN:1903,2006,_ZN7fakelua4CGen12CompileBinopB5cxx11ERKSt10shared_ptrINS_19SyntaxTreeInterfaceEES5_S5_
FN:2008,2036,_ZN7fakelua4CGen11CompileUnopB5cxx11ERKSt10shared_ptrINS_19SyntaxTreeInterfaceEES5_
FN:2038,2088,_ZN7fakelua4CGen10CompileVarB5cxx11ERKSt10shared_ptrINS_19SyntaxTreeInterfaceEE
FN:2090,2208,_ZN7fakelua4CGen17CompileNumericExpB5cxx11ERKSt10shared_ptrINS_19SyntaxTreeInterfaceEE
FN:2210,2218,_ZNK7fakelua4CGen14BoxNativeValueERKNSt7__cxx1112basic_stringIcSt11char_traitsIcESaIcEEENS_12InferredTypeE
FN:2220,2370,_ZN7fakelua4CGen19CompileFunctioncallB5cxx11ERKSt10shared_ptrINS_19SyntaxTreeInterfaceEE
FN:23,28,_ZN7fakelua4CGen16DeclareNativeVarERKNSt7__cxx1112basic_stringIcSt11char_traitsIcESaIcEEEb
FN:30,37,_ZNK7fakelua4CGen16IsTypedNativeVarERKNSt7__cxx1112basic_stringIcSt11char_traitsIcESaIcEEE
FN:39,62,_ZN7fakelua4CGen8GenerateERNS_13CompileResultERKNS_13CompileConfigE
FN:64,84,_ZN7fakelua4CGen5BuildB5cxx11ERNS_13CompileResultERKNS_13CompileConfigE
FN:723,780,_ZN7fakelua4CGen14GenerateGlobalERNS_13CompileResultE
FN:782,857,_ZN7fakelua4CGen13GenerateDeclsERNS_13CompileResultE
FN:859,879,_ZN7fakelua4CGen15CompileFuncNameB5cxx11ERKSt10shared_ptrINS_19SyntaxTreeInterfaceEE
FN:86,721,_ZN7fakelua4CGen14GenerateHeaderEv
FN:881,884,_ZN7fakelua4CGen10ThrowErrorERKNSt7__cxx1112basic_stringIcSt11char_traitsIcESaIcEEERKSt10shared_ptrINS_19SyntaxTreeInterfaceEE
FN:886,888,_ZNK7fakelua4CGen6GenTabB5cxx11Ev
FN:890,918,_ZN7fakelua4CGen14CompileParListB5cxx11ERKSt10shared_ptrINS_19SyntaxTreeInterfaceEE
FN:920,986,_ZN7fakelua4CGen12GenerateImplERNS_13CompileResultE
FN:988,1067,_ZN7fakelua4CGen15CompileFuncBodyERKNSt7__cxx1112basic_stringIcSt11char_traitsIcESaIcEEERKSt6vectorIS6_SaIS6_EERKSt10shared_ptrINS_19SyntaxTreeInterfaceEEi
FNDA:3097,_ZN7fakelua4CGenC2EPNS_5StateE
FNDA:835,_ZN7fakelua4CGen23GenerateEntryDispatcherERKNSt7__cxx1112basic_stringIcSt11char_traitsIcESaIcEEERKSt6vectorIS6_SaIS6_EERKS9_IiSaIiEE
FNDA:8888,_ZN7fakelua4CGen12SpecFuncNameERKNSt7__cxx1112basic_stringIcSt11char_traitsIcESaIcEEERKSt6vectorIiSaIiEEi
FNDA:876,_ZNK7fakelua4CGen19InferArgTypeForSpecERKSt10shared_ptrINS_19SyntaxTreeInterfaceEE
FNDA:372,_ZN7fakelua4CGen20TryCompileNativeExprB5cxx11ERKSt10shared_ptrINS_19SyntaxTreeInterfaceEE
FNDA:9329,_ZN7fakelua4CGen16CompileStmtBlockERKSt10shared_ptrINS_19SyntaxTreeInterfaceEE
FNDA:18464,_ZN7fakelua4CGen11CompileStmtERKSt10shared_ptrINS_19SyntaxTreeInterfaceEE
FNDA:6703,_ZN7fakelua4CGen17CompileStmtReturnERKSt10shared_ptrINS_19SyntaxTreeInterfaceEE
FNDA:9329,_ZN7fakelua4CGen19EnterNativeVarScopeEv
FNDA:6049,_ZN7fakelua4CGen19CompileStmtLocalVarERKSt10shared_ptrINS_19SyntaxTreeInterfaceEE
FNDA:2372,_ZN7fakelua4CGen17CompileStmtAssignERKSt10shared_ptrINS_19SyntaxTreeInterfaceEE
FNDA:464,_ZN7fakelua4CGen23CompileStmtFunctioncallERKSt10shared_ptrINS_19SyntaxTreeInterfaceEE
FNDA:345,_ZN7fakelua4CGen16CompileStmtWhileERKSt10shared_ptrINS_19SyntaxTreeInterfaceEE
FNDA:160,_ZN7fakelua4CGen17CompileStmtRepeatERKSt10shared_ptrINS_19SyntaxTreeInterfaceEE
FNDA:859,_ZN7fakelua4CGen13CompileStmtIfERKSt10shared_ptrINS_19SyntaxTreeInterfaceEE
FNDA:180,_ZN7fakelua4CGen16CompileStmtBreakERKSt10shared_ptrINS_19SyntaxTreeInterfaceEE
FNDA:1090,_ZN7fakelua4CGen18CompileStmtForLoopERKSt10shared_ptrINS_19SyntaxTreeInterfaceEE
FNDA:160,_ZN7fakelua4CGen16CompileStmtForInERKSt10shared_ptrINS_19SyntaxTreeInterfaceEE
FNDA:9325,_ZN7fakelua4CGen18ExitNativeVarScopeEv
FNDA:33674,_ZN7fakelua4CGen10CompileExpB5cxx11ERKSt10shared_ptrINS_19SyntaxTreeInterfaceEE
FNDA:17258,_ZN7fakelua4CGen16CompilePrefixexpB5cxx11ERKSt10shared_ptrINS_19SyntaxTreeInterfaceEE
FNDA:784,_ZN7fakelua4CGen23CompileTableconstructorB5cxx11ERKSt10shared_ptrINS_19SyntaxTreeInterfaceEE
FNDA:6555,_ZN7fakelua4CGen12CompileBinopB5cxx11ERKSt10shared_ptrINS_19SyntaxTreeInterfaceEES5_S5_
FNDA:224,_ZN7fakelua4CGen11CompileUnopB5cxx11ERKSt10shared_ptrINS_19SyntaxTreeInterfaceEES5_
FNDA:16244,_ZN7fakelua4CGen10CompileVarB5cxx11ERKSt10shared_ptrINS_19SyntaxTreeInterfaceEE
FNDA:15307,_ZN7fakelua4CGen17CompileNumericExpB5cxx11ERKSt10shared_ptrINS_19SyntaxTreeInterfaceEE
FNDA:50,_ZNK7fakelua4CGen14BoxNativeValueERKNSt7__cxx1112basic_stringIcSt11char_traitsIcESaIcEEENS_12InferredTypeE
FNDA:918,_ZN7fakelua4CGen19CompileFunctioncallB5cxx11ERKSt10shared_ptrINS_19SyntaxTreeInterfaceEE
FNDA:16841,_ZN7fakelua4CGen16DeclareNativeVarERKNSt7__cxx1112basic_stringIcSt11char_traitsIcESaIcEEEb
FNDA:8935,_ZNK7fakelua4CGen16IsTypedNativeVarERKNSt7__cxx1112basic_stringIcSt11char_traitsIcESaIcEEE
FNDA:3097,_ZN7fakelua4CGen8GenerateERNS_13CompileResultERKNS_13CompileConfigE
FNDA:3097,_ZN7fakelua4CGen5BuildB5cxx11ERNS_13CompileResultERKNS_13CompileConfigE
FNDA:3097,_ZN7fakelua4CGen14GenerateGlobalERNS_13CompileResultE
FNDA:3093,_ZN7fakelua4CGen13GenerateDeclsERNS_13CompileResultE
FNDA:7974,_ZN7fakelua4CGen15CompileFuncNameB5cxx11ERKSt10shared_ptrINS_19SyntaxTreeInterfaceEE
FNDA:3097,_ZN7fakelua4CGen14GenerateHeaderEv
FNDA:16,_ZN7fakelua4CGen10ThrowErrorERKNSt7__cxx1112basic_stringIcSt11char_traitsIcESaIcEEERKSt10shared_ptrINS_19SyntaxTreeInterfaceEE
FNDA:46499,_ZNK7fakelua4CGen6GenTabB5cxx11Ev
FNDA:5098,_ZN7fakelua4CGen14CompileParListB5cxx11ERKSt10shared_ptrINS_19SyntaxTreeInterfaceEE
FNDA:3085,_ZN7fakelua4CGen12GenerateImplERNS_13CompileResultE
FNDA:6184,_ZN7fakelua4CGen15CompileFuncBodyERKNSt7__cxx1112basic_stringIcSt11char_traitsIcESaIcEEERKSt6vectorIS6_SaIS6_EERKSt10shared_ptrINS_19SyntaxTreeInterfaceEEi
FNF:41
FNH:41
DA:10,3097
DA:11,3097
DA:13,9329
DA:14,9329
DA:15,9329
DA:17,9325
DA:18,9325
DA:19,9325
DA:21,9325
DA:23,16841
DA:24,16841
DA:25,0
DA:27,16841
DA:28,16841
DA:30,8935
DA:31,13909
DA:32,13905
DA:33,8931
DA:39,3097
DA:40,3097
DA:42,3097
DA:45,3097
DA:47,3081
DA:48,2896
DA:49,1448
DA:50,1448
DA:51,1448
DA:52,1448
DA:53,1448
DA:55,0
DA:56,1448
DA:57,1448
DA:59,3081
DA:61,3081
DA:62,3081
DA:64,3097
DA:66,3097
DA:67,3097
DA:69,3097
DA:70,3097
DA:71,3097
DA:72,3097
DA:73,3093
DA:74,3093
DA:75,3085
DA:76,3085
DA:77,3085
DA:78,3081
DA:81,257
DA:83,6162
DA:86,3097
DA:87,3097
DA:104,3097
DA:106,3097
DA:721,3097
DA:723,3097
DA:724,3097
DA:726,3097
DA:730,3097
DA:731,3097
DA:732,3097
DA:735,3097
DA:736,3101
DA:738,7388
DA:739,4295
DA:740,128
DA:741,128
DA:742,128
DA:744,128
DA:745,0
DA:748,132
DA:749,132
DA:751,128
DA:752,128
DA:753,128
DA:754,128
DA:756,252
DA:757,128
DA:758,128
DA:761,128
DA:762,8
DA:766,124
DA:769,124
DA:772,124
DA:773,124
DA:774,640
DA:775,4
DA:777,3093
DA:779,3093
DA:780,3093
DA:782,3093
DA:783,3093
DA:785,3093
DA:787,3093
DA:788,3101
DA:789,7372
DA:790,4287
DA:791,4287
DA:792,4287
DA:793,3991
DA:794,3991
DA:795,3991
DA:796,4287
DA:797,176
DA:798,352
DA:799,176
DA:800,176
DA:802,4287
DA:803,120
DA:806,4175
DA:807,4167
DA:808,4167
DA:809,4167
DA:810,4167
DA:811,2553
DA:813,4159
DA:814,15190
DA:816,11403
DA:818,4159
DA:819,9020
DA:820,4861
DA:821,2316
DA:823,4861
DA:825,4159
DA:828,4159
DA:831,4159
DA:832,4159
DA:833,835
DA:834,835
DA:835,3695
DA:836,2860
DA:837,2860
DA:838,8872
DA:839,6012
DA:840,6012
DA:841,6012
DA:842,5240
DA:843,7860
DA:845,6012
DA:848,2860
DA:851,2860
DA:852,2860
DA:856,3085
DA:857,3093
DA:859,7974
DA:860,7974
DA:862,7974
DA:863,7974
DA:865,7974
DA:867,7974
DA:868,7974
DA:869,7974
DA:870,7974
DA:873,7974
DA:876,15948
DA:878,15948
DA:879,23922
DA:881,16
DA:882,16
DA:883,16
DA:886,46499
DA:887,46499
DA:890,5098
DA:891,5098
DA:892,5098
DA:895,5106
DA:897,5098
DA:898,5106
DA:899,5098
DA:900,5098
DA:902,5098
DA:903,5110
DA:904,12
DA:907,14824
DA:908,9734
DA:909,24
DA:911,9726
DA:914,5090
DA:915,15294
DA:917,0
DA:918,5090
DA:920,3085
DA:921,3085
DA:922,3089
DA:923,7356
DA:924,4275
DA:925,4275
DA:926,4275
DA:927,3983
DA:928,3983
DA:929,3983
DA:930,4275
DA:931,176
DA:932,352
DA:933,176
DA:934,176
DA:936,4275
DA:937,116
DA:940,4163
DA:941,4159
DA:942,4159
DA:943,4159
DA:944,4159
DA:945,2545
DA:948,4159
DA:949,4159
DA:950,4159
DA:952,835
DA:953,835
DA:954,3695
DA:955,2860
DA:957,2860
DA:958,8872
DA:959,6012
DA:960,6012
DA:961,6012
DA:962,5240
DA:963,7860
DA:965,6012
DA:968,2860
DA:969,2860
DA:970,2860
DA:971,2860
DA:973,835
DA:976,3324
DA:977,6506
DA:978,3182
DA:979,3182
DA:981,3324
DA:982,3324
DA:983,3320
DA:985,18227
DA:986,3081
DA:988,6184
DA:993,6184
DA:994,6184
DA:995,15228
DA:996,6184
DA:998,6184
DA:999,2860
DA:1000,8100
DA:1001,5240
DA:1002,7860
DA:1003,5240
DA:1007,2860
DA:1008,2860
DA:1009,2860
DA:1010,2860
DA:1011,2860
DA:1012,2860
DA:1024,6184
DA:1025,6184
DA:1026,2860
DA:1027,77866
DA:1029,80726
DA:1030,77866
DA:1034,12368
DA:1035,6184
DA:1036,12368
DA:1037,6184
DA:1038,6184
DA:1039,6184
DA:1040,15378
DA:1044,9194
DA:1046,6184
DA:1047,6184
DA:1048,6184
DA:1049,6180
DA:1050,6180
DA:1051,6180
DA:1052,6180
DA:1053,6184
DA:1056,6180
DA:1057,80726
DA:1058,77866
DA:1063,6180
DA:1064,6180
DA:1065,6180
DA:1066,6180
DA:1067,6180
DA:1069,835
DA:1072,835
DA:1073,835
DA:1076,835
DA:1077,2514
DA:1078,1679
DA:1079,1679
DA:1081,835
DA:1084,835
DA:1085,2265
DA:1086,1430
DA:1087,1430
DA:1088,1430
DA:1089,0
DA:1090,1670
DA:1092,0
DA:1093,1190
DA:1096,835
DA:1099,835
DA:1100,3695
DA:1101,2860
DA:1102,5720
DA:1103,8872
DA:1104,6012
DA:1105,6012
DA:1106,6012
DA:1107,6012
DA:1108,5240
DA:1109,5240
DA:1110,7860
DA:1112,6012
DA:1115,2860
DA:1116,2860
DA:1117,835
DA:1118,835
DA:1119,835
DA:1120,835
DA:1122,8888
DA:1124,8888
DA:1125,24980
DA:1126,16092
DA:1127,40254
DA:1129,8888
DA:1130,0
DA:1132,876
DA:1133,876
DA:1134,876
DA:1135,876
DA:1137,876
DA:1139,244
DA:1140,0
DA:1142,0
DA:1143,0
DA:1144,0
DA:1145,0
DA:1148,0
DA:1150,632
DA:1151,404
DA:1152,404
DA:1153,808
DA:1154,404
DA:1155,1212
DA:1156,404
DA:1158,404
DA:1159,356
DA:1162,48
DA:1163,48
DA:1164,48
DA:1165,808
DA:1166,0
DA:1167,0
DA:1170,404
DA:1172,228
DA:1173,228
DA:1174,228
DA:1175,228
DA:1176,228
DA:1177,228
DA:1178,228
DA:1179,228
DA:1180,228
DA:1181,0
DA:1182,358
DA:1184,0
DA:1185,0
DA:1186,0
DA:1189,456
DA:1191,0
DA:1192,0
DA:1193,0
DA:1194,0
DA:1196,0
DA:1199,1752
DA:1201,372
DA:1202,372
DA:1203,372
DA:1204,0
DA:1205,0
DA:1206,0
DA:1209,9329
DA:1210,9329
DA:1211,9329
DA:1213,27789
DA:1214,18464
DA:1216,9325
DA:1218,18464
DA:1219,18464
DA:1220,6703
DA:1221,6703
DA:1222,6703
DA:1224,6049
DA:1225,6049
DA:1226,6049
DA:1228,2372
DA:1229,2372
DA:1230,2372
DA:1232,464
DA:1233,464
DA:1234,464
DA:1236,0
DA:1238,0
DA:1241,0
DA:1243,0
DA:1246,66
DA:1249,132
DA:1250,66
DA:1251,66
DA:1252,66
DA:1253,66
DA:1254,66
DA:1255,132
DA:1256,66
DA:1258,345
DA:1259,345
DA:1260,345
DA:1262,160
DA:1263,160
DA:1264,160
DA:1266,859
DA:1267,859
DA:1268,859
DA:1270,180
DA:1271,180
DA:1272,180
DA:1274,1090
DA:1275,1090
DA:1276,1090
DA:1278,160
DA:1279,160
DA:1280,160
DA:1286,0
DA:1287,0
DA:1290,18460
DA:1292,6703
DA:1293,6703
DA:1294,6703
DA:1296,6703
DA:1297,6703
DA:1299,16
DA:1300,16
DA:1301,32
DA:1302,64
DA:1303,16
DA:1305,6703
DA:1306,6703
DA:1308,0
DA:1309,0
DA:1310,0
DA:1311,0
DA:1313,6703
DA:1316,6703
DA:1323,6703
DA:1325,20109
DA:1326,33515
DA:1328,6049
DA:1329,6049
DA:1330,6049
DA:1331,6049
DA:1333,6049
DA:1334,0
DA:1337,6053
DA:1338,6049
DA:1339,6049
DA:1341,6049
DA:1342,6049
DA:1343,6017
DA:1344,6017
DA:1345,6017
DA:1346,6017
DA:1348,12286
DA:1349,6241
DA:1351,6241
DA:1352,8
DA:1355,6237
DA:1356,8628
DA:1357,2157
DA:1358,4080
DA:1359,4956
DA:1360,1239
DA:1362,2841
DA:1363,5682
DA:1364,2841
DA:1365,2841
DA:1367,24192
DA:1369,2372
DA:1370,2372
DA:1371,2372
DA:1373,2372
DA:1374,2372
DA:1375,2372
DA:1376,2372
DA:1378,2372
DA:1379,2372
DA:1380,2372
DA:1381,2372
DA:1382,2372
DA:1383,2372
DA:1386,2372
DA:1387,2372
DA:1389,2372
DA:1390,2372
DA:1394,4744
DA:1399,4744
DA:1400,4416
DA:1402,1268
DA:1403,3804
DA:1404,3640
DA:1405,9488
DA:1407,464
DA:1408,464
DA:1409,464
DA:1411,345
DA:1412,345
DA:1413,345
DA:1415,345
DA:1416,345
DA:1418,690
DA:1419,345
DA:1421,345
DA:1422,1035
DA:1423,1035
DA:1425,345
DA:1426,345
DA:1427,345
DA:1429,345
DA:1430,1035
DA:1431,690
DA:1433,160
DA:1434,160
DA:1435,160
DA:1437,160
DA:1438,160
DA:1440,320
DA:1441,160
DA:1443,160
DA:1444,160
DA:1445,160
DA:1446,160
DA:1447,480
DA:1448,480
DA:1450,160
DA:1451,480
DA:1452,320
DA:1454,859
DA:1455,859
DA:1456,859
DA:1458,859
DA:1459,859
DA:1461,859
DA:1462,2577
DA:1463,2577
DA:1464,859
DA:1465,859
DA:1466,859
DA:1467,859
DA:1468,859
DA:1469,1718
DA:1471,859
DA:1472,859
DA:1473,859
DA:1474,1075
DA:1475,216
DA:1476,216
DA:1477,216
DA:1479,216
DA:1480,216
DA:1482,216
DA:1483,648
DA:1484,648
DA:1485,216
DA:1486,216
DA:1487,216
DA:1488,216
DA:1489,216
DA:1490,648
DA:1491,216
DA:1492,859
DA:1494,859
DA:1495,249
DA:1496,249
DA:1497,249
DA:1498,249
DA:1499,249
DA:1500,249
DA:1501,747
DA:1502,0
DA:1504,1075
DA:1505,216
DA:1506,216
DA:1507,648
DA:1510,859
DA:1511,1718
DA:1513,180
DA:1514,360
DA:1515,180
DA:1517,1090
DA:1518,1090
DA:1519,1090
DA:1521,3270
DA:1522,3044
DA:1523,1885
DA:1524,1090
DA:1525,549
DA:1526,549
DA:1527,549
DA:1529,549
DA:1530,549
DA:1531,549
DA:1533,2745
DA:1534,2745
DA:1535,647
DA:1536,490
DA:1538,1353
DA:1541,549
DA:1542,549
DA:1543,549
DA:1544,549
DA:1545,549
DA:1546,1996
DA:1547,1497
DA:1549,250
DA:1550,150
DA:1552,549
DA:1553,549
DA:1554,549
DA:1555,1098
DA:1556,549
DA:1557,549
DA:1561,1082
DA:1562,641
DA:1563,541
DA:1564,1082
DA:1565,1623
DA:1566,1899
DA:1567,541
DA:1568,461
DA:1569,461
DA:1570,461
DA:1572,461
DA:1573,461
DA:1574,461
DA:1576,2305
DA:1577,2305
DA:1578,655
DA:1579,970
DA:1581,801
DA:1584,461
DA:1585,461
DA:1586,461
DA:1587,461
DA:1588,461
DA:1589,1844
DA:1590,1383
DA:1592,0
DA:1593,0
DA:1595,461
DA:1596,461
DA:1597,461
DA:1598,922
DA:1599,461
DA:1600,461
DA:1603,80
DA:1604,80
DA:1605,80
DA:1606,80
DA:1607,80
DA:1608,80
DA:1610,80
DA:1611,80
DA:1612,80
DA:1613,80
DA:1614,80
DA:1615,80
DA:1618,80
DA:1619,160
DA:1621,80
DA:1622,160
DA:1624,80
DA:1625,0
DA:1626,0
DA:1627,0
DA:1628,240
DA:1632,160
DA:1633,80
DA:1634,80
DA:1635,160
DA:1637,160
DA:1638,80
DA:1641,160
DA:1642,80
DA:1643,240
DA:1644,80
DA:1645,160
DA:1646,80
DA:1647,240
DA:1648,80
DA:1649,160
DA:1651,240
DA:1652,240
DA:1655,80
DA:1656,160
DA:1657,80
DA:1658,80
DA:1661,80
DA:1662,80
DA:1665,240
DA:1667,80
DA:1668,240
DA:1669,1170
DA:1671,160
DA:1672,160
DA:1673,160
DA:1676,160
DA:1677,160
DA:1678,160
DA:1679,160
DA:1681,160
DA:1684,160
DA:1685,160
DA:1686,160
DA:1688,160
DA:1691,160
DA:1692,160
DA:1693,160
DA:1695,320
DA:1696,160
DA:1697,160
DA:1698,160
DA:1700,320
DA:1701,160
DA:1702,160
DA:1703,160
DA:1706,160
DA:1707,160
DA:1708,160
DA:1709,320
DA:1710,160
DA:1711,160
DA:1712,160
DA:1715,160
DA:1716,160
DA:1717,160
DA:1719,320
DA:1720,160
DA:1721,160
DA:1723,160
DA:1726,160
DA:1729,160
DA:1730,160
DA:1731,160
DA:1733,160
DA:1734,160
DA:1735,160
DA:1738,320
DA:1739,320
DA:1740,320
DA:1742,320
DA:1743,160
DA:1746,160
DA:1747,160
DA:1748,160
DA:1749,320
DA:1750,480
DA:1752,0
DA:1753,0
DA:1754,0
DA:1755,0
DA:1756,0
DA:1759,160
DA:1760,160
DA:1761,160
DA:1762,160
DA:1764,160
DA:1765,160
DA:1767,160
DA:1768,480
DA:1769,3040
DA:1771,33674
DA:1772,33674
DA:1774,33674
DA:1775,33674
DA:1776,33674
DA:1778,33674
DA:1782,33674
DA:1783,160
DA:1784,16
DA:1786,144
DA:1788,33514
DA:1789,48
DA:1790,16
DA:1792,32
DA:1794,33466
DA:1795,48
DA:1796,16
DA:1798,32
DA:1800,33418
DA:1801,8754
DA:1803,8601
DA:1804,8601
DA:1806,153
DA:1807,153
DA:1809,24664
DA:1810,707
DA:1811,707
DA:1812,23957
DA:1813,16410
DA:1814,16410
DA:1815,23957
DA:1817,0
DA:1818,7547
DA:1819,768
DA:1820,768
DA:1821,7547
DA:1822,6555
DA:1823,6555
DA:1824,6555
DA:1825,6555
DA:1826,19889
DA:1827,224
DA:1828,224
DA:1829,224
DA:1830,448
DA:1832,0
DA:1834,67348
DA:1836,17258
DA:1837,17258
DA:1838,17258
DA:1840,17258
DA:1841,17258
DA:1843,17258
DA:1845,17258
DA:1846,16244
DA:1847,1014
DA:1848,454
DA:1850,560
DA:1852,34516
DA:1854,784
DA:1856,784
DA:1858,784
DA:1859,784
DA:1861,784
DA:1863,784
DA:1864,1568
DA:1866,784
DA:1867,688
DA:1868,688
DA:1870,688
DA:1871,5088
DA:1872,4400
DA:1873,4400
DA:1874,4400
DA:1876,4400
DA:1877,4400
DA:1879,4400
DA:1880,4400
DA:1882,272
DA:1883,272
DA:1884,272
DA:1885,272
DA:1887,4128
DA:1888,4128
DA:1889,320
DA:1891,3808
DA:1892,3808
DA:1893,4128
DA:1896,13200
DA:1897,13200
DA:1898,688
DA:1900,784
DA:1901,784
DA:1903,6555
DA:1905,6555
DA:1907,6555
DA:1908,6555
DA:1912,6555
DA:1913,688
DA:1915,688
DA:1916,688
DA:1917,688
DA:1918,688
DA:1920,2064
DA:1922,688
DA:1924,960
DA:1925,320
DA:1926,960
DA:1927,320
DA:1928,640
DA:1929,320
DA:1930,320
DA:1931,960
DA:1932,320
DA:1933,960
DA:1934,320
DA:1936,1104
DA:1937,368
DA:1938,1104
DA:1939,368
DA:1940,736
DA:1941,368
DA:1942,368
DA:1943,1104
DA:1944,368
DA:1945,1104
DA:1946,368
DA:1948,1376
DA:1949,688
DA:1951,5867
DA:1952,5867
DA:1954,5867
DA:1955,5867
DA:1960,5867
DA:1961,5867
DA:1963,5867
DA:1964,5532
DA:1965,4023
DA:1966,1488
DA:1967,3527
DA:1968,1137
DA:1969,3148
DA:1970,0
DA:1971,3148
DA:1972,48
DA:1973,3132
DA:1974,0
DA:1975,3132
DA:1976,384
DA:1977,3004
DA:1978,528
DA:1979,2828
DA:1980,288
DA:1981,2732
DA:1982,288
DA:1983,2636
DA:1984,576
DA:1985,2444
DA:1986,480
DA:1987,2284
DA:1988,432
DA:1989,2140
DA:1990,699
DA:1991,1907
DA:1992,753
DA:1993,1656
DA:1994,2823
DA:1995,715
DA:1996,918
DA:1997,409
DA:1998,1035
DA:1999,64
DA:2000,192
DA:2002,0
DA:2005,11734
DA:2006,18977
DA:2008,224
DA:2010,224
DA:2012,224
DA:2013,224
DA:2015,224
DA:2017,224
DA:2018,224
DA:2021,224
DA:2023,224
DA:2024,96
DA:2025,192
DA:2026,384
DA:2027,64
DA:2028,96
DA:2029,32
DA:2030,96
DA:2032,0
DA:2035,224
DA:2036,448
DA:2038,16244
DA:2039,16244
DA:2040,16244
DA:2042,34472
DA:2044,32488
DA:2045,15396
DA:2047,15396
DA:2050,15396
DA:2051,2636
DA:2052,1158
DA:2054,1478
DA:2056,12760
DA:2057,2357
DA:2059,10403
DA:2060,1532
DA:2062,24267
DA:2063,16244
DA:2065,752
DA:2066,752
DA:2067,752
DA:2068,752
DA:2069,752
DA:2072,752
DA:2073,2256
DA:2075,96
DA:2076,96
DA:2077,96
DA:2078,96
DA:2080,96
DA:2081,192
DA:2082,96
DA:2083,96
DA:2086,96
DA:2087,16532
DA:2088,16244
DA:2090,15307
DA:2091,15307
DA:2093,15307
DA:2095,30614
DA:2096,5606
DA:2097,15468
DA:2099,450
DA:2100,1350
DA:2102,0
DA:2103,9701
DA:2104,5675
DA:2105,5675
DA:2106,11350
DA:2107,5504
DA:2108,16512
DA:2109,0
DA:2111,5504
DA:2113,5504
DA:2114,3250
DA:2116,2254
DA:2118,7733
DA:2122,25
DA:2123,0
DA:2125,25
DA:2126,11008
DA:2127,342
DA:2128,342
DA:2130,0
DA:2131,9701
DA:2132,3926
DA:2133,3926
DA:2134,3926
DA:2135,3926
DA:2136,3926
DA:2139,3926
DA:2140,1605
DA:2142,2321
DA:2143,895
DA:2145,1426
DA:2146,308
DA:2150,1118
DA:2151,153
DA:2155,965
DA:2156,153
DA:2160,812
DA:2161,260
DA:2162,139
DA:2164,121
DA:2168,552
DA:2169,267
DA:2170,98
DA:2172,169
DA:2176,285
DA:2177,57
DA:2179,228
DA:2180,57
DA:2182,171
DA:2183,57
DA:2185,114
DA:2186,57
DA:2188,57
DA:2189,57
DA:2192,0
DA:2193,7952
DA:2194,100
DA:2195,100
DA:2196,100
DA:2197,100
DA:2198,100
DA:2199,75
DA:2201,25
DA:2202,25
DA:2204,0
DA:2205,15507
DA:2207,0
DA:2208,15307
DA:2210,50
DA:2211,50
DA:2212,50
DA:2214,0
DA:2215,0
DA:2217,0
DA:2220,918
DA:2222,918
DA:2224,918
DA:2225,918
DA:2228,1836
DA:2231,918
DA:2232,918
DA:2233,918
DA:2234,918
DA:2237,918
DA:2238,918
DA:2239,918
DA:2244,2754
DA:2245,820
DA:2246,1640
DA:2247,820
DA:2248,820
DA:2249,820
DA:2250,356
DA:2251,356
DA:2252,356
DA:2253,356
DA:2254,356
DA:2257,356
DA:2258,356
DA:2259,728
DA:2260,420
DA:2261,420
DA:2265,420
DA:2266,420
DA:2270,372
DA:2273,356
DA:2275,308
DA:2276,680
DA:2277,372
DA:2278,372
DA:2279,372
DA:2280,0
DA:2281,0
DA:2283,744
DA:2284,372
DA:2286,0
DA:2288,308
DA:2289,308
DA:2290,760
DA:2291,452
DA:2292,452
DA:2293,452
DA:2294,824
DA:2296,160
DA:2299,308
DA:2300,308
DA:2301,308
DA:2302,616
DA:2303,616
DA:2304,308
DA:2305,308
DA:2306,712
DA:2307,820
DA:2308,820
DA:2311,610
DA:2312,610
DA:2313,512
DA:2314,512
DA:2315,512
DA:2316,1904
DA:2317,2784
DA:2319,1122
DA:2320,48
DA:2321,82
DA:2322,48
DA:2325,610
DA:2326,1220
DA:2327,1220
DA:2328,1220
DA:2330,304
DA:2331,0
DA:2333,304
DA:2334,304
DA:2335,912
DA:2336,912
DA:2337,608
DA:2338,610
DA:2340,274
DA:2341,722
DA:2342,448
DA:2343,240
DA:2345,896
DA:2347,274
DA:2351,32
DA:2352,96
DA:2353,128
DA:2355,306
DA:2356,304
DA:2359,306
DA:2360,304
DA:2363,0
DA:2365,306
DA:2366,306
DA:2367,612
DA:2369,612
DA:2370,5506
LF:1191
LH:1121
end_of_record
TN:
SF:/home/runner/work/fakelua/fakelua/src/compile/c_gen.h
FN:16,16,_ZN7fakelua4CGenD2Ev
FNDA:3097,_ZN7fakelua4CGenD2Ev
FNF:1
FNH:1
DA:16,3097
LF:1
LH:1
end_of_record
TN:
SF:/home/runner/work/fakelua/fakelua/src/compile/compile_common.h
FNF:0
FNH:0
DA:22,39684
DA:23,13112
DA:27,10480
DA:28,10480
DA:32,16092
DA:33,16092
DA:37,3571
LF:7
LH:7
end_of_record
TN:
SF:/home/runner/work/fakelua/fakelua/src/compile/compiler.cpp
FN:13,14,_ZN7fakelua8CompilerC2EPNS_5StateE
FN:17,22,_ZN7fakelua8Compiler11CompileFileERKNSt7__cxx1112basic_stringIcSt11char_traitsIcESaIcEEERKNS_13CompileConfigE
FN:25,30,_ZN7fakelua8Compiler13CompileStringERKNSt7__cxx1112basic_stringIcSt11char_traitsIcESaIcEEERKNS_13CompileConfigE
FN:33,86,_ZN7fakelua8Compiler7CompileERNS_8MyFlexerERKNS_13CompileConfigE
FNDA:2018,_ZN7fakelua8CompilerC2EPNS_5StateE
FNDA:3531,_ZN7fakelua8Compiler11CompileFileERKNSt7__cxx1112basic_stringIcSt11char_traitsIcESaIcEEERKNS_13CompileConfigE
FNDA:50,_ZN7fakelua8Compiler13CompileStringERKNSt7__cxx1112basic_stringIcSt11char_traitsIcESaIcEEERKNS_13CompileConfigE
FNDA:3571,_ZN7fakelua8Compiler7CompileERNS_8MyFlexerERKNS_13CompileConfigE
FNF:4
FNH:4
DA:13,2018
DA:14,2018
DA:17,3531
DA:18,3531
DA:19,3531
DA:20,3531
DA:21,6702
DA:22,3531
DA:25,50
DA:26,50
DA:27,50
DA:28,50
DA:29,88
DA:30,50
DA:33,3571
DA:34,3571
DA:36,3571
DA:37,7142
DA:40,3571
DA:41,3571
DA:42,3564
DA:45,3564
DA:46,0
DA:48,3564
DA:51,3564
DA:52,3862
DA:55,3564
DA:60,3418
DA:61,3418
DA:64,3097
DA:65,3097
DA:68,3097
DA:69,3097
DA:72,3081
DA:73,2824
DA:74,2824
DA:76,3073
DA:77,2816
DA:78,2816
DA:81,3073
DA:82,257
DA:85,3073
DA:86,3971
LF:43
LH:42
end_of_record
TN:
SF:/home/runner/work/fakelua/fakelua/src/compile/compiler.h
FNF:0
FNH:0
DA:18,1953
DA:29,257
LF:2
LH:2
end_of_record
TN:
SF:/home/runner/work/fakelua/fakelua/src/compile/my_flexer.cpp
FN:21,27,_ZN7fakelua8MyFlexer11InputStringERKNSt7__cxx1112basic_stringIcSt11char_traitsIcESaIcEEE
FN:30,32,_ZN7fakelua8MyFlexer8SetChunkERKSt10shared_ptrINS_19SyntaxTreeInterfaceEE
FN:35,37,_ZNK7fakelua8MyFlexer8GetChunkEv
FN:40,53,_ZN7fakelua8MyFlexer12RemoveQuotesERKNSt7__cxx1112basic_stringIcSt11char_traitsIcESaIcEEE
FN:56,63,_ZN7fakelua8MyFlexer15GenerateTmpFileERKNSt7__cxx1112basic_stringIcSt11char_traitsIcESaIcEEE
FN:9,18,_ZN7fakelua8MyFlexer9InputFileERKNSt7__cxx1112basic_stringIcSt11char_traitsIcESaIcEEE
FNDA:50,_ZN7fakelua8MyFlexer11InputStringERKNSt7__cxx1112basic_stringIcSt11char_traitsIcESaIcEEE
FNDA:3564,_ZN7fakelua8MyFlexer8SetChunkERKSt10shared_ptrINS_19SyntaxTreeInterfaceEE
FNDA:3564,_ZNK7fakelua8MyFlexer8GetChunkEv
FNDA:841,_ZN7fakelua8MyFlexer12RemoveQuotesERKNSt7__cxx1112basic_stringIcSt11char_traitsIcESaIcEEE
FNDA:50,_ZN7fakelua8MyFlexer15GenerateTmpFileERKNSt7__cxx1112basic_stringIcSt11char_traitsIcESaIcEEE
FNDA:3531,_ZN7fakelua8MyFlexer9InputFileERKNSt7__cxx1112basic_stringIcSt11char_traitsIcESaIcEEE
FNF:6
FNH:6
DA:9,3531
DA:10,3531
DA:11,3531
DA:12,10
DA:14,3521
DA:15,3521
DA:16,3521
DA:17,3521
DA:18,3521
DA:21,50
DA:22,50
DA:23,50
DA:24,50
DA:25,50
DA:26,50
DA:27,50
DA:30,3564
DA:31,3564
DA:32,3564
DA:35,3564
DA:36,3564
DA:40,841
DA:41,841
DA:43,841
DA:45,1672
DA:48,5
DA:49,5
DA:51,5
DA:56,50
DA:57,100
DA:58,50
DA:59,50
DA:60,50
DA:61,50
DA:62,50
DA:63,50
LF:36
LH:36
end_of_record
TN:
SF:/home/runner/work/fakelua/fakelua/src/compile/my_flexer.h
FN:15,15,_ZN7fakelua8MyFlexerC2Ev
FN:17,17,_ZN7fakelua8MyFlexerD0Ev
FN:17,17,_ZN7fakelua8MyFlexerD2Ev
FNDA:3581,_ZN7fakelua8MyFlexerC2Ev
FNDA:0,_ZN7fakelua8MyFlexerD0Ev
FNDA:3581,_ZN7fakelua8MyFlexerD2Ev
FNF:3
FNH:2
DA:15,3581
DA:17,7145
DA:38,3867
DA:39,7438
LF:4
LH:4
end_of_record
TN:
SF:/home/runner/work/fakelua/fakelua/src/compile/preprocessor.cpp
FN:10,11,_ZN7fakelua12PreProcessorC2EPNS_5StateE
FN:13,37,_ZN7fakelua12PreProcessor7ProcessERKNS_13CompileResultERKNS_13CompileConfigE
FN:142,145,_ZN7fakelua12PreProcessor22PreprocessTableAssignsERKSt10shared_ptrINS_19SyntaxTreeInterfaceEE
FN:147,233,_ZN7fakelua12PreProcessor21PreprocessTableAssignERKSt10shared_ptrINS_19SyntaxTreeInterfaceEE
FN:235,277,_ZN7fakelua12PreProcessor22CheckUnsupportedSyntaxERKSt10shared_ptrINS_19SyntaxTreeInterfaceEE
FN:279,396,_ZN7fakelua12PreProcessor9CheckNodeERKSt10shared_ptrINS_19SyntaxTreeInterfaceEE
FN:39,45,_ZN7fakelua12PreProcessor13DumpDebugFileERKSt10shared_ptrINS_19SyntaxTreeInterfaceEEi
FN:398,419,_ZN7fakelua12PreProcessor19CheckGlobalConstExpERKSt10shared_ptrINS_19SyntaxTreeInterfaceEE
FN:47,49,_ZN7fakelua12PreProcessor10ThrowErrorERKNSt7__cxx1112basic_stringIcSt11char_traitsIcESaIcEEERKSt10shared_ptrINS_19SyntaxTreeInterfaceEE
FN:51,53,_ZN7fakelua12PreProcessor11LocationStrB5cxx11ERKSt10shared_ptrINS_19SyntaxTreeInterfaceEE
FN:55,58,_ZN7fakelua12PreProcessor22PreprocessSplitAssignsERKSt10shared_ptrINS_19SyntaxTreeInterfaceEE
FN:60,140,_ZN7fakelua12PreProcessor21PreprocessSplitAssignERKSt10shared_ptrINS_19SyntaxTreeInterfaceEE
FNDA:3418,_ZN7fakelua12PreProcessorC2EPNS_5StateE
FNDA:3418,_ZN7fakelua12PreProcessor7ProcessERKNS_13CompileResultERKNS_13CompileConfigE
FNDA:3097,_ZN7fakelua12PreProcessor22PreprocessTableAssignsERKSt10shared_ptrINS_19SyntaxTreeInterfaceEE
FNDA:141947,_ZN7fakelua12PreProcessor21PreprocessTableAssignERKSt10shared_ptrINS_19SyntaxTreeInterfaceEE
FNDA:3418,_ZN7fakelua12PreProcessor22CheckUnsupportedSyntaxERKSt10shared_ptrINS_19SyntaxTreeInterfaceEE
FNDA:142056,_ZN7fakelua12PreProcessor9CheckNodeERKSt10shared_ptrINS_19SyntaxTreeInterfaceEE
FNDA:2928,_ZN7fakelua12PreProcessor13DumpDebugFileERKSt10shared_ptrINS_19SyntaxTreeInterfaceEEi
FNDA:676,_ZN7fakelua12PreProcessor19CheckGlobalConstExpERKSt10shared_ptrINS_19SyntaxTreeInterfaceEE
FNDA:321,_ZN7fakelua12PreProcessor10ThrowErrorERKNSt7__cxx1112basic_stringIcSt11char_traitsIcESaIcEEERKSt10shared_ptrINS_19SyntaxTreeInterfaceEE
FNDA:321,_ZN7fakelua12PreProcessor11LocationStrB5cxx11ERKSt10shared_ptrINS_19SyntaxTreeInterfaceEE
FNDA:3100,_ZN7fakelua12PreProcessor22PreprocessSplitAssignsERKSt10shared_ptrINS_19SyntaxTreeInterfaceEE
FNDA:141454,_ZN7fakelua12PreProcessor21PreprocessSplitAssignERKSt10shared_ptrINS_19SyntaxTreeInterfaceEE
FNF:12
FNH:12
DA:10,3418
DA:11,3418
DA:13,3418
DA:14,3418
DA:16,3418
DA:17,3418
DA:19,3418
DA:22,3418
DA:25,3100
DA:26,3097
DA:27,1464
DA:31,3097
DA:32,3097
DA:33,1464
DA:36,3418
DA:37,3097
DA:39,2928
DA:40,5856
DA:41,2928
DA:42,2928
DA:43,5856
DA:44,2928
DA:45,2928
DA:47,321
DA:48,642
DA:51,321
DA:52,321
DA:55,3100
DA:56,3100
DA:57,144554
DA:58,3097
DA:60,141454
DA:61,141454
DA:62,131745
DA:65,9709
DA:66,9709
DA:67,27382
DA:68,17676
DA:69,2237
DA:70,2237
DA:71,2237
DA:72,2240
DA:73,2240
DA:74,2237
DA:75,2237
DA:76,2237
DA:77,2237
DA:80,2237
DA:81,9
DA:85,2234
DA:86,2202
DA:89,32
DA:90,32
DA:91,32
DA:93,96
DA:96,64
DA:97,64
DA:98,64
DA:99,64
DA:100,64
DA:101,32
DA:104,32
DA:105,32
DA:106,32
DA:107,32
DA:110,96
DA:111,64
DA:113,64
DA:114,64
DA:115,64
DA:117,64
DA:118,64
DA:119,128
DA:121,64
DA:122,128
DA:123,64
DA:124,128
DA:125,64
DA:126,64
DA:128,64
DA:129,128
DA:130,64
DA:132,64
DA:133,384
DA:134,96
DA:135,11185
DA:136,15439
DA:138,9709
DA:139,9706
DA:140,19415
DA:142,3097
DA:143,3097
DA:144,145044
DA:145,3097
DA:147,141947
DA:148,141947
DA:149,132241
DA:152,9706
DA:153,9706
DA:154,27443
DA:155,17737
DA:156,2266
DA:157,2266
DA:158,2266
DA:159,2266
DA:160,2266
DA:161,2266
DA:162,2266
DA:163,2266
DA:164,2266
DA:167,2266
DA:168,0
DA:169,0
DA:173,2266
DA:174,2266
DA:177,2266
DA:178,6574
DA:181,240
DA:182,240
DA:183,240
DA:184,480
DA:185,480
DA:186,480
DA:187,240
DA:188,240
DA:190,240
DA:191,240
DA:194,240
DA:195,240
DA:196,240
DA:197,480
DA:198,240
DA:199,720
DA:200,240
DA:203,240
DA:204,480
DA:205,224
DA:206,448
DA:207,224
DA:208,16
DA:209,32
DA:210,48
DA:211,48
DA:212,16
DA:216,240
DA:217,240
DA:220,240
DA:221,480
DA:222,240
DA:224,240
DA:225,1200
DA:226,2026
DA:227,2266
DA:228,11330
DA:229,15471
DA:231,9706
DA:232,9706
DA:233,19412
DA:235,3418
DA:236,3418
DA:237,3418
DA:240,8216
DA:241,5004
DA:242,4125
DA:243,4125
DA:244,4125
DA:245,8250
DA:246,9
DA:248,4122
DA:249,4122
DA:250,6
DA:252,4122
DA:253,8250
DA:255,4998
DA:256,680
DA:257,680
DA:258,680
DA:259,200
DA:261,680
DA:262,680
DA:263,680
DA:264,8
DA:265,204
DA:268,1156
DA:269,676
DA:271,1360
DA:272,1360
DA:276,148686
DA:277,3100
DA:279,142056
DA:280,142056
DA:281,4
DA:282,8
DA:283,4
DA:284,4
DA:285,8
DA:286,600
DA:287,600
DA:288,600
DA:289,1200
DA:290,4
DA:292,600
DA:293,600
DA:294,4
DA:296,600
DA:297,1200
DA:298,4
DA:300,600
DA:301,1800
DA:302,8
DA:304,596
DA:305,2400
DA:306,2633
DA:307,2633
DA:308,2633
DA:309,68
DA:311,2601
DA:312,2601
DA:313,2601
DA:314,8
DA:316,2597
DA:317,5234
DA:318,4633
DA:319,4633
DA:320,4633
DA:321,4617
DA:322,4617
DA:323,56
DA:325,4645
DA:326,4605
DA:327,4633
DA:328,192
DA:329,192
DA:332,192
DA:333,192
DA:334,36
DA:338,188
DA:339,188
DA:340,32
DA:344,184
DA:345,184
DA:346,552
DA:347,28
DA:349,180
DA:350,540
DA:351,24
DA:353,176
DA:354,176
DA:355,176
DA:356,528
DA:357,20
DA:359,172
DA:360,592
DA:361,8
DA:362,20
DA:366,168
DA:367,168
DA:368,504
DA:369,12
DA:371,164
DA:372,164
DA:373,164
DA:374,8
DA:375,8
DA:378,328
DA:379,508
DA:380,176
DA:381,176
DA:382,180
DA:383,184
DA:384,160
DA:385,572
DA:386,32713
DA:387,32713
DA:388,65426
DA:389,8
DA:391,32709
DA:392,32709
DA:396,141944
DA:398,676
DA:399,676
DA:400,676
DA:401,676
DA:403,676
DA:404,40
DA:405,656
DA:406,304
DA:407,504
DA:408,212
DA:409,488
DA:410,8
DA:411,8
DA:412,16
DA:413,8
DA:414,8
DA:415,12
DA:418,8
DA:419,1156
LF:298
LH:296
end_of_record
TN:
SF:/home/runner/work/fakelua/fakelua/src/compile/preprocessor.h
FNF:0
FNH:0
DA:14,3418
LF:1
LH:1
end_of_record
TN:
SF:/home/runner/work/fakelua/fakelua/src/compile/syntax_tree.cpp
FN:100,107,_ZNK7fakelua26SyntaxTreeTableconstructor4DumpB5cxx11Ei
FN:11,18,_ZNK7fakelua15SyntaxTreeBlock4DumpB5cxx11Ei
FN:110,117,_ZNK7fakelua19SyntaxTreeFieldlist4DumpB5cxx11Ei
FN:120,137,_ZNK7fakelua15SyntaxTreeField4DumpB5cxx11Ei
FN:140,144,_ZNK7fakelua15SyntaxTreeBreak4DumpB5cxx11Ei
FN:147,152,_ZNK7fakelua14SyntaxTreeGoto4DumpB5cxx11Ei
FN:155,161,_ZNK7fakelua15SyntaxTreeWhile4DumpB5cxx11Ei
FN:164,170,_ZNK7fakelua16SyntaxTreeRepeat4DumpB5cxx11Ei
FN:173,183,_ZNK7fakelua12SyntaxTreeIf4DumpB5cxx11Ei
FN:186,194,_ZNK7fakelua20SyntaxTreeElseiflist4DumpB5cxx11Ei
FN:197,208,_ZNK7fakelua17SyntaxTreeForLoop4DumpB5cxx11Ei
FN:21,25,_ZNK7fakelua15SyntaxTreeLabel4DumpB5cxx11Ei
FN:211,218,_ZNK7fakelua15SyntaxTreeForIn4DumpB5cxx11Ei
FN:221,233,_ZNK7fakelua18SyntaxTreeNamelist4DumpB5cxx11Ei
FN:236,242,_ZNK7fakelua18SyntaxTreeFunction4DumpB5cxx11Ei
FN:245,252,_ZNK7fakelua22SyntaxTreeFuncnamelist4DumpB5cxx11Ei
FN:255,261,_ZNK7fakelua18SyntaxTreeFuncname4DumpB5cxx11Ei
FN:264,272,_ZNK7fakelua18SyntaxTreeFuncbody4DumpB5cxx11Ei
FN:275,280,_ZNK7fakelua21SyntaxTreeFunctiondef4DumpB5cxx11Ei
FN:28,35,_ZNK7fakelua16SyntaxTreeReturn4DumpB5cxx11Ei
FN:283,293,_ZNK7fakelua17SyntaxTreeParlist4DumpB5cxx11Ei
FN:296,302,_ZNK7fakelua23SyntaxTreeLocalFunction4DumpB5cxx11Ei
FN:305,313,_ZNK7fakelua18SyntaxTreeLocalVar4DumpB5cxx11Ei
FN:316,331,_ZNK7fakelua13SyntaxTreeExp4DumpB5cxx11Ei
FN:334,339,_ZNK7fakelua15SyntaxTreeBinop4DumpB5cxx11Ei
FN:342,347,_ZNK7fakelua14SyntaxTreeUnop4DumpB5cxx11Ei
FN:350,365,_ZNK7fakelua14SyntaxTreeArgs4DumpB5cxx11Ei
FN:368,374,_ZNK7fakelua19SyntaxTreePrefixexp4DumpB5cxx11Ei
FN:377,616,_ZN7fakelua14WalkSyntaxTreeERKSt10shared_ptrINS_19SyntaxTreeInterfaceEERKSt8functionIFvS4_EE
FN:38,44,_ZNK7fakelua16SyntaxTreeAssign4DumpB5cxx11Ei
FN:47,54,_ZNK7fakelua17SyntaxTreeVarlist4DumpB5cxx11Ei
FN:57,64,_ZNK7fakelua17SyntaxTreeExplist4DumpB5cxx11Ei
FN:6,8,_ZNK7fakelua15SyntaxTreeEmpty4DumpB5cxx11Ei
FN:67,85,_ZNK7fakelua13SyntaxTreeVar4DumpB5cxx11Ei
FN:88,97,_ZNK7fakelua22SyntaxTreeFunctioncall4DumpB5cxx11Ei
FNDA:670,_ZNK7fakelua26SyntaxTreeTableconstructor4DumpB5cxx11Ei
FNDA:9463,_ZNK7fakelua15SyntaxTreeBlock4DumpB5cxx11Ei
FNDA:564,_ZNK7fakelua19SyntaxTreeFieldlist4DumpB5cxx11Ei
FNDA:3134,_ZNK7fakelua15SyntaxTreeField4DumpB5cxx11Ei
FNDA:141,_ZNK7fakelua15SyntaxTreeBreak4DumpB5cxx11Ei
FNDA:5,_ZNK7fakelua14SyntaxTreeGoto4DumpB5cxx11Ei
FNDA:318,_ZNK7fakelua15SyntaxTreeWhile4DumpB5cxx11Ei
FNDA:165,_ZNK7fakelua16SyntaxTreeRepeat4DumpB5cxx11Ei
FNDA:630,_ZNK7fakelua12SyntaxTreeIf4DumpB5cxx11Ei
FNDA:630,_ZNK7fakelua20SyntaxTreeElseiflist4DumpB5cxx11Ei
FNDA:639,_ZNK7fakelua17SyntaxTreeForLoop4DumpB5cxx11Ei
FNDA:15,_ZNK7fakelua15SyntaxTreeLabel4DumpB5cxx11Ei
FNDA:170,_ZNK7fakelua15SyntaxTreeForIn4DumpB5cxx11Ei
FNDA:6859,_ZNK7fakelua18SyntaxTreeNamelist4DumpB5cxx11Ei
FNDA:3826,_ZNK7fakelua18SyntaxTreeFunction4DumpB5cxx11Ei
FNDA:3826,_ZNK7fakelua22SyntaxTreeFuncnamelist4DumpB5cxx11Ei
FNDA:3826,_ZNK7fakelua18SyntaxTreeFuncname4DumpB5cxx11Ei
FNDA:4012,_ZNK7fakelua18SyntaxTreeFuncbody4DumpB5cxx11Ei
FNDA:5,_ZNK7fakelua21SyntaxTreeFunctiondef4DumpB5cxx11Ei
FNDA:4405,_ZNK7fakelua16SyntaxTreeReturn4DumpB5cxx11Ei
FNDA:2615,_ZNK7fakelua17SyntaxTreeParlist4DumpB5cxx11Ei
FNDA:181,_ZNK7fakelua23SyntaxTreeLocalFunction4DumpB5cxx11Ei
FNDA:4079,_ZNK7fakelua18SyntaxTreeLocalVar4DumpB5cxx11Ei
FNDA:32069,_ZNK7fakelua13SyntaxTreeExp4DumpB5cxx11Ei
FNDA:6202,_ZNK7fakelua15SyntaxTreeBinop4DumpB5cxx11Ei
FNDA:223,_ZNK7fakelua14SyntaxTreeUnop4DumpB5cxx11Ei
FNDA:791,_ZNK7fakelua14SyntaxTreeArgs4DumpB5cxx11Ei
FNDA:15693,_ZNK7fakelua19SyntaxTreePrefixexp4DumpB5cxx11Ei
FNDA:3747170,_ZN7fakelua14WalkSyntaxTreeERKSt10shared_ptrINS_19SyntaxTreeInterfaceEERKSt8functionIFvS4_EE
FNDA:2166,_ZNK7fakelua16SyntaxTreeAssign4DumpB5cxx11Ei
FNDA:2166,_ZNK7fakelua17SyntaxTreeVarlist4DumpB5cxx11Ei
FNDA:11430,_ZNK7fakelua17SyntaxTreeExplist4DumpB5cxx11Ei
FNDA:31,_ZNK7fakelua15SyntaxTreeEmpty4DumpB5cxx11Ei
FNDA:16939,_ZNK7fakelua13SyntaxTreeVar4DumpB5cxx11Ei
FNDA:791,_ZNK7fakelua22SyntaxTreeFunctioncall4DumpB5cxx11Ei
FNF:35
FNH:35
DA:6,31
DA:7,93
DA:11,9463
DA:12,9463
DA:13,37852
DA:14,26572
DA:15,34218
DA:17,9463
DA:18,0
DA:21,15
DA:22,15
DA:23,75
DA:24,15
DA:25,0
DA:28,4405
DA:29,4405
DA:30,17620
DA:31,4405
DA:32,8778
DA:34,4405
DA:35,0
DA:38,2166
DA:39,2166
DA:40,8664
DA:41,4332
DA:42,4332
DA:43,2166
DA:44,0
DA:47,2166
DA:48,2166
DA:49,8664
DA:50,4342
DA:51,4352
DA:53,2166
DA:54,0
DA:57,11430
DA:58,11430
DA:59,45720
DA:60,23529
DA:61,24198
DA:63,11430
DA:64,0
DA:67,16939
DA:68,16939
DA:69,67756
DA:70,16939
DA:71,48183
DA:72,80305
DA:73,878
DA:74,2202
DA:75,1468
DA:76,1468
DA:77,144
DA:78,432
DA:79,288
DA:80,720
DA:82,0
DA:84,16939
DA:85,0
DA:88,791
DA:89,791
DA:90,3164
DA:91,1582
DA:92,791
DA:93,50
DA:95,1582
DA:96,791
DA:97,0
DA:100,670
DA:101,670
DA:102,2680
DA:103,670
DA:104,1128
DA:106,670
DA:107,0
DA:110,564
DA:111,564
DA:112,2256
DA:113,3698
DA:114,6268
DA:116,564
DA:117,0
DA:120,3134
DA:121,3134
DA:122,12536
DA:123,3134
DA:124,8526
DA:125,2842
DA:126,650
DA:128,5684
DA:129,292
DA:130,876
DA:131,1460
DA:132,584
DA:134,0
DA:136,3134
DA:137,0
DA:140,141
DA:141,141
DA:142,564
DA:143,141
DA:144,0
DA:147,5
DA:148,5
DA:149,20
DA:150,25
DA:151,5
DA:152,0
DA:155,318
DA:156,318
DA:157,1272
DA:158,636
DA:159,636
DA:160,318
DA:161,0
DA:164,165
DA:165,165
DA:166,660
DA:167,330
DA:168,330
DA:169,165
DA:170,0
DA:173,630
DA:174,630
DA:175,2520
DA:176,1260
DA:177,1260
DA:178,1260
DA:179,630
DA:180,370
DA:182,630
DA:183,0
DA:186,630
DA:187,630
DA:188,2520
DA:189,839
DA:190,418
DA:191,418
DA:193,630
DA:194,0
DA:197,639
DA:198,639
DA:199,2556
DA:200,3195
DA:201,1278
DA:202,1278
DA:203,639
DA:204,226
DA:206,1278
DA:207,639
DA:208,0
DA:211,170
DA:212,170
DA:213,680
DA:214,340
DA:215,340
DA:216,340
DA:217,170
DA:218,0
DA:221,6859
DA:222,6859
DA:223,27436
DA:224,6859
DA:225,16401
DA:226,47710
DA:227,9542
DA:228,210
DA:230,9542
DA:232,6859
DA:233,0
DA:236,3826
DA:237,3826
DA:238,15304
DA:239,7652
DA:240,7652
DA:241,3826
DA:242,0
DA:245,3826
DA:246,3826
DA:247,15304
DA:248,7662
DA:249,19180
DA:251,3826
DA:252,0
DA:255,3826
DA:256,3826
DA:257,15304
DA:258,7652
DA:259,19130
DA:260,3826
DA:261,0
DA:264,4012
DA:265,4012
DA:266,16048
DA:267,4012
DA:268,5230
DA:270,8024
DA:271,4012
DA:272,0
DA:275,5
DA:276,5
DA:277,20
DA:278,10
DA:279,5
DA:280,0
DA:283,2615
DA:284,2615
DA:285,10460
DA:286,2615
DA:287,5220
DA:289,2615
DA:290,40
DA:292,2615
DA:293,0
DA:296,181
DA:297,181
DA:298,724
DA:299,905
DA:300,362
DA:301,181
DA:302,0
DA:305,4079
DA:306,4079
DA:307,16316
DA:308,8158
DA:309,4079
DA:310,8074
DA:312,4079
DA:313,0
DA:316,32069
DA:317,32069
DA:318,128276
DA:319,160345
DA:320,160345
DA:321,32069
DA:322,12404
DA:324,32069
DA:325,12850
DA:327,32069
DA:328,42206
DA:330,32069
DA:331,0
DA:334,6202
DA:335,6202
DA:336,24808
DA:337,31010
DA:338,6202
DA:339,0
DA:342,223
DA:343,223
DA:344,892
DA:345,1115
DA:346,223
DA:347,0
DA:350,791
DA:351,791
DA:352,3164
DA:353,791
DA:354,1336
DA:355,123
DA:356,42
DA:357,102
DA:358,42
DA:359,81
DA:360,324
DA:362,0
DA:364,791
DA:365,0
DA:368,15693
DA:369,15693
DA:370,62772
DA:371,78465
DA:372,31386
DA:373,15693
DA:374,0
DA:377,3747170
DA:378,3747170
DA:381,2061890
DA:382,87
DA:383,87
DA:384,174
DA:385,87
DA:386,87
DA:387,120464
DA:388,120464
DA:389,241112
DA:390,341564
DA:391,221287
DA:393,120277
DA:394,120464
DA:395,23
DA:396,23
DA:397,46
DA:398,19
DA:399,23
DA:400,74023
DA:401,74023
DA:402,148046
DA:403,74027
DA:404,73991
DA:405,74023
DA:406,27304
DA:407,27304
DA:408,54608
DA:409,27304
DA:410,27304
DA:411,27304
DA:412,27304
DA:413,27304
DA:414,27304
DA:415,54608
DA:416,54688
DA:417,27384
DA:419,27304
DA:420,27304
DA:421,176817
DA:422,176817
DA:423,353642
DA:424,366551
DA:425,189742
DA:427,176809
DA:428,176817
DA:429,302626
DA:430,302626
DA:431,605252
DA:432,302626
DA:433,302626
DA:434,302626
DA:435,302626
DA:436,13213
DA:437,13213
DA:438,26426
DA:439,13209
DA:440,13213
DA:441,13209
DA:442,13213
DA:443,7938
DA:444,7938
DA:445,15876
DA:446,7938
DA:447,7938
DA:448,7938
DA:449,7004
DA:450,7004
DA:451,14008
DA:452,50122
DA:453,43118
DA:455,7004
DA:456,7004
DA:457,43118
DA:458,43118
DA:459,86236
DA:460,43118
DA:461,43118
DA:462,43118
DA:463,43118
DA:464,2401
DA:465,2401
DA:466,4802
DA:467,2401
DA:468,2401
DA:469,13
DA:470,13
DA:471,26
DA:472,9
DA:473,13
DA:474,5186
DA:475,5186
DA:476,10372
DA:477,5186
DA:478,5186
DA:479,5186
DA:480,5186
DA:481,2405
DA:482,2405
DA:483,4810
DA:484,2405
DA:485,2405
DA:486,2405
DA:487,2405
DA:488,10839
DA:489,10839
DA:490,21678
DA:491,10839
DA:492,10839
DA:493,10839
DA:494,10839
DA:495,10839
DA:496,10839
DA:497,10839
DA:498,10839
DA:499,21678
DA:500,13982
DA:501,3143
DA:503,13982
DA:504,3143
DA:506,10839
DA:507,10839
DA:508,10953
DA:509,10953
DA:510,21906
DA:511,10953
DA:512,10953
DA:513,10953
DA:514,10953
DA:515,10953
DA:516,10953
DA:517,2394
DA:518,2394
DA:519,4788
DA:520,2362
DA:521,2362
DA:522,2394
DA:523,2362
DA:524,2394
DA:525,75172
DA:526,75172
DA:527,150344
DA:528,75172
DA:529,75172
DA:530,18344
DA:531,18344
DA:532,36688
DA:533,18344
DA:534,18440
DA:535,18248
DA:536,18344
DA:537,18344
DA:538,18344
DA:539,36688
DA:540,18344
DA:541,18344
DA:542,18344
DA:543,18344
DA:544,36688
DA:545,18344
DA:546,18344
DA:547,18344
DA:548,19178
DA:549,19178
DA:550,38356
DA:551,19214
DA:552,19250
DA:553,19070
DA:554,19178
DA:555,5
DA:556,5
DA:557,10
DA:558,5
DA:559,5
DA:560,5
DA:561,11711
DA:562,11711
DA:563,23422
DA:564,11711
DA:565,11675
DA:566,11711
DA:567,829
DA:568,829
DA:569,1658
DA:570,841
DA:571,817
DA:572,829
DA:573,61160
DA:574,61160
DA:575,122320
DA:576,61160
DA:577,61164
DA:578,61156
DA:579,61160
DA:580,557428
DA:581,557428
DA:582,1114856
DA:583,557424
DA:584,557424
DA:585,557432
DA:586,557420
DA:587,557428
DA:588,127180
DA:589,127180
DA:590,254360
DA:591,127180
DA:592,127180
DA:593,3307
DA:594,3307
DA:595,6614
DA:596,3307
DA:597,3307
DA:598,13209
DA:599,13209
DA:600,26418
DA:601,13209
DA:602,13209
DA:603,13209
DA:604,13209
DA:605,13209
DA:606,292728
DA:607,292728
DA:608,585456
DA:609,292732
DA:610,292724
DA:611,292728
DA:612,0
DA:613,3746631
LF:504
LH:467
end_of_record
TN:
SF:/home/runner/work/fakelua/fakelua/src/compile/syntax_tree.h
FN:1019,1019,_ZN7fakelua18SyntaxTreeNamelistD0Ev
FN:1019,1019,_ZN7fakelua18SyntaxTreeNamelistD2Ev
FN:1022,1024,_ZNK7fakelua18SyntaxTreeNamelist4TypeEv
FN:1055,1055,_ZN7fakelua18SyntaxTreeFunctionD0Ev
FN:1055,1055,_ZN7fakelua18SyntaxTreeFunctionD2Ev
FN:1058,1060,_ZNK7fakelua18SyntaxTreeFunction4TypeEv
FN:1096,1096,_ZN7fakelua22SyntaxTreeFuncnamelistD0Ev
FN:1096,1096,_ZN7fakelua22SyntaxTreeFuncnamelistD2Ev
FN:1099,1101,_ZNK7fakelua22SyntaxTreeFuncnamelist4TypeEv
FN:1126,1126,_ZN7fakelua18SyntaxTreeFuncnameD0Ev
FN:1126,1126,_ZN7fakelua18SyntaxTreeFuncnameD2Ev
FN:1129,1131,_ZNK7fakelua18SyntaxTreeFuncname4TypeEv
FN:1167,1167,_ZN7fakelua18SyntaxTreeFuncbodyD0Ev
FN:1167,1167,_ZN7fakelua18SyntaxTreeFuncbodyD2Ev
FN:1170,1172,_ZNK7fakelua18SyntaxTreeFuncbody4TypeEv
FN:1208,1208,_ZN7fakelua21SyntaxTreeFunctiondefD0Ev
FN:1208,1208,_ZN7fakelua21SyntaxTreeFunctiondefD2Ev
FN:1211,1213,_ZNK7fakelua21SyntaxTreeFunctiondef4TypeEv
FN:1238,1238,_ZN7fakelua17SyntaxTreeParlistD0Ev
FN:1238,1238,_ZN7fakelua17SyntaxTreeParlistD2Ev
FN:1241,1243,_ZNK7fakelua17SyntaxTreeParlist4TypeEv
FN:1279,1279,_ZN7fakelua23SyntaxTreeLocalFunctionD0Ev
FN:1279,1279,_ZN7fakelua23SyntaxTreeLocalFunctionD2Ev
FN:1282,1284,_ZNK7fakelua23SyntaxTreeLocalFunction4TypeEv
FN:1320,1320,_ZN7fakelua18SyntaxTreeLocalVarD0Ev
FN:1320,1320,_ZN7fakelua18SyntaxTreeLocalVarD2Ev
FN:1323,1325,_ZNK7fakelua18SyntaxTreeLocalVar4TypeEv
FN:1361,1361,_ZN7fakelua13SyntaxTreeExpD0Ev
FN:1361,1361,_ZN7fakelua13SyntaxTreeExpD2Ev
FN:1364,1366,_ZNK7fakelua13SyntaxTreeExp4TypeEv
FN:1435,1435,_ZN7fakelua15SyntaxTreeBinopD0Ev
FN:1435,1435,_ZN7fakelua15SyntaxTreeBinopD2Ev
FN:1438,1440,_ZNK7fakelua15SyntaxTreeBinop4TypeEv
FN:1465,1465,_ZN7fakelua14SyntaxTreeUnopD0Ev
FN:1465,1465,_ZN7fakelua14SyntaxTreeUnopD2Ev
FN:1468,1470,_ZNK7fakelua14SyntaxTreeUnop4TypeEv
FN:1495,1495,_ZN7fakelua14SyntaxTreeArgsD0Ev
FN:1495,1495,_ZN7fakelua14SyntaxTreeArgsD2Ev
FN:1498,1500,_ZNK7fakelua14SyntaxTreeArgs4TypeEv
FN:1558,1558,_ZN7fakelua19SyntaxTreePrefixexpD0Ev
FN:1558,1558,_ZN7fakelua19SyntaxTreePrefixexpD2Ev
FN:1561,1563,_ZNK7fakelua19SyntaxTreePrefixexp4TypeEv
FN:164,170,_ZNK7fakelua19SyntaxTreeInterface6GenTabB5cxx11Ei
FN:173,179,_ZNK7fakelua19SyntaxTreeInterface6LocStrB5cxx11Ev
FN:197,199,_ZNK7fakelua15SyntaxTreeEmpty4TypeEv
FN:211,211,_ZN7fakelua15SyntaxTreeBlockD0Ev
FN:211,211,_ZN7fakelua15SyntaxTreeBlockD2Ev
FN:214,216,_ZNK7fakelua15SyntaxTreeBlock4TypeEv
FN:246,246,_ZN7fakelua15SyntaxTreeLabelD0Ev
FN:246,246,_ZN7fakelua15SyntaxTreeLabelD2Ev
FN:249,251,_ZNK7fakelua15SyntaxTreeLabel4TypeEv
FN:271,271,_ZN7fakelua16SyntaxTreeReturnD0Ev
FN:271,271,_ZN7fakelua16SyntaxTreeReturnD2Ev
FN:274,276,_ZNK7fakelua16SyntaxTreeReturn4TypeEv
FN:301,301,_ZN7fakelua16SyntaxTreeAssignD0Ev
FN:301,301,_ZN7fakelua16SyntaxTreeAssignD2Ev
FN:304,306,_ZNK7fakelua16SyntaxTreeAssign4TypeEv
FN:342,342,_ZN7fakelua17SyntaxTreeVarlistD0Ev
FN:342,342,_ZN7fakelua17SyntaxTreeVarlistD2Ev
FN:345,347,_ZNK7fakelua17SyntaxTreeVarlist4TypeEv
FN:372,372,_ZN7fakelua17SyntaxTreeExplistD0Ev
FN:372,372,_ZN7fakelua17SyntaxTreeExplistD2Ev
FN:375,377,_ZNK7fakelua17SyntaxTreeExplist4TypeEv
FN:402,402,_ZN7fakelua13SyntaxTreeVarD0Ev
FN:402,402,_ZN7fakelua13SyntaxTreeVarD2Ev
FN:405,407,_ZNK7fakelua13SyntaxTreeVar4TypeEv
FN:475,475,_ZN7fakelua22SyntaxTreeFunctioncallD0Ev
FN:475,475,_ZN7fakelua22SyntaxTreeFunctioncallD2Ev
FN:478,480,_ZNK7fakelua22SyntaxTreeFunctioncall4TypeEv
FN:527,527,_ZN7fakelua26SyntaxTreeTableconstructorD0Ev
FN:527,527,_ZN7fakelua26SyntaxTreeTableconstructorD2Ev
FN:530,532,_ZNK7fakelua26SyntaxTreeTableconstructor4TypeEv
FN:55,130,_ZN7fakelua22SyntaxTreeTypeToStringB5cxx11ENS_14SyntaxTreeTypeE
FN:557,557,_ZN7fakelua19SyntaxTreeFieldlistD0Ev
FN:557,557,_ZN7fakelua19SyntaxTreeFieldlistD2Ev
FN:560,562,_ZNK7fakelua19SyntaxTreeFieldlist4TypeEv
FN:587,587,_ZN7fakelua15SyntaxTreeFieldD0Ev
FN:587,587,_ZN7fakelua15SyntaxTreeFieldD2Ev
FN:590,592,_ZNK7fakelua15SyntaxTreeField4TypeEv
FN:650,650,_ZN7fakelua15SyntaxTreeBreakD0Ev
FN:650,650,_ZN7fakelua15SyntaxTreeBreakD2Ev
FN:653,655,_ZNK7fakelua15SyntaxTreeBreak4TypeEv
FN:667,667,_ZN7fakelua14SyntaxTreeGotoD0Ev
FN:667,667,_ZN7fakelua14SyntaxTreeGotoD2Ev
FN:670,672,_ZNK7fakelua14SyntaxTreeGoto4TypeEv
FN:692,692,_ZN7fakelua15SyntaxTreeWhileD0Ev
FN:692,692,_ZN7fakelua15SyntaxTreeWhileD2Ev
FN:695,697,_ZNK7fakelua15SyntaxTreeWhile4TypeEv
FN:733,733,_ZN7fakelua16SyntaxTreeRepeatD0Ev
FN:733,733,_ZN7fakelua16SyntaxTreeRepeatD2Ev
FN:736,738,_ZNK7fakelua16SyntaxTreeRepeat4TypeEv
FN:774,774,_ZN7fakelua12SyntaxTreeIfD0Ev
FN:774,774,_ZN7fakelua12SyntaxTreeIfD2Ev
FN:777,779,_ZNK7fakelua12SyntaxTreeIf4TypeEv
FN:837,837,_ZN7fakelua20SyntaxTreeElseiflistD0Ev
FN:837,837,_ZN7fakelua20SyntaxTreeElseiflistD2Ev
FN:840,842,_ZNK7fakelua20SyntaxTreeElseiflist4TypeEv
FN:893,893,_ZN7fakelua17SyntaxTreeForLoopD0Ev
FN:893,893,_ZN7fakelua17SyntaxTreeForLoopD2Ev
FN:896,898,_ZNK7fakelua17SyntaxTreeForLoop4TypeEv
FN:967,967,_ZN7fakelua15SyntaxTreeForInD0Ev
FN:967,967,_ZN7fakelua15SyntaxTreeForInD2Ev
FN:970,972,_ZNK7fakelua15SyntaxTreeForIn4TypeEv
FNDA:0,_ZN7fakelua18SyntaxTreeNamelistD0Ev
FNDA:0,_ZN7fakelua18SyntaxTreeNamelistD2Ev
FNDA:112384,_ZNK7fakelua18SyntaxTreeNamelist4TypeEv
FNDA:0,_ZN7fakelua18SyntaxTreeFunctionD0Ev
FNDA:4351,_ZN7fakelua18SyntaxTreeFunctionD2Ev
FNDA:70613,_ZNK7fakelua18SyntaxTreeFunction4TypeEv
FNDA:0,_ZN7fakelua22SyntaxTreeFuncnamelistD0Ev
FNDA:0,_ZN7fakelua22SyntaxTreeFuncnamelistD2Ev
FNDA:38403,_ZNK7fakelua22SyntaxTreeFuncnamelist4TypeEv
FNDA:0,_ZN7fakelua18SyntaxTreeFuncnameD0Ev
FNDA:4355,_ZN7fakelua18SyntaxTreeFuncnameD2Ev
FNDA:38403,_ZNK7fakelua18SyntaxTreeFuncname4TypeEv
FNDA:0,_ZN7fakelua18SyntaxTreeFuncbodyD0Ev
FNDA:4557,_ZN7fakelua18SyntaxTreeFuncbodyD2Ev
FNDA:44300,_ZNK7fakelua18SyntaxTreeFuncbody4TypeEv
FNDA:0,_ZN7fakelua21SyntaxTreeFunctiondefD0Ev
FNDA:0,_ZN7fakelua21SyntaxTreeFunctiondefD2Ev
FNDA:5,_ZNK7fakelua21SyntaxTreeFunctiondef4TypeEv
FNDA:0,_ZN7fakelua17SyntaxTreeParlistD0Ev
FNDA:0,_ZN7fakelua17SyntaxTreeParlistD2Ev
FNDA:24548,_ZNK7fakelua17SyntaxTreeParlist4TypeEv
FNDA:0,_ZN7fakelua23SyntaxTreeLocalFunctionD0Ev
FNDA:201,_ZN7fakelua23SyntaxTreeLocalFunctionD2Ev
FNDA:3697,_ZNK7fakelua23SyntaxTreeLocalFunction4TypeEv
FNDA:0,_ZN7fakelua18SyntaxTreeLocalVarD0Ev
FNDA:5281,_ZN7fakelua18SyntaxTreeLocalVarD2Ev
FNDA:143024,_ZNK7fakelua18SyntaxTreeLocalVar4TypeEv
FNDA:0,_ZN7fakelua13SyntaxTreeExpD0Ev
FNDA:36138,_ZN7fakelua13SyntaxTreeExpD2Ev
FNDA:910594,_ZNK7fakelua13SyntaxTreeExp4TypeEv
FNDA:0,_ZN7fakelua15SyntaxTreeBinopD0Ev
FNDA:0,_ZN7fakelua15SyntaxTreeBinopD2Ev
FNDA:150040,_ZNK7fakelua15SyntaxTreeBinop4TypeEv
FNDA:0,_ZN7fakelua14SyntaxTreeUnopD0Ev
FNDA:0,_ZN7fakelua14SyntaxTreeUnopD2Ev
FNDA:4087,_ZNK7fakelua14SyntaxTreeUnop4TypeEv
FNDA:0,_ZN7fakelua14SyntaxTreeArgsD0Ev
FNDA:1003,_ZN7fakelua14SyntaxTreeArgsD2Ev
FNDA:21813,_ZNK7fakelua14SyntaxTreeArgs4TypeEv
FNDA:0,_ZN7fakelua19SyntaxTreePrefixexpD0Ev
FNDA:17535,_ZN7fakelua19SyntaxTreePrefixexpD2Ev
FNDA:472011,_ZNK7fakelua19SyntaxTreePrefixexp4TypeEv
FNDA:279677,_ZNK7fakelua19SyntaxTreeInterface6GenTabB5cxx11Ei
FNDA:138679,_ZNK7fakelua19SyntaxTreeInterface6LocStrB5cxx11Ev
FNDA:215,_ZNK7fakelua15SyntaxTreeEmpty4TypeEv
FNDA:0,_ZN7fakelua15SyntaxTreeBlockD0Ev
FNDA:0,_ZN7fakelua15SyntaxTreeBlockD2Ev
FNDA:186558,_ZNK7fakelua15SyntaxTreeBlock4TypeEv
FNDA:0,_ZN7fakelua15SyntaxTreeLabelD0Ev
FNDA:0,_ZN7fakelua15SyntaxTreeLabelD2Ev
FNDA:27,_ZNK7fakelua15SyntaxTreeLabel4TypeEv
FNDA:0,_ZN7fakelua16SyntaxTreeReturnD0Ev
FNDA:0,_ZN7fakelua16SyntaxTreeReturnD2Ev
FNDA:165898,_ZNK7fakelua16SyntaxTreeReturn4TypeEv
FNDA:0,_ZN7fakelua16SyntaxTreeAssignD0Ev
FNDA:2475,_ZN7fakelua16SyntaxTreeAssignD2Ev
FNDA:63017,_ZNK7fakelua16SyntaxTreeAssign4TypeEv
FNDA:0,_ZN7fakelua17SyntaxTreeVarlistD0Ev
FNDA:0,_ZN7fakelua17SyntaxTreeVarlistD2Ev
FNDA:42063,_ZNK7fakelua17SyntaxTreeVarlist4TypeEv
FNDA:0,_ZN7fakelua17SyntaxTreeExplistD0Ev
FNDA:0,_ZN7fakelua17SyntaxTreeExplistD2Ev
FNDA:266418,_ZNK7fakelua17SyntaxTreeExplist4TypeEv
FNDA:0,_ZN7fakelua13SyntaxTreeVarD0Ev
FNDA:18962,_ZN7fakelua13SyntaxTreeVarD2Ev
FNDA:480098,_ZNK7fakelua13SyntaxTreeVar4TypeEv
FNDA:0,_ZN7fakelua22SyntaxTreeFunctioncallD0Ev
FNDA:1003,_ZN7fakelua22SyntaxTreeFunctioncallD2Ev
FNDA:24477,_ZNK7fakelua22SyntaxTreeFunctioncall4TypeEv
FNDA:0,_ZN7fakelua26SyntaxTreeTableconstructorD0Ev
FNDA:0,_ZN7fakelua26SyntaxTreeTableconstructorD2Ev
FNDA:11174,_ZNK7fakelua26SyntaxTreeTableconstructor4TypeEv
FNDA:0,_ZN7fakelua22SyntaxTreeTypeToStringB5cxx11ENS_14SyntaxTreeTypeE
FNDA:0,_ZN7fakelua19SyntaxTreeFieldlistD0Ev
FNDA:0,_ZN7fakelua19SyntaxTreeFieldlistD2Ev
FNDA:9808,_ZNK7fakelua19SyntaxTreeFieldlist4TypeEv
FNDA:0,_ZN7fakelua15SyntaxTreeFieldD0Ev
FNDA:3290,_ZN7fakelua15SyntaxTreeFieldD2Ev
FNDA:59458,_ZNK7fakelua15SyntaxTreeField4TypeEv
FNDA:0,_ZN7fakelua15SyntaxTreeBreakD0Ev
FNDA:0,_ZN7fakelua15SyntaxTreeBreakD2Ev
FNDA:5077,_ZNK7fakelua15SyntaxTreeBreak4TypeEv
FNDA:0,_ZN7fakelua14SyntaxTreeGotoD0Ev
FNDA:0,_ZN7fakelua14SyntaxTreeGotoD2Ev
FNDA:17,_ZNK7fakelua14SyntaxTreeGoto4TypeEv
FNDA:0,_ZN7fakelua15SyntaxTreeWhileD0Ev
FNDA:323,_ZN7fakelua15SyntaxTreeWhileD2Ev
FNDA:11533,_ZNK7fakelua15SyntaxTreeWhile4TypeEv
FNDA:0,_ZN7fakelua16SyntaxTreeRepeatD0Ev
FNDA:165,_ZN7fakelua16SyntaxTreeRepeatD2Ev
FNDA:5413,_ZNK7fakelua16SyntaxTreeRepeat4TypeEv
FNDA:0,_ZN7fakelua12SyntaxTreeIfD0Ev
FNDA:656,_ZN7fakelua12SyntaxTreeIfD2Ev
FNDA:24199,_ZNK7fakelua12SyntaxTreeIf4TypeEv
FNDA:0,_ZN7fakelua20SyntaxTreeElseiflistD0Ev
FNDA:0,_ZN7fakelua20SyntaxTreeElseiflistD2Ev
FNDA:13304,_ZNK7fakelua20SyntaxTreeElseiflist4TypeEv
FNDA:0,_ZN7fakelua17SyntaxTreeForLoopD0Ev
FNDA:719,_ZN7fakelua17SyntaxTreeForLoopD2Ev
FNDA:25163,_ZNK7fakelua17SyntaxTreeForLoop4TypeEv
FNDA:0,_ZN7fakelua15SyntaxTreeForInD0Ev
FNDA:202,_ZN7fakelua15SyntaxTreeForInD2Ev
FNDA:5306,_ZNK7fakelua15SyntaxTreeForIn4TypeEv
FNF:103
FNH:53
DA:55,0
DA:56,0
DA:57,0
DA:58,0
DA:59,0
DA:60,0
DA:61,0
DA:62,0
DA:63,0
DA:64,0
DA:65,0
DA:66,0
DA:67,0
DA:68,0
DA:69,0
DA:70,0
DA:71,0
DA:72,0
DA:73,0
DA:74,0
DA:75,0
DA:76,0
DA:77,0
DA:78,0
DA:79,0
DA:80,0
DA:81,0
DA:82,0
DA:83,0
DA:84,0
DA:85,0
DA:86,0
DA:87,0
DA:88,0
DA:89,0
DA:90,0
DA:91,0
DA:92,0
DA:93,0
DA:94,0
DA:95,0
DA:96,0
DA:97,0
DA:98,0
DA:99,0
DA:100,0
DA:101,0
DA:102,0
DA:103,0
DA:104,0
DA:105,0
DA:106,0
DA:107,0
DA:108,0
DA:109,0
DA:110,0
DA:111,0
DA:112,0
DA:113,0
DA:114,0
DA:115,0
DA:116,0
DA:117,0
DA:118,0
DA:119,0
DA:120,0
DA:121,0
DA:122,0
DA:123,0
DA:124,0
DA:125,0
DA:126,0
DA:127,0
DA:128,0
DA:138,157407
DA:141,157407
DA:150,2048
DA:151,928
DA:154,851443
DA:155,475018
DA:156,10926
DA:158,461219
DA:159,451220
DA:164,279677
DA:165,279677
DA:166,2451872
DA:167,2172195
DA:169,279677
DA:170,0
DA:173,138679
DA:174,138679
DA:175,277358
DA:176,138679
DA:177,277358
DA:178,138679
DA:179,0
DA:191,31
DA:193,31
DA:197,215
DA:198,215
DA:208,10656
DA:211,10656
DA:214,186558
DA:215,186558
DA:222,19647
DA:223,19647
DA:224,19647
DA:227,19415
DA:228,206025
DA:232,19412
DA:233,19412
DA:234,19412
DA:243,19
DA:246,19
DA:249,27
DA:250,27
DA:257,19
DA:258,38
DA:259,19
DA:268,4946
DA:271,4946
DA:274,165898
DA:275,165898
DA:282,4946
DA:283,4946
DA:287,98568
DA:288,98568
DA:298,2475
DA:301,4950
DA:304,63017
DA:305,63017
DA:312,2475
DA:313,2475
DA:317,2475
DA:318,2475
DA:322,39299
DA:323,39299
DA:327,39575
DA:328,39575
DA:339,2475
DA:342,2475
DA:345,42063
DA:346,42063
DA:353,2528
DA:354,2528
DA:355,2528
DA:359,48987
DA:369,13696
DA:372,13696
DA:375,266418
DA:376,266418
DA:383,14901
DA:384,14901
DA:385,14901
DA:388,29809
DA:389,250688
DA:399,18962
DA:402,20826
DA:405,480098
DA:406,480098
DA:413,18112
DA:414,36224
DA:415,18112
DA:418,1014
DA:419,1014
DA:423,305498
DA:424,305498
DA:428,850
DA:429,850
DA:433,305146
DA:434,305146
DA:438,18962
DA:439,37924
DA:440,18962
DA:443,78015
DA:444,108689
DA:458,104283
DA:459,154707
DA:472,1003
DA:475,2006
DA:478,24477
DA:479,24477
DA:486,1003
DA:487,1003
DA:491,1003
DA:492,1003
DA:496,14
DA:497,28
DA:498,14
DA:501,17559
DA:502,17559
DA:506,16951
DA:507,16951
DA:511,1518
DA:512,3036
DA:524,734
DA:527,734
DA:530,11174
DA:531,11174
DA:538,616
DA:539,616
DA:543,8762
DA:544,8762
DA:554,616
DA:557,616
DA:560,9808
DA:561,9808
DA:568,3290
DA:569,3290
DA:570,3290
DA:574,7732
DA:584,3290
DA:587,6580
DA:590,59458
DA:591,59458
DA:598,329
DA:599,329
DA:603,3290
DA:604,3290
DA:608,340
DA:609,680
DA:610,340
DA:613,3290
DA:614,6580
DA:615,3290
DA:618,47326
DA:619,47326
DA:623,47598
DA:624,47598
DA:628,272
DA:629,544
DA:633,4400
DA:634,8800
DA:647,137
DA:650,137
DA:653,5077
DA:654,5077
DA:664,9
DA:667,9
DA:670,17
DA:671,17
DA:678,9
DA:679,18
DA:680,9
DA:689,323
DA:692,646
DA:695,11533
DA:696,11533
DA:703,323
DA:704,323
DA:708,323
DA:709,323
DA:713,6454
DA:714,6454
DA:718,6525
DA:719,6525
DA:730,165
DA:733,330
DA:736,5413
DA:737,5413
DA:744,165
DA:745,165
DA:749,165
DA:750,165
DA:754,2981
DA:755,2981
DA:759,3005
DA:760,3005
DA:771,656
DA:774,2158
DA:777,24199
DA:778,24199
DA:785,656
DA:786,656
DA:790,656
DA:791,656
DA:795,656
DA:796,656
DA:800,190
DA:801,190
DA:805,13724
DA:806,13724
DA:810,13823
DA:811,13823
DA:815,13823
DA:816,13823
DA:820,13823
DA:821,13823
DA:834,656
DA:837,656
DA:840,13304
DA:841,13304
DA:848,209
DA:849,209
DA:850,209
DA:853,209
DA:854,209
DA:855,209
DA:858,3824
DA:859,3824
DA:864,10839
DA:869,10839
DA:873,828
DA:874,828
DA:878,840
DA:879,840
DA:890,719
DA:893,3004
DA:896,25163
DA:897,25163
DA:904,719
DA:905,1438
DA:906,719
DA:909,719
DA:910,719
DA:914,719
DA:915,719
DA:919,719
DA:920,719
DA:924,128
DA:925,128
DA:929,6108
DA:930,12216
DA:934,14149
DA:935,14149
DA:939,23100
DA:940,22484
DA:944,22758
DA:945,21588
DA:949,19766
DA:950,18400
DA:964,202
DA:967,606
DA:970,5306
DA:971,5306
DA:978,202
DA:979,202
DA:983,202
DA:984,202
DA:988,202
DA:989,202
DA:993,3154
DA:994,3154
DA:998,3150
DA:999,3150
DA:1003,2962
DA:1004,2962
DA:1016,8130
DA:1019,8130
DA:1022,112384
DA:1023,112384
DA:1030,10969
DA:1031,10969
DA:1032,10969
DA:1035,5453
DA:1036,5453
DA:1037,5453
DA:1040,6401
DA:1041,28240
DA:1052,4351
DA:1055,8702
DA:1058,70613
DA:1059,70613
DA:1066,4351
DA:1067,4351
DA:1071,4351
DA:1072,4351
DA:1076,32582
DA:1077,32582
DA:1081,30596
DA:1082,30596
DA:1093,4355
DA:1096,4355
DA:1099,38403
DA:1100,38403
DA:1107,4383
DA:1108,4383
DA:1109,4383
DA:1113,14235
DA:1123,4355
DA:1126,4355
DA:1129,38403
DA:1130,38403
DA:1137,4355
DA:1138,4355
DA:1142,12
DA:1143,24
DA:1144,12
DA:1147,32579
DA:1148,32579
DA:1152,12099
DA:1153,24198
DA:1164,4557
DA:1167,9114
DA:1170,44300
DA:1171,44300
DA:1178,2672
DA:1179,2672
DA:1183,4557
DA:1184,4557
DA:1188,31958
DA:1189,31958
DA:1193,26831
DA:1194,26831
DA:1205,5
DA:1208,5
DA:1211,5
DA:1212,5
DA:1219,5
DA:1220,5
DA:1224,5
DA:1225,5
DA:1235,2672
DA:1238,2672
DA:1241,24548
DA:1242,24548
DA:1249,2647
DA:1250,2647
DA:1254,42
DA:1255,42
DA:1259,21980
DA:1260,21980
DA:1264,7731
DA:1265,7731
DA:1276,201
DA:1279,402
DA:1282,3697
DA:1283,3697
DA:1290,201
DA:1291,402
DA:1292,201
DA:1295,201
DA:1296,201
DA:1300,440
DA:1301,880
DA:1305,1357
DA:1306,1357
DA:1317,5281
DA:1320,10520
DA:1323,143024
DA:1324,143024
DA:1331,5281
DA:1332,5281
DA:1336,5239
DA:1337,5239
DA:1341,89469
DA:1342,89469
DA:1346,89469
DA:1347,89469
DA:1358,36138
DA:1361,73497
DA:1364,910594
DA:1365,910594
DA:1372,36138
DA:1373,72276
DA:1374,36138
DA:1377,12248
DA:1378,24496
DA:1379,12248
DA:1382,6775
DA:1383,6775
DA:1387,7054
DA:1388,7054
DA:1392,23530
DA:1393,23530
DA:1397,188816
DA:1398,284076
DA:1402,58346
DA:1403,116692
DA:1407,591672
DA:1408,591672
DA:1412,584591
DA:1413,584591
DA:1417,664203
DA:1418,664203
DA:1432,6775
DA:1435,6775
DA:1438,150040
DA:1439,150040
DA:1446,6775
DA:1447,13550
DA:1448,6775
DA:1451,26271
DA:1452,52542
DA:1462,279
DA:1465,279
DA:1468,4087
DA:1469,4087
DA:1476,279
DA:1477,558
DA:1478,279
DA:1481,896
DA:1482,1792
DA:1492,1003
DA:1495,1045
DA:1498,21813
DA:1499,21813
DA:1506,834
DA:1507,834
DA:1511,21
DA:1512,21
DA:1516,21
DA:1517,21
DA:1521,1003
DA:1522,2006
DA:1523,1003
DA:1526,1246
DA:1527,2492
DA:1531,16897
DA:1532,16897
DA:1536,15721
DA:1537,15721
DA:1541,15721
DA:1542,15721
DA:1555,17535
DA:1558,17535
DA:1561,472011
DA:1562,472011
DA:1569,17535
DA:1570,17535
DA:1574,17535
DA:1575,35070
DA:1576,17535
DA:1579,371073
DA:1580,371073
DA:1584,78634
DA:1585,104958
LF:527
LH:451
end_of_record
TN:
SF:/home/runner/work/fakelua/fakelua/src/compile/type_inferencer.cpp
FN:10,12,_ZN7fakelua15TypeEnvironmentC2Ev
FN:14,16,_ZN7fakelua15TypeEnvironment10EnterScopeEv
FN:18,22,_ZN7fakelua15TypeEnvironment9ExitScopeEv
FN:24,26,_ZN7fakelua15TypeEnvironment6DefineERKNSt7__cxx1112basic_stringIcSt11char_traitsIcESaIcEEENS_12InferredTypeE
FN:28,36,_ZN7fakelua15TypeEnvironment6UpdateERKNSt7__cxx1112basic_stringIcSt11char_traitsIcESaIcEEENS_12InferredTypeE
FN:308,395,_ZN7fakelua14TypeInferencer8InferExpERKSt10shared_ptrINS_13SyntaxTreeExpEE
FN:38,45,_ZNK7fakelua15TypeEnvironment6LookupERKNSt7__cxx1112basic_stringIcSt11char_traitsIcESaIcEEE
FN:397,410,_ZN7fakelua14TypeInferencer14InferPrefixExpERKSt10shared_ptrINS_19SyntaxTreePrefixexpEE
FN:412,433,_ZN7fakelua14TypeInferencer8InferVarERKSt10shared_ptrINS_13SyntaxTreeVarEE
FN:435,478,_ZN7fakelua14TypeInferencer10InferBlockERKSt10shared_ptrINS_15SyntaxTreeBlockEEb
FN:47,61,_ZN7fakelua15TypeEnvironment9MergeTypeENS_12InferredTypeES1_
FN:485,501,_ZNK7fakelua14TypeInferencer17IsArithmeticBinopERKSt10shared_ptrINS_19SyntaxTreeInterfaceEE
FN:505,576,_ZNK7fakelua14TypeInferencer21CollectReassignedVarsERKSt10shared_ptrINS_19SyntaxTreeInterfaceEERSt13unordered_setINSt7__cxx1112basic_stringIcSt11char_traitsIcESaIcEEESt4hashISC_ESt8equal_toISC_ESaISC_EE
FN:578,618,_ZN7fakelua14TypeInferencer17RunTrialInferenceERKSt10shared_ptrINS_19SyntaxTreeInterfaceEERKSt6vectorINSt7__cxx1112basic_stringIcSt11char_traitsIcESaIcEEESaISC_EERKSt13unordered_mapISC_NS_12InferredTypeESt4hashISC_ESt8equal_toISC_ESaISt4pairIKSC_SI_EEE
FN:620,638,_ZNK7fakelua14TypeInferencer24HasArithmeticImprovementERKSt13unordered_mapIPNS_19SyntaxTreeInterfaceENS_12InferredTypeESt4hashIS3_ESt8equal_toIS3_ESaISt4pairIKS3_S4_EEESF_RKSt10shared_ptrIS2_E
FN:623,636,_ZZNK7fakelua14TypeInferencer24HasArithmeticImprovementERKSt13unordered_mapIPNS_19SyntaxTreeInterfaceENS_12InferredTypeESt4hashIS3_ESt8equal_toIS3_ESaISt4pairIKS3_S4_EEESF_RKSt10shared_ptrIS2_EENKUlSJ_E_clESJ_
FN:63,69,_ZN7fakelua14TypeInferencer7ProcessERNS_13CompileResultE
FN:640,658,_ZNK7fakelua14TypeInferencer22ParamAffectsArithmeticERKSt13unordered_mapIPNS_19SyntaxTreeInterfaceENS_12InferredTypeESt4hashIS3_ESt8equal_toIS3_ESaISt4pairIKS3_S4_EEESF_RKSt10shared_ptrIS2_E
FN:643,656,_ZZNK7fakelua14TypeInferencer22ParamAffectsArithmeticERKSt13unordered_mapIPNS_19SyntaxTreeInterfaceENS_12InferredTypeESt4hashIS3_ESt8equal_toIS3_ESaISt4pairIKS3_S4_EEESF_RKSt10shared_ptrIS2_EENKUlSJ_E_clESJ_
FN:660,786,_ZN7fakelua14TypeInferencer18DiscoverMathParamsERNS_13CompileResultE
FN:71,306,_ZN7fakelua14TypeInferencer19InferAndSetEvalTypeERKSt10shared_ptrINS_19SyntaxTreeInterfaceEE
FN:714,721,_ZZN7fakelua14TypeInferencer18DiscoverMathParamsERNS_13CompileResultEENKUlRKNSt7__cxx1112basic_stringIcSt11char_traitsIcESaIcEEENS_12InferredTypeESB_E_clESA_SB_SB_
FNDA:11487,_ZN7fakelua15TypeEnvironmentC2Ev
FNDA:22481,_ZN7fakelua15TypeEnvironment10EnterScopeEv
FNDA:10994,_ZN7fakelua15TypeEnvironment9ExitScopeEv
FNDA:35145,_ZN7fakelua15TypeEnvironment6DefineERKNSt7__cxx1112basic_stringIcSt11char_traitsIcESaIcEEENS_12InferredTypeE
FNDA:4844,_ZN7fakelua15TypeEnvironment6UpdateERKNSt7__cxx1112basic_stringIcSt11char_traitsIcESaIcEEENS_12InferredTypeE
FNDA:93556,_ZN7fakelua14TypeInferencer8InferExpERKSt10shared_ptrINS_13SyntaxTreeExpEE
FNDA:65069,_ZNK7fakelua15TypeEnvironment6LookupERKNSt7__cxx1112basic_stringIcSt11char_traitsIcESaIcEEE
FNDA:52310,_ZN7fakelua14TypeInferencer14InferPrefixExpERKSt10shared_ptrINS_19SyntaxTreePrefixexpEE
FNDA:49089,_ZN7fakelua14TypeInferencer8InferVarERKSt10shared_ptrINS_13SyntaxTreeVarEE
FNDA:22231,_ZN7fakelua14TypeInferencer10InferBlockERKSt10shared_ptrINS_15SyntaxTreeBlockEEb
FNDA:4834,_ZN7fakelua15TypeEnvironment9MergeTypeENS_12InferredTypeES1_
FNDA:42814,_ZNK7fakelua14TypeInferencer17IsArithmeticBinopERKSt10shared_ptrINS_19SyntaxTreeInterfaceEE
FNDA:2786,_ZNK7fakelua14TypeInferencer21CollectReassignedVarsERKSt10shared_ptrINS_19SyntaxTreeInterfaceEERSt13unordered_setINSt7__cxx1112basic_stringIcSt11char_traitsIcESaIcEEESt4hashISC_ESt8equal_toISC_ESaISC_EE
FNDA:4901,_ZN7fakelua14TypeInferencer17RunTrialInferenceERKSt10shared_ptrINS_19SyntaxTreeInterfaceEERKSt6vectorINSt7__cxx1112basic_stringIcSt11char_traitsIcESaIcEEESaISC_EERKSt13unordered_mapISC_NS_12InferredTypeESt4hashISC_ESt8equal_toISC_ESaISt4pairIKSC_SI_EEE
FNDA:1303,_ZNK7fakelua14TypeInferencer24HasArithmeticImprovementERKSt13unordered_mapIPNS_19SyntaxTreeInterfaceENS_12InferredTypeESt4hashIS3_ESt8equal_toIS3_ESaISt4pairIKS3_S4_EEESF_RKSt10shared_ptrIS2_E
FNDA:40669,_ZZNK7fakelua14TypeInferencer24HasArithmeticImprovementERKSt13unordered_mapIPNS_19SyntaxTreeInterfaceENS_12InferredTypeESt4hashIS3_ESt8equal_toIS3_ESaISt4pairIKS3_S4_EEESF_RKSt10shared_ptrIS2_EENKUlSJ_E_clESJ_
FNDA:1685,_ZN7fakelua14TypeInferencer7ProcessERNS_13CompileResultE
FNDA:843,_ZNK7fakelua14TypeInferencer22ParamAffectsArithmeticERKSt13unordered_mapIPNS_19SyntaxTreeInterfaceENS_12InferredTypeESt4hashIS3_ESt8equal_toIS3_ESaISt4pairIKS3_S4_EEESF_RKSt10shared_ptrIS2_E
FNDA:23686,_ZZNK7fakelua14TypeInferencer22ParamAffectsArithmeticERKSt13unordered_mapIPNS_19SyntaxTreeInterfaceENS_12InferredTypeESt4hashIS3_ESt8equal_toIS3_ESaISt4pairIKS3_S4_EEESF_RKSt10shared_ptrIS2_EENKUlSJ_E_clESJ_
FNDA:1685,_ZN7fakelua14TypeInferencer18DiscoverMathParamsERNS_13CompileResultE
FNDA:264372,_ZN7fakelua14TypeInferencer19InferAndSetEvalTypeERKSt10shared_ptrINS_19SyntaxTreeInterfaceEE
FNDA:3449,_ZZN7fakelua14TypeInferencer18DiscoverMathParamsERNS_13CompileResultEENKUlRKNSt7__cxx1112basic_stringIcSt11char_traitsIcESaIcEEENS_12InferredTypeESB_E_clESA_SB_SB_
FNF:22
FNH:22
DA:10,11487
DA:11,11487
DA:12,11487
DA:14,22481
DA:15,22481
DA:16,22481
DA:18,10994
DA:19,10994
DA:20,10994
DA:22,10994
DA:24,35145
DA:25,35145
DA:26,35145
DA:28,4844
DA:29,10324
DA:30,10314
DA:31,4834
DA:32,4834
DA:38,65069
DA:39,90513
DA:40,87497
DA:41,62053
DA:47,4834
DA:48,4834
DA:51,2710
DA:54,2710
DA:57,2710
DA:58,2443
DA:63,1685
DA:64,1685
DA:65,1685
DA:68,1685
DA:69,1685
DA:71,264372
DA:72,264372
DA:76,257821
DA:77,1755
DA:78,1755
DA:81,1755
DA:82,1755
DA:83,1755
DA:84,1755
DA:85,10726
DA:86,10726
DA:87,10726
DA:88,10726
DA:89,10726
DA:90,10710
DA:91,0
DA:93,10726
DA:94,0
DA:95,0
DA:99,21868
DA:100,11142
DA:101,11142
DA:102,10926
DA:106,10926
DA:107,11142
DA:110,11142
DA:113,10726
DA:114,10726
DA:115,32178
DA:116,4844
DA:117,4844
DA:118,4844
DA:119,4844
DA:120,4844
DA:122,4844
DA:124,4844
DA:125,4844
DA:126,14532
DA:128,4844
DA:129,4844
DA:130,10
DA:131,10
DA:132,10
DA:135,4834
DA:136,4834
DA:137,4834
DA:138,4834
DA:139,24220
DA:140,2004
DA:141,2004
DA:142,2004
DA:143,2004
DA:144,2004
DA:151,2004
DA:152,2004
DA:153,4008
DA:154,2169
DA:155,4008
DA:156,5622
DA:157,3393
DA:158,2004
DA:159,1167
DA:160,4338
DA:161,5388
DA:162,2004
DA:164,2004
DA:165,4008
DA:166,4008
DA:167,4008
DA:168,2004
DA:170,2004
DA:171,2004
DA:172,2004
DA:173,2139
DA:174,2139
DA:175,2139
DA:176,2139
DA:177,2139
DA:178,2139
DA:179,88
DA:180,88
DA:181,88
DA:182,88
DA:183,88
DA:184,88
DA:185,2227
DA:186,2227
DA:187,2227
DA:188,2227
DA:189,2227
DA:190,1303
DA:191,3756
DA:192,2453
DA:194,1303
DA:195,0
DA:196,4454
DA:197,2227
DA:198,2227
DA:199,2227
DA:200,2227
DA:201,2227
DA:202,13237
DA:203,13237
DA:204,13237
DA:205,13237
DA:206,13237
DA:207,13237
DA:208,16015
DA:209,16015
DA:210,16015
DA:211,34230
DA:212,18215
DA:214,16015
DA:215,16015
DA:216,16015
DA:217,93556
DA:218,93556
DA:219,93556
DA:220,93556
DA:221,52310
DA:222,52310
DA:223,52310
DA:224,52310
DA:225,49089
DA:226,49089
DA:227,49089
DA:228,49089
DA:229,2496
DA:230,2496
DA:231,2496
DA:232,2496
DA:233,2496
DA:234,2496
DA:235,2496
DA:236,40
DA:237,40
DA:238,40
DA:239,40
DA:240,40
DA:241,40
DA:242,2496
DA:243,2496
DA:244,2496
DA:245,2496
DA:246,2496
DA:247,2496
DA:248,2496
DA:249,2496
DA:250,40
DA:251,40
DA:252,120
DA:253,80
DA:255,40
DA:256,40
DA:257,40
DA:258,80
DA:259,80
DA:260,80
DA:261,80
DA:262,80
DA:263,80
DA:264,80
DA:265,2026
DA:266,2026
DA:267,2026
DA:268,4052
DA:269,2026
DA:270,2638
DA:271,612
DA:272,1224
DA:274,0
DA:275,4052
DA:276,2026
DA:277,2026
DA:278,2026
DA:279,923
DA:280,923
DA:281,923
DA:282,1846
DA:283,923
DA:284,923
DA:285,923
DA:286,416
DA:287,416
DA:288,832
DA:289,416
DA:290,416
DA:291,416
DA:292,416
DA:293,440
DA:294,440
DA:295,440
DA:296,440
DA:297,880
DA:298,440
DA:299,440
DA:300,440
DA:301,874
DA:302,874
DA:303,874
DA:308,93556
DA:309,93556
DA:311,93556
DA:312,19066
DA:313,19066
DA:314,19066
DA:315,19066
DA:316,19066
DA:317,74490
DA:318,48030
DA:319,48030
DA:320,48030
DA:322,26460
DA:323,23539
DA:324,23539
DA:326,23539
DA:327,11238
DA:328,11238
DA:331,12301
DA:332,12301
DA:334,12301
DA:337,12301
DA:338,8350
DA:339,5617
DA:340,5617
DA:342,2733
DA:343,2733
DA:344,2733
DA:349,3951
DA:350,350
DA:351,350
DA:352,350
DA:357,3601
DA:358,1163
DA:359,571
DA:360,571
DA:364,3030
DA:365,3030
DA:366,24602
DA:368,2921
DA:369,572
DA:370,572
DA:371,572
DA:372,572
DA:373,572
DA:374,317
DA:375,158
DA:376,158
DA:378,159
DA:379,79
DA:380,79
DA:383,335
DA:384,95
DA:385,47
DA:386,47
DA:389,288
DA:390,288
DA:391,1144
DA:393,2349
DA:394,2349
DA:395,93556
DA:397,52310
DA:398,52310
DA:399,52310
DA:401,52310
DA:402,101516
DA:403,1552
DA:404,1552
DA:405,3104
DA:408,52310
DA:409,52310
DA:410,52310
DA:412,49089
DA:413,49089
DA:414,47305
DA:415,47305
DA:416,47305
DA:422,1784
DA:423,1784
DA:424,0
DA:425,1784
DA:426,1544
DA:427,1544
DA:428,1544
DA:431,1784
DA:432,1784
DA:435,22231
DA:436,22231
DA:440,20796
DA:441,6763
DA:444,59087
DA:445,38291
DA:452,59087
DA:453,38291
DA:454,27565
DA:456,10726
DA:457,10726
DA:458,10726
DA:459,0
DA:461,10726
DA:462,10726
DA:463,10710
DA:464,0
DA:465,10726
DA:466,21868
DA:467,11142
DA:468,10926
DA:469,10926
DA:472,32178
DA:474,20796
DA:475,20796
DA:476,6763
DA:485,42814
DA:486,42814
DA:489,11670
DA:490,23340
DA:493,3261
DA:494,3261
DA:497,3261
DA:498,2170
DA:499,1686
DA:500,5431
DA:501,18192
DA:505,2786
DA:507,2786
DA:510,2719
DA:511,850
DA:512,850
DA:513,2443
DA:514,1593
DA:516,850
DA:517,850
DA:524,276
DA:525,276
DA:526,276
DA:527,276
DA:528,552
DA:529,276
DA:530,276
DA:531,552
DA:532,552
DA:534,276
DA:536,276
DA:537,552
DA:538,552
DA:540,276
DA:541,276
DA:542,99
DA:543,99
DA:544,99
DA:545,99
DA:546,111
DA:547,24
DA:549,0
DA:550,99
DA:551,99
DA:552,99
DA:553,71
DA:554,71
DA:555,71
DA:556,71
DA:557,71
DA:558,24
DA:559,24
DA:560,24
DA:561,24
DA:562,24
DA:563,102
DA:564,102
DA:565,102
DA:566,102
DA:567,102
DA:568,0
DA:569,0
DA:570,0
DA:571,0
DA:572,0
DA:578,4901
DA:582,4901
DA:583,4901
DA:585,4901
DA:587,9802
DA:589,9802
DA:592,9802
DA:593,9802
DA:594,29348
DA:595,19546
DA:596,39092
DA:600,9802
DA:603,9802
DA:604,299910
DA:606,9802
DA:610,4901
DA:611,9802
DA:614,4901
DA:615,4901
DA:617,4901
DA:618,4901
DA:620,1303
DA:622,1303
DA:623,1303
DA:624,40669
DA:625,39648
DA:627,1021
DA:628,1021
DA:629,1021
DA:633,2074
DA:634,510
DA:637,1303
DA:640,843
DA:642,843
DA:643,843
DA:644,23686
DA:645,22740
DA:647,946
DA:648,946
DA:649,946
DA:653,1956
DA:654,726
DA:657,843
DA:660,1685
DA:661,1685
DA:662,1685
DA:663,0
DA:666,1685
DA:667,3976
DA:669,2291
DA:670,2291
DA:672,2291
DA:673,2139
DA:674,2139
DA:676,2139
DA:677,2139
DA:678,2139
DA:679,6569
DA:680,88
DA:681,176
DA:682,88
DA:683,88
DA:685,2291
DA:686,64
DA:689,2227
DA:690,2227
DA:691,2227
DA:692,924
DA:694,1303
DA:696,1303
DA:697,1303
DA:698,0
DA:700,1303
DA:701,1303
DA:702,0
DA:705,1303
DA:708,1303
DA:709,0
DA:710,41972
DA:714,4752
DA:716,3449
DA:717,10234
DA:718,12727
DA:720,3449
DA:721,1303
DA:724,2606
DA:727,2606
DA:730,1303
DA:731,25487
DA:732,24694
DA:734,793
DA:735,793
DA:741,510
DA:742,510
DA:744,510
DA:745,1488
DA:747,978
DA:748,135
DA:751,843
DA:752,843
DA:753,843
DA:754,726
DA:756,843
DA:759,16485
DA:760,15975
DA:763,510
DA:764,431
DA:765,431
DA:770,431
DA:771,431
DA:772,431
DA:773,1883
DA:774,1452
DA:775,4440
DA:776,2988
DA:778,4084
DA:779,3948
DA:780,2632
DA:782,1452
DA:783,1452
DA:785,11957
DA:786,3370
LF:532
LH:514
end_of_record
TN:
SF:/home/runner/work/fakelua/fakelua/src/compile/type_inferencer.h
FNF:0
FNH:0
DA:7,22701
DA:28,6194
LF:2
LH:2
end_of_record
TN:
SF:/home/runner/work/fakelua/fakelua/src/jit/gcc_handle.cpp
FN:12,24,_ZN7fakelua9GCCHandleD0Ev
FN:12,24,_ZN7fakelua9GCCHandleD2Ev
FNDA:0,_ZN7fakelua9GCCHandleD0Ev
FNDA:2816,_ZN7fakelua9GCCHandleD2Ev
FNF:2
FNH:1
DA:12,2816
DA:19,2816
DA:20,2816
DA:21,2816
DA:24,2816
LF:5
LH:5
end_of_record
TN:
SF:/home/runner/work/fakelua/fakelua/src/jit/gcc_handle.h
FNF:0
FNH:0
DA:10,2816
DA:11,2816
LF:2
LH:2
end_of_record
TN:
SF:/home/runner/work/fakelua/fakelua/src/jit/gcc_jit.cpp
FN:83,84,_ZN7fakelua9GccJitterC2EPNS_5StateE
FN:86,234,_ZN7fakelua9GccJitter7CompileERNS_13CompileResultERKNS_13CompileConfigE
FNDA:2816,_ZN7fakelua9GccJitterC2EPNS_5StateE
FNDA:2816,_ZN7fakelua9GccJitter7CompileERNS_13CompileResultERKNS_13CompileConfigE
FNF:2
FNH:2
DA:83,2816
DA:84,2816
DA:86,2816
DA:87,5632
DA:88,2816
DA:94,2816
DA:96,5632
DA:98,2816
DA:99,0
DA:101,2816
DA:102,2816
DA:103,2816
DA:105,2816
DA:106,2816
DA:107,2816
DA:108,2816
DA:109,2816
DA:111,2816
DA:119,4192
DA:120,8448
DA:121,2816
DA:122,0
DA:130,2816
DA:131,0
DA:133,2816
DA:134,0
DA:136,2816
DA:137,2816
DA:138,2816
DA:177,2816
DA:178,2816
DA:179,30976
DA:180,28160
DA:182,2816
DA:184,2816
DA:185,2816
DA:186,0
DA:189,2816
DA:190,5632
DA:191,0
DA:192,0
DA:195,5632
DA:196,2816
DA:197,2816
DA:198,2816
DA:199,2816
DA:200,2816
DA:202,2816
DA:204,2816
DA:205,2816
DA:206,0
DA:208,2816
DA:209,0
DA:210,0
DA:211,0
DA:212,0
DA:213,0
DA:214,0
DA:215,0
DA:217,2816
DA:218,2816
DA:219,0
DA:221,2816
DA:223,16160
DA:224,6672
DA:225,6672
DA:226,0
DA:228,13344
DA:229,6672
DA:232,2816
DA:234,2816
LF:71
LH:54
end_of_record
TN:
SF:/home/runner/work/fakelua/fakelua/src/jit/jit_common.h
FNF:0
FNH:0
DA:9,8464
DA:10,5640
LF:2
LH:2
end_of_record
TN:
SF:/home/runner/work/fakelua/fakelua/src/jit/tcc_handle.cpp
FN:36,41,_ZN7fakelua9TCCHandleD0Ev
FN:36,41,_ZN7fakelua9TCCHandleD2Ev
FN:8,34,_ZN7fakelua9TCCHandleC2EPNS_5StateERKNS_13CompileConfigE
FNDA:0,_ZN7fakelua9TCCHandleD0Ev
FNDA:2824,_ZN7fakelua9TCCHandleD2Ev
FNDA:2824,_ZN7fakelua9TCCHandleC2EPNS_5StateERKNS_13CompileConfigE
FNF:3
FNH:2
DA:8,2824
DA:10,2824
DA:11,2824
DA:12,0
DA:14,2824
DA:15,1376
DA:17,5648
DA:18,2824
DA:20,5648
DA:21,2824
DA:23,2824
DA:24,0
DA:27,2824
DA:30,2824
DA:31,2824
DA:32,2824
DA:33,2824
DA:34,2824
DA:36,2824
DA:37,2824
DA:38,2824
DA:39,2824
DA:41,2824
LF:23
LH:21
end_of_record
TN:
SF:/home/runner/work/fakelua/fakelua/src/jit/tcc_handle.h
FNF:0
FNH:0
DA:20,2824
DA:21,2824
LF:2
LH:2
end_of_record
TN:
SF:/home/runner/work/fakelua/fakelua/src/jit/tcc_jit.cpp
FN:10,36,_ZN7fakelua9TccJitter7CompileERNS_13CompileResultERKNS_13CompileConfigE
FN:7,8,_ZN7fakelua9TccJitterC2EPNS_5StateE
FNDA:2824,_ZN7fakelua9TccJitter7CompileERNS_13CompileResultERKNS_13CompileConfigE
FNDA:2824,_ZN7fakelua9TccJitterC2EPNS_5StateE
FNF:2
FNH:2
DA:7,2824
DA:8,2824
DA:10,2824
DA:11,2824
DA:12,2824
DA:14,2824
DA:15,16
DA:18,2816
DA:19,0
DA:22,16160
DA:23,6672
DA:24,6672
DA:25,0
DA:31,13344
DA:32,6672
DA:35,2824
DA:36,2816
LF:17
LH:15
end_of_record
TN:
SF:/home/runner/work/fakelua/fakelua/src/jit/vm.cpp
FN:13,15,FakeluaThrowError
FN:17,59,FakeluaCallByName
FN:9,11,FakeluaAllocTemp
FNDA:2,FakeluaThrowError
FNDA:44,FakeluaCallByName
FNDA:802,FakeluaAllocTemp
FNF:3
FNH:3
DA:9,802
DA:10,802
DA:13,2
DA:14,2
DA:17,44
DA:18,44
DA:19,44
DA:20,4
DA:22,42
DA:23,42
DA:24,4
DA:28,40
DA:29,2
DA:30,4
DA:34,38
DA:35,8
DA:36,4
DA:39,34
DA:40,34
DA:41,34
DA:42,138
DA:43,104
DA:45,34
DA:47,34
DA:48,2
DA:49,2
DA:50,18
DA:51,2
DA:52,2
DA:53,2
DA:54,2
DA:55,2
DA:56,2
DA:57,0
DA:59,44
LF:35
LH:34
end_of_record
TN:
SF:/home/runner/work/fakelua/fakelua/src/jit/vm.h
FN:22,30,_ZN7fakelua2Vm16RegisterFunctionERKNS_10VmFunctionE
FN:33,39,_ZNK7fakelua2Vm11GetFunctionERKNSt7__cxx1112basic_stringIcSt11char_traitsIcESaIcEEE
FNDA:13388,_ZN7fakelua2Vm16RegisterFunctionERKNS_10VmFunctionE
FNDA:4744,_ZNK7fakelua2Vm11GetFunctionERKNSt7__cxx1112basic_stringIcSt11char_traitsIcESaIcEEE
FNF:2
FNH:2
DA:17,1860
DA:19,1854
DA:22,13388
DA:23,13388
DA:24,13388
DA:25,13388
DA:26,1760
DA:27,1760
DA:29,11628
DA:33,4744
DA:34,4744
DA:35,4744
DA:36,6
DA:38,4738
LF:14
LH:14
end_of_record
TN:
SF:/home/runner/work/fakelua/fakelua/src/jit/vm_function.h
FN:14,18,_ZN7fakelua10VmFunctionC2ENSt7__cxx1112basic_stringIcSt11char_traitsIcESaIcEEEiPvRKSt10shared_ptrINS_9TCCHandleEE
FN:20,25,_ZN7fakelua10VmFunctionC2ENSt7__cxx1112basic_stringIcSt11char_traitsIcESaIcEEEiNS_7JITTypeEPvRKSt10shared_ptrINS_9JITHandleEE
FN:27,27,_ZN7fakelua10VmFunctionD2Ev
FN:41,44,_ZNK7fakelua10VmFunction7GetAddrENS_7JITTypeE
FN:51,59,_ZN7fakelua10VmFunction5MergeERKS0_
FNDA:6676,_ZN7fakelua10VmFunctionC2ENSt7__cxx1112basic_stringIcSt11char_traitsIcESaIcEEEiPvRKSt10shared_ptrINS_9TCCHandleEE
FNDA:6712,_ZN7fakelua10VmFunctionC2ENSt7__cxx1112basic_stringIcSt11char_traitsIcESaIcEEEiNS_7JITTypeEPvRKSt10shared_ptrINS_9JITHandleEE
FNDA:19902,_ZN7fakelua10VmFunctionD2Ev
FNDA:4738,_ZNK7fakelua10VmFunction7GetAddrENS_7JITTypeE
FNDA:11628,_ZN7fakelua10VmFunction5MergeERKS0_
FNF:5
FNH:5
DA:12,6
DA:14,6676
DA:15,6676
DA:16,6676
DA:17,6676
DA:18,6676
DA:20,6712
DA:21,6712
DA:22,6712
DA:23,6712
DA:24,6712
DA:25,6712
DA:27,59706
DA:29,4744
DA:30,4744
DA:33,13388
DA:34,13388
DA:37,4734
DA:38,4734
DA:41,4738
DA:42,4738
DA:43,4738
DA:51,11628
DA:52,34884
DA:53,23256
DA:54,11628
DA:56,11628
DA:57,11628
DA:59,11628
LF:29
LH:29
end_of_record
TN:
SF:/home/runner/work/fakelua/fakelua/src/platform/FlexLexer.h
FNF:0
FNH:0
DA:58,3581
DA:61,3581
DA:99,3571
LF:3
LH:3
end_of_record
TN:
SF:/home/runner/work/fakelua/fakelua/src/state/const_string.cpp
FN:11,23,_ZN7fakelua11ConstString5AllocERKSt17basic_string_viewIcSt11char_traitsIcEE
FN:25,28,_ZN7fakelua11ConstString9GetStringEl
FN:30,32,_ZN7fakelua11ConstString12GetVarStringEl
FN:8,9,_ZN7fakelua11ConstStringC2EPNS_5StateE
FNDA:1026,_ZN7fakelua11ConstString5AllocERKSt17basic_string_viewIcSt11char_traitsIcEE
FNDA:10,_ZN7fakelua11ConstString9GetStringEl
FNDA:344,_ZN7fakelua11ConstString12GetVarStringEl
FNDA:1860,_ZN7fakelua11ConstStringC2EPNS_5StateE
FNF:4
FNH:4
DA:8,1860
DA:9,1860
DA:11,1026
DA:12,1026
DA:13,780
DA:16,246
DA:17,246
DA:18,246
DA:20,246
DA:21,246
DA:22,246
DA:25,10
DA:26,10
DA:27,10
DA:30,344
DA:31,344
LF:16
LH:16
end_of_record
TN:
SF:/home/runner/work/fakelua/fakelua/src/state/const_string.h
FNF:0
FNH:0
DA:11,1854
LF:1
LH:1
end_of_record
TN:
SF:/home/runner/work/fakelua/fakelua/src/state/fakelua.cpp
FN:100,105,_ZN7fakelua5inter18NativeToFakeluaStrEPNS_5StateEPc
FN:107,111,_ZN7fakelua5inter21NativeToFakeluaStringEPNS_5StateERKNSt7__cxx1112basic_stringIcSt11char_traitsIcESaIcEEE
FN:11,13,_ZN7fakelua5inter18NativeToFakeluaNilEPNS_5StateE
FN:113,117,_ZN7fakelua5inter25NativeToFakeluaStringViewEPNS_5StateERKSt17basic_string_viewIcSt11char_traitsIcEE
FN:119,151,_ZN7fakelua5inter7ViToVarEPNS_5StateEPKNS_12VarInterfaceE
FN:15,19,_ZN7fakelua5inter19NativeToFakeluaBoolEPNS_5StateEb
FN:153,155,_ZN7fakelua5inter18NativeToFakeluaObjEPNS_5StateEPKNS_12VarInterfaceE
FN:157,163,_ZN7fakelua5inter19FakeluaToNativeBoolEPNS_5StateENS_4CVarE
FN:165,171,_ZN7fakelua5inter19FakeluaToNativeCharEPNS_5StateENS_4CVarE
FN:173,179,_ZN7fakelua5inter20FakeluaToNativeUcharEPNS_5StateENS_4CVarE
FN:181,187,_ZN7fakelua5inter20FakeluaToNativeShortEPNS_5StateENS_4CVarE
FN:189,195,_ZN7fakelua5inter21FakeluaToNativeUshortEPNS_5StateENS_4CVarE
FN:197,203,_ZN7fakelua5inter18FakeluaToNativeIntEPNS_5StateENS_4CVarE
FN:205,211,_ZN7fakelua5inter19FakeluaToNativeUintEPNS_5StateENS_4CVarE
FN:21,25,_ZN7fakelua5inter19NativeToFakeluaCharEPNS_5StateEc
FN:213,219,_ZN7fakelua5inter19FakeluaToNativeLongEPNS_5StateENS_4CVarE
FN:221,227,_ZN7fakelua5inter20FakeluaToNativeUlongEPNS_5StateENS_4CVarE
FN:229,235,_ZN7fakelua5inter23FakeluaToNativeLonglongEPNS_5StateENS_4CVarE
FN:237,243,_ZN7fakelua5inter24FakeluaToNativeUlonglongEPNS_5StateENS_4CVarE
FN:245,254,_ZN7fakelua5inter20FakeluaToNativeFloatEPNS_5StateENS_4CVarE
FN:256,265,_ZN7fakelua5inter21FakeluaToNativeDoubleEPNS_5StateENS_4CVarE
FN:267,273,_ZN7fakelua5inter21FakeluaToNativeStringB5cxx11EPNS_5StateENS_4CVarE
FN:27,31,_ZN7fakelua5inter20NativeToFakeluaUcharEPNS_5StateEh
FN:275,281,_ZN7fakelua5inter25FakeluaToNativeStringViewEPNS_5StateENS_4CVarE
FN:283,338,_ZN7fakelua5inter7VarToViEPNS_5StateENS_4CVarEPNS_12VarInterfaceE
FN:33,37,_ZN7fakelua5inter20NativeToFakeluaShortEPNS_5StateEs
FN:340,344,_ZN7fakelua5inter18FakeluaToNativeObjEPNS_5StateENS_4CVarE
FN:346,353,_ZN7fakelua5inter11GetFuncAddrEPNS_5StateENS_7JITTypeERKSt17basic_string_viewIcSt11char_traitsIcEERi
FN:355,357,_ZN7fakelua5inter26ThrowInterFakeluaExceptionERKNSt7__cxx1112basic_stringIcSt11char_traitsIcESaIcEEE
FN:359,361,_ZN7fakelua5inter17GetReentrantCountEPNS_5StateE
FN:363,365,_ZN7fakelua5inter17AddReentrantCountEPNS_5StateE
FN:367,369,_ZN7fakelua5inter17SubReentrantCountEPNS_5StateE
FN:371,373,_ZN7fakelua5inter5ResetEPNS_5StateE
FN:377,379,_ZN7fakelua15FakeluaNewStateERKNS_11StateConfigE
FN:381,383,_ZN7fakelua18FakeluaDeleteStateEPNS_5StateE
FN:385,387,_ZN7fakelua11CompileFileEPNS_5StateERKNSt7__cxx1112basic_stringIcSt11char_traitsIcESaIcEEERKNS_13CompileConfigE
FN:389,391,_ZN7fakelua13CompileStringEPNS_5StateERKNSt7__cxx1112basic_stringIcSt11char_traitsIcESaIcEEERKNS_13CompileConfigE
FN:39,43,_ZN7fakelua5inter21NativeToFakeluaUshortEPNS_5StateEt
FN:393,395,_ZN7fakelua20GetLastRecordedCCodeB5cxx11EPNS_5StateE
FN:397,399,_ZN7fakelua22SetVarInterfaceNewFuncEPNS_5StateERKSt8functionIFPNS_12VarInterfaceEvEE
FN:401,403,_ZN7fakelua22GetVarInterfaceNewFuncEPNS_5StateE
FN:405,407,_ZN7fakelua16SetDebugLogLevelEi
FN:45,49,_ZN7fakelua5inter18NativeToFakeluaIntEPNS_5StateEi
FN:51,55,_ZN7fakelua5inter19NativeToFakeluaUintEPNS_5StateEj
FN:57,61,_ZN7fakelua5inter19NativeToFakeluaLongEPNS_5StateEl
FN:63,67,_ZN7fakelua5inter20NativeToFakeluaUlongEPNS_5StateEm
FN:69,73,_ZN7fakelua5inter23NativeToFakeluaLonglongEPNS_5StateEx
FN:75,79,_ZN7fakelua5inter24NativeToFakeluaUlonglongEPNS_5StateEy
FN:81,85,_ZN7fakelua5inter20NativeToFakeluaFloatEPNS_5StateEf
FN:87,91,_ZN7fakelua5inter21NativeToFakeluaDoubleEPNS_5StateEd
FN:93,98,_ZN7fakelua5inter19NativeToFakeluaCstrEPNS_5StateEPKc
FNDA:4,_ZN7fakelua5inter18NativeToFakeluaStrEPNS_5StateEPc
FNDA:84,_ZN7fakelua5inter21NativeToFakeluaStringEPNS_5StateERKNSt7__cxx1112basic_stringIcSt11char_traitsIcESaIcEEE
FNDA:68,_ZN7fakelua5inter18NativeToFakeluaNilEPNS_5StateE
FNDA:4,_ZN7fakelua5inter25NativeToFakeluaStringViewEPNS_5StateERKSt17basic_string_viewIcSt11char_traitsIcEE
FNDA:36,_ZN7fakelua5inter7ViToVarEPNS_5StateEPKNS_12VarInterfaceE
FNDA:280,_ZN7fakelua5inter19NativeToFakeluaBoolEPNS_5StateEb
FNDA:20,_ZN7fakelua5inter18NativeToFakeluaObjEPNS_5StateEPKNS_12VarInterfaceE
FNDA:488,_ZN7fakelua5inter19FakeluaToNativeBoolEPNS_5StateENS_4CVarE
FNDA:8,_ZN7fakelua5inter19FakeluaToNativeCharEPNS_5StateENS_4CVarE
FNDA:8,_ZN7fakelua5inter20FakeluaToNativeUcharEPNS_5StateENS_4CVarE
FNDA:8,_ZN7fakelua5inter20FakeluaToNativeShortEPNS_5StateENS_4CVarE
FNDA:8,_ZN7fakelua5inter21FakeluaToNativeUshortEPNS_5StateENS_4CVarE
FNDA:3180,_ZN7fakelua5inter18FakeluaToNativeIntEPNS_5StateENS_4CVarE
FNDA:8,_ZN7fakelua5inter19FakeluaToNativeUintEPNS_5StateENS_4CVarE
FNDA:4,_ZN7fakelua5inter19NativeToFakeluaCharEPNS_5StateEc
FNDA:8,_ZN7fakelua5inter19FakeluaToNativeLongEPNS_5StateENS_4CVarE
FNDA:8,_ZN7fakelua5inter20FakeluaToNativeUlongEPNS_5StateENS_4CVarE
FNDA:8,_ZN7fakelua5inter23FakeluaToNativeLonglongEPNS_5StateENS_4CVarE
FNDA:8,_ZN7fakelua5inter24FakeluaToNativeUlonglongEPNS_5StateENS_4CVarE
FNDA:60,_ZN7fakelua5inter20FakeluaToNativeFloatEPNS_5StateENS_4CVarE
FNDA:544,_ZN7fakelua5inter21FakeluaToNativeDoubleEPNS_5StateENS_4CVarE
FNDA:248,_ZN7fakelua5inter21FakeluaToNativeStringB5cxx11EPNS_5StateENS_4CVarE
FNDA:4,_ZN7fakelua5inter20NativeToFakeluaUcharEPNS_5StateEh
FNDA:8,_ZN7fakelua5inter25FakeluaToNativeStringViewEPNS_5StateENS_4CVarE
FNDA:976,_ZN7fakelua5inter7VarToViEPNS_5StateENS_4CVarEPNS_12VarInterfaceE
FNDA:4,_ZN7fakelua5inter20NativeToFakeluaShortEPNS_5StateEs
FNDA:104,_ZN7fakelua5inter18FakeluaToNativeObjEPNS_5StateENS_4CVarE
FNDA:4700,_ZN7fakelua5inter11GetFuncAddrEPNS_5StateENS_7JITTypeERKSt17basic_string_viewIcSt11char_traitsIcEERi
FNDA:8,_ZN7fakelua5inter26ThrowInterFakeluaExceptionERKNSt7__cxx1112basic_stringIcSt11char_traitsIcESaIcEEE
FNDA:4692,_ZN7fakelua5inter17GetReentrantCountEPNS_5StateE
FNDA:4692,_ZN7fakelua5inter17AddReentrantCountEPNS_5StateE
FNDA:4692,_ZN7fakelua5inter17SubReentrantCountEPNS_5StateE
FNDA:4692,_ZN7fakelua5inter5ResetEPNS_5StateE
FNDA:1840,_ZN7fakelua15FakeluaNewStateERKNS_11StateConfigE
FNDA:1834,_ZN7fakelua18FakeluaDeleteStateEPNS_5StateE
FNDA:3391,_ZN7fakelua11CompileFileEPNS_5StateERKNSt7__cxx1112basic_stringIcSt11char_traitsIcESaIcEEERKNS_13CompileConfigE
FNDA:32,_ZN7fakelua13CompileStringEPNS_5StateERKNSt7__cxx1112basic_stringIcSt11char_traitsIcESaIcEEERKNS_13CompileConfigE
FNDA:4,_ZN7fakelua5inter21NativeToFakeluaUshortEPNS_5StateEt
FNDA:257,_ZN7fakelua20GetLastRecordedCCodeB5cxx11EPNS_5StateE
FNDA:36,_ZN7fakelua22SetVarInterfaceNewFuncEPNS_5StateERKSt8functionIFPNS_12VarInterfaceEvEE
FNDA:976,_ZN7fakelua22GetVarInterfaceNewFuncEPNS_5StateE
FNDA:224,_ZN7fakelua16SetDebugLogLevelEi
FNDA:5348,_ZN7fakelua5inter18NativeToFakeluaIntEPNS_5StateEi
FNDA:4,_ZN7fakelua5inter19NativeToFakeluaUintEPNS_5StateEj
FNDA:4,_ZN7fakelua5inter19NativeToFakeluaLongEPNS_5StateEl
FNDA:4,_ZN7fakelua5inter20NativeToFakeluaUlongEPNS_5StateEm
FNDA:4,_ZN7fakelua5inter23NativeToFakeluaLonglongEPNS_5StateEx
FNDA:4,_ZN7fakelua5inter24NativeToFakeluaUlonglongEPNS_5StateEy
FNDA:4,_ZN7fakelua5inter20NativeToFakeluaFloatEPNS_5StateEf
FNDA:616,_ZN7fakelua5inter21NativeToFakeluaDoubleEPNS_5StateEd
FNDA:276,_ZN7fakelua5inter19NativeToFakeluaCstrEPNS_5StateEPKc
FNF:51
FNH:51
DA:11,68
DA:12,68
DA:15,280
DA:16,280
DA:17,280
DA:18,280
DA:21,4
DA:22,4
DA:23,4
DA:24,4
DA:27,4
DA:28,4
DA:29,4
DA:30,4
DA:33,4
DA:34,4
DA:35,4
DA:36,4
DA:39,4
DA:40,4
DA:41,4
DA:42,4
DA:45,5348
DA:46,5348
DA:47,5348
DA:48,5348
DA:51,4
DA:52,4
DA:53,4
DA:54,4
DA:57,4
DA:58,4
DA:59,4
DA:60,4
DA:63,4
DA:64,4
DA:65,4
DA:66,4
DA:69,4
DA:70,4
DA:71,4
DA:72,4
DA:75,4
DA:76,4
DA:77,4
DA:78,4
DA:81,4
DA:82,4
DA:83,4
DA:84,4
DA:87,616
DA:88,616
DA:89,616
DA:90,616
DA:93,276
DA:94,276
DA:96,276
DA:97,276
DA:100,4
DA:101,4
DA:103,4
DA:104,4
DA:107,84
DA:108,84
DA:109,84
DA:110,84
DA:113,4
DA:114,4
DA:115,4
DA:116,4
DA:119,36
DA:120,40
DA:121,32
DA:122,32
DA:123,4
DA:124,4
DA:125,4
DA:126,4
DA:127,4
DA:128,4
DA:129,4
DA:130,4
DA:131,4
DA:132,4
DA:133,4
DA:134,4
DA:135,8
DA:136,8
DA:137,8
DA:138,8
DA:139,8
DA:140,16
DA:141,8
DA:142,8
DA:143,8
DA:144,8
DA:147,0
DA:148,0
DA:150,32
DA:153,20
DA:154,20
DA:157,488
DA:158,488
DA:159,488
DA:160,484
DA:162,8
DA:165,8
DA:166,8
DA:167,8
DA:168,4
DA:170,8
DA:173,8
DA:174,8
DA:175,8
DA:176,4
DA:178,8
DA:181,8
DA:182,8
DA:183,8
DA:184,4
DA:186,8
DA:189,8
DA:190,8
DA:191,8
DA:192,4
DA:194,8
DA:197,3180
DA:198,3180
DA:199,3180
DA:200,3176
DA:202,8
DA:205,8
DA:206,8
DA:207,8
DA:208,4
DA:210,8
DA:213,8
DA:214,8
DA:215,8
DA:216,4
DA:218,8
DA:221,8
DA:222,8
DA:223,8
DA:224,4
DA:226,8
DA:229,8
DA:230,8
DA:231,8
DA:232,4
DA:234,8
DA:237,8
DA:238,8
DA:239,8
DA:240,4
DA:242,8
DA:245,60
DA:246,60
DA:247,60
DA:248,36
DA:250,24
DA:251,20
DA:253,8
DA:256,544
DA:257,544
DA:258,544
DA:259,536
DA:261,8
DA:262,4
DA:264,8
DA:267,248
DA:268,248
DA:269,248
DA:270,244
DA:272,8
DA:275,8
DA:276,8
DA:277,8
DA:278,4
DA:280,8
DA:283,976
DA:284,976
DA:285,976
DA:286,976
DA:287,8
DA:288,8
DA:290,8
DA:291,8
DA:293,664
DA:294,664
DA:296,8
DA:297,8
DA:299,12
DA:300,12
DA:301,12
DA:302,164
DA:303,164
DA:304,164
DA:305,112
DA:306,112
DA:307,112
DA:308,112
DA:309,112
DA:310,112
DA:311,112
DA:312,372
DA:313,276
DA:314,276
DA:315,276
DA:316,276
DA:317,276
DA:318,276
DA:319,276
DA:320,276
DA:323,176
DA:324,160
DA:325,160
DA:326,160
DA:327,160
DA:328,160
DA:329,160
DA:330,160
DA:331,160
DA:334,112
DA:335,112
DA:336,112
DA:338,976
DA:340,104
DA:341,104
DA:342,104
DA:343,104
DA:346,4700
DA:347,4700
DA:348,4700
DA:351,4696
DA:352,4696
DA:353,4700
DA:355,8
DA:356,8
DA:359,4692
DA:360,4692
DA:363,4692
DA:364,4692
DA:365,4692
DA:367,4692
DA:368,4692
DA:369,4692
DA:371,4692
DA:372,4692
DA:373,4692
DA:377,1840
DA:378,1840
DA:381,1834
DA:382,1834
DA:383,1834
DA:385,3391
DA:386,3391
DA:387,3041
DA:389,32
DA:390,32
DA:391,32
DA:393,257
DA:394,257
DA:397,36
DA:398,36
DA:399,36
DA:401,976
DA:402,976
DA:405,224
DA:406,224
DA:407,224
LF:271
LH:269
end_of_record
TN:
SF:/home/runner/work/fakelua/fakelua/src/state/heap.cpp
FN:19,55,_ZN7fakelua13HeapAllocator5AllocEm
FN:57,64,_ZN7fakelua13HeapAllocator5ResetEv
FN:66,68,_ZNK7fakelua13HeapAllocator4SizeEv
FN:7,17,_ZN7fakelua13HeapAllocatorD2Ev
FNDA:2808,_ZN7fakelua13HeapAllocator5AllocEm
FNDA:8412,_ZN7fakelua13HeapAllocator5ResetEv
FNDA:8,_ZNK7fakelua13HeapAllocator4SizeEv
FNDA:3716,_ZN7fakelua13HeapAllocatorD2Ev
FNF:4
FNH:4
DA:7,3716
DA:8,3716
DA:9,4342
DA:13,626
DA:16,3716
DA:17,3755
DA:19,2808
DA:20,2808
DA:24,2808
DA:25,8
DA:28,2804
DA:30,2804
DA:31,8
DA:32,8
DA:33,8
DA:36,2804
DA:43,626
DA:45,626
DA:46,0
DA:48,626
DA:51,2804
DA:52,2804
DA:53,2804
DA:54,2804
DA:57,8412
DA:58,8473
DA:59,61
DA:61,8412
DA:62,8412
DA:63,8412
DA:64,8412
DA:66,8
DA:67,8
LF:33
LH:32
end_of_record
TN:
SF:/home/runner/work/fakelua/fakelua/src/state/heap.h
FN:19,24,_ZN7fakelua13HeapAllocator3NewINS_8VarTableEJEEEPT_DpOT0_
FNDA:61,_ZN7fakelua13HeapAllocator3NewINS_8VarTableEJEEEPT_DpOT0_
FNF:1
FNH:1
DA:10,1860
DA:19,61
DA:20,61
DA:21,61
DA:22,61
DA:23,61
DA:47,3714
DA:49,1756
DA:50,1756
DA:53,246
DA:54,246
DA:57,4692
DA:58,4692
LF:13
LH:13
end_of_record
TN:
SF:/home/runner/work/fakelua/fakelua/src/state/state.cpp
FN:7,8,_ZN7fakelua5StateC2ERKNS_11StateConfigE
FNDA:1860,_ZN7fakelua5StateC2ERKNS_11StateConfigE
FNF:1
FNH:1
DA:7,1860
DA:8,1860
LF:2
LH:2
end_of_record
TN:
SF:/home/runner/work/fakelua/fakelua/src/state/state.h
FN:24,24,_ZN7fakelua5StateD2Ev
FN:26,29,_ZN7fakelua5State5ResetEv
FN:65,68,_ZN7fakelua5State22SetVarInterfaceNewFuncERKSt8functionIFPNS_12VarInterfaceEvEE
FNDA:1854,_ZN7fakelua5StateD2Ev
FNDA:4692,_ZN7fakelua5State5ResetEv
FNDA:36,_ZN7fakelua5State22SetVarInterfaceNewFuncERKSt8functionIFPNS_12VarInterfaceEvEE
FNF:3
FNH:3
DA:24,5562
DA:26,4692
DA:27,4692
DA:28,4692
DA:29,4692
DA:31,2824
DA:32,2824
DA:35,3423
DA:36,3680
DA:40,2002
DA:43,1026
DA:44,1026
DA:47,18132
DA:48,18132
DA:51,4692
DA:52,4692
DA:56,4692
DA:57,4692
DA:61,4692
DA:62,4692
DA:65,36
DA:66,36
DA:67,36
DA:68,36
DA:70,976
DA:71,976
LF:26
LH:26
end_of_record
TN:
SF:/home/runner/work/fakelua/fakelua/src/util/debug.cpp
FN:6,8,_ZN7fakelua15DebugAssertFailERKNSt7__cxx1112basic_stringIcSt11char_traitsIcESaIcEEERKSt15source_location
FNDA:12,_ZN7fakelua15DebugAssertFailERKNSt7__cxx1112basic_stringIcSt11char_traitsIcESaIcEEERKSt15source_location
FNF:1
FNH:1
DA:6,12
DA:7,48
LF:2
LH:2
end_of_record
TN:
SF:/home/runner/work/fakelua/fakelua/src/util/debug.h
FNF:0
FNH:0
DA:8,75
LF:1
LH:1
end_of_record
TN:
SF:/home/runner/work/fakelua/fakelua/src/util/exception.cpp
FN:23,27,_ZN7fakelua21ThrowFakeluaExceptionERKNSt7__cxx1112basic_stringIcSt11char_traitsIcESaIcEEE
FN:6,21,_ZN7fakelua17StacktraceCurrentB5cxx11Ev
FNDA:650,_ZN7fakelua21ThrowFakeluaExceptionERKNSt7__cxx1112basic_stringIcSt11char_traitsIcESaIcEEE
FNDA:650,_ZN7fakelua17StacktraceCurrentB5cxx11Ev
FNF:2
FNH:2
DA:6,650
DA:7,650
DA:9,650
DA:10,650
DA:11,650
DA:12,650
DA:13,650
DA:14,13235
DA:15,12585
DA:16,12585
DA:18,650
DA:20,650
DA:21,0
DA:23,650
DA:24,650
DA:25,1300
DA:26,1300
DA:27,650
LF:18
LH:17
end_of_record
TN:
SF:/home/runner/work/fakelua/fakelua/src/util/exception.h
FNF:0
FNH:0
DA:7,650
LF:1
LH:1
end_of_record
TN:
SF:/home/runner/work/fakelua/fakelua/src/util/file_util.cpp
FN:5,24,_ZN7fakelua19GenerateTmpFilenameERKNSt7__cxx1112basic_stringIcSt11char_traitsIcESaIcEEES7_
FNDA:7246,_ZN7fakelua19GenerateTmpFilenameERKNSt7__cxx1112basic_stringIcSt11char_traitsIcESaIcEEES7_
FNF:1
FNH:1
DA:5,7246
DA:6,7246
DA:7,7246
DA:8,7246
DA:9,7246
DA:10,7246
DA:11,5
DA:13,7246
DA:15,7255
DA:16,7246
DA:19,7246
DA:20,7246
DA:21,14492
DA:22,7246
DA:23,7246
DA:24,7246
LF:16
LH:16
end_of_record
TN:
SF:/home/runner/work/fakelua/fakelua/src/util/logging.cpp
FN:11,13,_ZN7fakelua13CheckLogLevelERKNS_8LogLevelE
FN:15,41,_ZN7fakelua3LogERKNS_8LogLevelERKSt17basic_string_viewIcSt11char_traitsIcEERKSt15source_location
FN:7,9,_ZN7fakelua11SetLogLevelERKNS_8LogLevelE
FNDA:342786,_ZN7fakelua13CheckLogLevelERKNS_8LogLevelE
FNDA:19581,_ZN7fakelua3LogERKNS_8LogLevelERKSt17basic_string_viewIcSt11char_traitsIcEERKSt15source_location
FNDA:229,_ZN7fakelua11SetLogLevelERKNS_8LogLevelE
FNF:3
FNH:3
DA:7,229
DA:8,229
DA:9,229
DA:11,342786
DA:12,342786
DA:15,19581
DA:17,19581
DA:18,19581
DA:19,19581
DA:23,19581
DA:25,19581
DA:30,19581
DA:32,19581
DA:33,78324
DA:34,39107
DA:35,19581
DA:36,19581
DA:37,55
DA:39,19581
DA:41,19581
LF:20
LH:20
end_of_record
TN:
SF:/home/runner/work/fakelua/fakelua/src/util/os.cpp
FN:5,18,_ZN7fakelua4ExecB5cxx11EPKc
FNDA:4,_ZN7fakelua4ExecB5cxx11EPKc
FNF:1
FNH:1
DA:5,4
DA:6,4
DA:8,4
DA:9,0
DA:12,4
DA:13,4
DA:14,12
DA:15,12
DA:17,4
DA:18,4
LF:10
LH:9
end_of_record
TN:
SF:/home/runner/work/fakelua/fakelua/src/util/string_util.cpp
FN:102,154,_ZN7fakelua9ToIntegerERKSt17basic_string_viewIcSt11char_traitsIcEE
FN:156,225,_ZN7fakelua7ToFloatERKSt17basic_string_viewIcSt11char_traitsIcEE
FN:19,100,_ZN7fakelua18ReplaceEscapeCharsERKNSt7__cxx1112basic_stringIcSt11char_traitsIcESaIcEEE
FNDA:7332,_ZN7fakelua9ToIntegerERKSt17basic_string_viewIcSt11char_traitsIcEE
FNDA:497,_ZN7fakelua7ToFloatERKSt17basic_string_viewIcSt11char_traitsIcEE
FNDA:501,_ZN7fakelua18ReplaceEscapeCharsERKNSt7__cxx1112basic_stringIcSt11char_traitsIcESaIcEEE
FNF:3
FNH:3
DA:19,501
DA:20,501
DA:21,501
DA:22,1817
DA:23,124
DA:24,124
DA:27,124
DA:28,6
DA:29,6
DA:30,6
DA:31,6
DA:32,6
DA:33,6
DA:34,6
DA:35,6
DA:36,3
DA:37,3
DA:38,3
DA:39,3
DA:40,6
DA:41,6
DA:42,6
DA:43,6
DA:44,6
DA:45,6
DA:46,6
DA:47,6
DA:48,6
DA:49,6
DA:50,6
DA:51,6
DA:52,6
DA:53,6
DA:54,6
DA:55,6
DA:56,6
DA:57,6
DA:58,6
DA:59,6
DA:60,12
DA:61,12
DA:62,12
DA:63,12
DA:64,12
DA:65,12
DA:66,12
DA:67,12
DA:68,36
DA:70,36
DA:71,138
DA:72,102
DA:75,19
DA:76,19
DA:77,4
DA:81,59
DA:82,51
DA:85,42
DA:86,42
DA:88,17
DA:89,10
DA:91,2329
DA:95,1693
DA:96,1693
DA:99,497
DA:100,4
DA:102,7332
DA:103,7332
DA:105,7332
DA:106,7332
DA:107,7332
DA:108,7332
DA:109,775
DA:110,6
DA:111,6
DA:112,3
DA:113,3
DA:115,769
DA:116,118
DA:117,21
DA:118,21
DA:119,97
DA:120,18
DA:121,18
DA:122,18
DA:129,7332
DA:130,7332
DA:131,7332
DA:133,7332
DA:136,18
DA:137,18
DA:138,6
DA:139,15
DA:140,6
DA:143,12
DA:145,7314
DA:146,7314
DA:147,4
DA:148,7312
DA:149,16
DA:153,7320
DA:154,7320
DA:156,497
DA:157,497
DA:160,497
DA:161,497
DA:162,497
DA:164,497
DA:165,492
DA:168,453
DA:171,435
DA:180,497
DA:181,497
DA:183,497
DA:185,102
DA:186,78
DA:187,21
DA:189,78
DA:192,57
DA:193,57
DA:194,57
DA:195,57
DA:196,6
DA:198,57
DA:201,21
DA:202,21
DA:203,21
DA:204,21
DA:205,6
DA:207,21
DA:209,419
DA:210,419
DA:211,419
DA:212,4
DA:214,419
DA:216,489
DA:217,2
DA:220,487
DA:221,6
DA:224,487
LF:139
LH:139
end_of_record
TN:
SF:/home/runner/work/fakelua/fakelua/src/util/string_util.h
FN:25,31,_ZN7fakelua10JoinStringERKSt6vectorINSt7__cxx1112basic_stringIcSt11char_traitsIcESaIcEEESaIS6_EERKS6_
FN:30,30,_ZZN7fakelua10JoinStringERKSt6vectorINSt7__cxx1112basic_stringIcSt11char_traitsIcESaIcEEESaIS6_EERKS6_ENKUlS6_SC_E_clES6_SC_
FNDA:12,_ZN7fakelua10JoinStringERKSt6vectorINSt7__cxx1112basic_stringIcSt11char_traitsIcESaIcEEESaIS6_EERKS6_
FNDA:9,_ZZN7fakelua10JoinStringERKSt6vectorINSt7__cxx1112basic_stringIcSt11char_traitsIcESaIcEEESaIS6_EERKS6_ENKUlS6_SC_E_clES6_SC_
FNF:2
FNH:2
DA:13,48
DA:14,48
DA:17,27868
DA:18,27868
DA:25,12
DA:26,12
DA:27,3
DA:29,9
DA:30,45
LF:9
LH:9
end_of_record
TN:
SF:/home/runner/work/fakelua/fakelua/src/var/var.cpp
FN:126,162,_ZNK7fakelua3Var5EqualERKS0_
FN:14,37,_ZNK7fakelua3Var25TryConvertNumberToIntegerERl
FN:164,166,_ZNK7fakelua3Var12IsCalculableEv
FN:168,170,_ZNK7fakelua3Var19IsCalculableIntegerEv
FN:172,174,_ZNK7fakelua3Var16GetCalculableIntEv
FN:176,182,_ZNK7fakelua3Var19GetCalculableNumberEv
FN:184,194,_ZNK7fakelua3Var4PlusERKS0_RS0_
FN:196,206,_ZNK7fakelua3Var5MinusERKS0_RS0_
FN:208,218,_ZNK7fakelua3Var4StarERKS0_RS0_
FN:220,226,_ZNK7fakelua3Var5SlashERKS0_RS0_
FN:228,255,_ZNK7fakelua3Var11DoubleSlashERKS0_RS0_
FN:257,263,_ZNK7fakelua3Var3PowERKS0_RS0_
FN:265,295,_ZNK7fakelua3Var3ModERKS0_RS0_
FN:297,305,_ZNK7fakelua3Var6BitandERKS0_RS0_
FN:307,315,_ZNK7fakelua3Var3XorERKS0_RS0_
FN:317,325,_ZNK7fakelua3Var5BitorERKS0_RS0_
FN:327,345,_ZNK7fakelua3Var10RightShiftERKS0_RS0_
FN:347,365,_ZNK7fakelua3Var9LeftShiftERKS0_RS0_
FN:367,369,_ZNK7fakelua3Var6ConcatEPNS_5StateERKS0_RS0_
FN:371,382,_ZNK7fakelua3Var4LessERKS0_RS0_
FN:384,395,_ZNK7fakelua3Var9LessEqualERKS0_RS0_
FN:39,46,_ZNK7fakelua3Var9GetStringEv
FN:397,408,_ZNK7fakelua3Var4MoreERKS0_RS0_
FN:410,421,_ZNK7fakelua3Var9MoreEqualERKS0_RS0_
FN:423,425,_ZNK7fakelua3Var5EqualERKS0_RS0_
FN:427,429,_ZNK7fakelua3Var8NotEqualERKS0_RS0_
FN:431,440,_ZNK7fakelua3Var8TestTrueEv
FN:442,455,_ZNK7fakelua3Var9UnopMinusERS0_
FN:457,459,_ZNK7fakelua3Var7UnopNotERS0_
FN:461,473,_ZNK7fakelua3Var14UnopNumberSignERS0_
FN:475,482,_ZNK7fakelua3Var10UnopBitnotERS0_
FN:48,51,_ZN7fakelua3Var13SetTempStringEPNS_5StateERKSt17basic_string_viewIcSt11char_traitsIcEE
FN:484,490,_ZNK7fakelua3Var8TableSetEPNS_5StateERKS0_S4_b
FN:492,498,_ZNK7fakelua3Var8TableGetERKS0_
FN:500,506,_ZNK7fakelua3Var9TableSizeEv
FN:53,56,_ZN7fakelua3Var14SetConstStringEPNS_5StateERKSt17basic_string_viewIcSt11char_traitsIcEE
FN:58,61,_ZN7fakelua3Var8SetTableEPNS_5StateE
FN:63,92,_ZNK7fakelua3Var8ToStringB5cxx11Ebb
FN:94,124,_ZNK7fakelua3Var4HashEv
FNDA:19377,_ZNK7fakelua3Var5EqualERKS0_
FNDA:190,_ZNK7fakelua3Var25TryConvertNumberToIntegerERl
FNDA:425,_ZNK7fakelua3Var12IsCalculableEv
FNDA:275,_ZNK7fakelua3Var19IsCalculableIntegerEv
FNDA:205,_ZNK7fakelua3Var16GetCalculableIntEv
FNDA:205,_ZNK7fakelua3Var19GetCalculableNumberEv
FNDA:20,_ZNK7fakelua3Var4PlusERKS0_RS0_
FNDA:15,_ZNK7fakelua3Var5MinusERKS0_RS0_
FNDA:20,_ZNK7fakelua3Var4StarERKS0_RS0_
FNDA:15,_ZNK7fakelua3Var5SlashERKS0_RS0_
FNDA:45,_ZNK7fakelua3Var11DoubleSlashERKS0_RS0_
FNDA:10,_ZNK7fakelua3Var3PowERKS0_RS0_
FNDA:40,_ZNK7fakelua3Var3ModERKS0_RS0_
FNDA:20,_ZNK7fakelua3Var6BitandERKS0_RS0_
FNDA:10,_ZNK7fakelua3Var3XorERKS0_RS0_
FNDA:10,_ZNK7fakelua3Var5BitorERKS0_RS0_
FNDA:30,_ZNK7fakelua3Var10RightShiftERKS0_RS0_
FNDA:30,_ZNK7fakelua3Var9LeftShiftERKS0_RS0_
FNDA:5,_ZNK7fakelua3Var6ConcatEPNS_5StateERKS0_RS0_
FNDA:15,_ZNK7fakelua3Var4LessERKS0_RS0_
FNDA:15,_ZNK7fakelua3Var9LessEqualERKS0_RS0_
FNDA:596,_ZNK7fakelua3Var9GetStringEv
FNDA:15,_ZNK7fakelua3Var4MoreERKS0_RS0_
FNDA:15,_ZNK7fakelua3Var9MoreEqualERKS0_RS0_
FNDA:10,_ZNK7fakelua3Var5EqualERKS0_RS0_
FNDA:5,_ZNK7fakelua3Var8NotEqualERKS0_RS0_
FNDA:30,_ZNK7fakelua3Var8TestTrueEv
FNDA:15,_ZNK7fakelua3Var9UnopMinusERS0_
FNDA:10,_ZNK7fakelua3Var7UnopNotERS0_
FNDA:18,_ZNK7fakelua3Var14UnopNumberSignERS0_
FNDA:20,_ZNK7fakelua3Var10UnopBitnotERS0_
FNDA:565,_ZN7fakelua3Var13SetTempStringEPNS_5StateERKSt17basic_string_viewIcSt11char_traitsIcEE
FNDA:32,_ZNK7fakelua3Var8TableSetEPNS_5StateERKS0_S4_b
FNDA:10,_ZNK7fakelua3Var8TableGetERKS0_
FNDA:15,_ZNK7fakelua3Var9TableSizeEv
FNDA:47,_ZN7fakelua3Var14SetConstStringEPNS_5StateERKSt17basic_string_viewIcSt11char_traitsIcEE
FNDA:61,_ZN7fakelua3Var8SetTableEPNS_5StateE
FNDA:265,_ZNK7fakelua3Var8ToStringB5cxx11Ebb
FNDA:32435,_ZNK7fakelua3Var4HashEv
FNF:39
FNH:39
DA:14,190
DA:15,190
DA:16,140
DA:17,140
DA:19,50
DA:23,50
DA:24,50
DA:27,50
DA:28,50
DA:31,10
DA:35,10
DA:36,10
DA:39,596
DA:40,596
DA:41,596
DA:42,255
DA:44,341
DA:48,565
DA:49,565
DA:50,565
DA:51,565
DA:53,47
DA:54,47
DA:55,47
DA:56,47
DA:58,61
DA:59,61
DA:60,61
DA:61,61
DA:63,265
DA:64,265
DA:65,265
DA:66,265
DA:67,20
DA:68,20
DA:70,25
DA:71,25
DA:73,95
DA:74,95
DA:75,95
DA:76,55
DA:77,55
DA:78,55
DA:80,55
DA:81,55
DA:82,55
DA:83,10
DA:84,10
DA:85,10
DA:86,5
DA:87,5
DA:88,5
DA:91,265
DA:92,0
DA:94,32435
DA:95,32435
DA:99,20
DA:100,20
DA:102,32237
DA:103,32237
DA:105,51
DA:106,51
DA:110,51
DA:111,51
DA:113,92
DA:114,92
DA:115,134
DA:117,25
DA:118,25
DA:126,19377
DA:127,19377
DA:128,60
DA:129,20
DA:131,50
DA:132,10
DA:135,45
DA:136,20
DA:138,25
DA:139,20
DA:144,19317
DA:147,10
DA:148,10
DA:149,19159
DA:150,19159
DA:151,53
DA:152,53
DA:153,45
DA:154,90
DA:155,10
DA:156,10
DA:157,20
DA:158,20
DA:164,425
DA:165,425
DA:168,275
DA:169,275
DA:172,205
DA:173,205
DA:176,205
DA:177,205
DA:178,55
DA:180,150
DA:184,20
DA:185,20
DA:186,15
DA:187,10
DA:189,15
DA:190,5
DA:192,10
DA:194,15
DA:196,15
DA:197,15
DA:198,15
DA:199,10
DA:201,10
DA:202,5
DA:204,5
DA:206,10
DA:208,20
DA:209,20
DA:210,15
DA:211,10
DA:213,15
DA:214,5
DA:216,10
DA:218,15
DA:220,15
DA:221,15
DA:222,15
DA:223,10
DA:225,10
DA:226,10
DA:228,45
DA:229,45
DA:230,15
DA:231,10
DA:233,40
DA:234,25
DA:235,5
DA:239,20
DA:240,20
DA:246,20
DA:248,20
DA:249,10
DA:251,20
DA:253,15
DA:255,35
DA:257,10
DA:258,10
DA:259,15
DA:260,10
DA:262,5
DA:263,5
DA:265,40
DA:266,40
DA:267,15
DA:268,10
DA:270,35
DA:271,25
DA:272,5
DA:276,20
DA:277,20
DA:283,20
DA:285,20
DA:286,10
DA:288,20
DA:291,10
DA:292,10
DA:293,10
DA:295,30
DA:297,20
DA:298,20
DA:299,20
DA:300,20
DA:301,30
DA:302,20
DA:304,10
DA:305,10
DA:307,10
DA:308,10
DA:309,10
DA:310,10
DA:311,15
DA:312,10
DA:314,5
DA:315,5
DA:317,10
DA:318,10
DA:319,10
DA:320,10
DA:321,15
DA:322,10
DA:324,5
DA:325,5
DA:327,30
DA:328,30
DA:329,30
DA:330,30
DA:331,15
DA:332,10
DA:334,25
DA:336,25
DA:337,15
DA:338,15
DA:340,10
DA:341,5
DA:343,5
DA:347,30
DA:348,30
DA:349,30
DA:350,30
DA:351,15
DA:352,10
DA:354,25
DA:356,25
DA:357,15
DA:358,15
DA:360,10
DA:361,5
DA:363,5
DA:367,5
DA:368,10
DA:369,5
DA:371,15
DA:372,15
DA:373,15
DA:374,10
DA:377,10
DA:378,5
DA:380,5
DA:382,10
DA:384,15
DA:385,15
DA:386,15
DA:387,10
DA:390,10
DA:391,5
DA:393,5
DA:395,10
DA:397,15
DA:398,15
DA:399,15
DA:400,10
DA:403,10
DA:404,5
DA:406,5
DA:408,10
DA:410,15
DA:411,15
DA:412,15
DA:413,10
DA:416,10
DA:417,5
DA:419,5
DA:421,10
DA:423,10
DA:424,10
DA:425,10
DA:427,5
DA:428,5
DA:429,5
DA:431,30
DA:432,30
DA:435,15
DA:436,15
DA:437,5
DA:438,5
DA:442,15
DA:443,15
DA:444,15
DA:446,10
DA:451,5
DA:453,5
DA:455,10
DA:457,10
DA:458,10
DA:459,10
DA:461,18
DA:462,18
DA:463,15
DA:466,13
DA:467,5
DA:468,8
DA:469,3
DA:471,5
DA:473,13
DA:475,20
DA:476,20
DA:477,20
DA:478,30
DA:481,10
DA:482,10
DA:484,32
DA:485,32
DA:486,15
DA:489,27
DA:490,27
DA:492,10
DA:493,10
DA:494,15
DA:497,5
DA:500,15
DA:501,15
DA:502,15
DA:505,10
LF:305
LH:304
end_of_record
TN:
SF:/home/runner/work/fakelua/fakelua/src/var/var.h
FN:45,48,_ZNK7fakelua3Var7GetBoolEv
FN:51,54,_ZNK7fakelua3Var6GetIntEv
FN:57,60,_ZNK7fakelua3Var8GetFloatEv
FN:66,69,_ZNK7fakelua3Var8GetTableEv
FNDA:574,_ZNK7fakelua3Var7GetBoolEv
FNDA:11248,_ZNK7fakelua3Var6GetIntEv
FNDA:734,_ZNK7fakelua3Var8GetFloatEv
FNDA:165,_ZNK7fakelua3Var8GetTableEv
FNF:4
FNH:4
DA:17,74
DA:20,21
DA:21,24
DA:25,19439
DA:26,19500
DA:30,102
DA:31,111
DA:35,27
DA:36,27
DA:40,201621
DA:41,201346
DA:45,574
DA:46,574
DA:47,574
DA:51,11248
DA:52,11248
DA:53,11248
DA:57,734
DA:58,734
DA:59,734
DA:66,165
DA:67,165
DA:68,165
DA:73,45626
DA:74,41596
DA:75,4034
DA:78,382
DA:79,382
DA:80,102
DA:81,44
DA:84,19706
DA:85,25094
DA:86,19582
DA:87,97
DA:90,215
DA:91,835
DA:92,160
DA:93,59
LF:38
LH:38
end_of_record
TN:
SF:/home/runner/work/fakelua/fakelua/src/var/var_string.cpp
FN:6,10,_ZN7fakelua9VarString9AllocTempEPNS_5StateERKSt17basic_string_viewIcSt11char_traitsIcEE
FNDA:565,_ZN7fakelua9VarString9AllocTempEPNS_5StateERKSt17basic_string_viewIcSt11char_traitsIcEE
FNF:1
FNH:1
DA:6,565
DA:7,565
DA:8,565
DA:9,565
LF:4
LH:4
end_of_record
TN:
SF:/home/runner/work/fakelua/fakelua/src/var/var_string.h
FN:13,18,_ZN7fakelua9VarStringC2ERKSt17basic_string_viewIcSt11char_traitsIcEE
FNDA:811,_ZN7fakelua9VarStringC2ERKSt17basic_string_viewIcSt11char_traitsIcEE
FNF:1
FNH:1
DA:13,811
DA:14,811
DA:15,811
DA:16,811
DA:17,811
DA:18,811
DA:21,840
DA:22,815
DA:25,8
DA:26,8
DA:29,92
DA:30,92
DA:31,42
DA:32,42
DA:33,224
DA:34,182
DA:36,42
DA:38,92
LF:18
LH:18
end_of_record
TN:
SF:/home/runner/work/fakelua/fakelua/src/var/var_table.cpp
FN:13,34,_ZNK7fakelua8VarTable17NormalizeTableKeyERKNS_3VarE
FN:284,335,_ZN7fakelua8VarTable9InsertRawERKNS_3VarES3_j
FN:337,441,_ZN7fakelua8VarTable6RehashEPNS_5StateE
FN:36,96,_ZNK7fakelua8VarTable3GetERKNS_3VarE
FN:98,282,_ZN7fakelua8VarTable3SetEPNS_5StateERKNS_3VarES5_b
FNDA:32405,_ZNK7fakelua8VarTable17NormalizeTableKeyERKNS_3VarE
FNDA:28410,_ZN7fakelua8VarTable9InsertRawERKNS_3VarES3_j
FNDA:328,_ZN7fakelua8VarTable6RehashEPNS_5StateE
FNDA:12147,_ZNK7fakelua8VarTable3GetERKNS_3VarE
FNDA:20268,_ZN7fakelua8VarTable3SetEPNS_5StateERKNS_3VarES5_b
FNF:5
FNH:5
DA:13,32405
DA:14,32405
DA:15,32334
DA:18,71
DA:19,71
DA:20,20
DA:22,51
DA:23,51
DA:24,20
DA:26,31
DA:28,6
DA:31,25
DA:32,25
DA:33,25
DA:36,12147
DA:37,12147
DA:38,5
DA:40,12142
DA:42,12142
DA:43,5
DA:46,12137
DA:48,12137
DA:50,208
DA:51,53
DA:53,155
DA:54,35
DA:56,120
DA:57,25
DA:59,95
DA:60,15
DA:62,80
DA:63,15
DA:65,65
DA:66,15
DA:68,50
DA:69,10
DA:71,40
DA:72,10
DA:74,30
DA:76,11929
DA:77,11929
DA:78,11929
DA:80,11929
DA:81,10
DA:84,11925
DA:85,11922
DA:86,11909
DA:88,13
DA:89,13
DA:92,3
DA:95,10
DA:98,20268
DA:99,20268
DA:100,10
DA:102,20263
DA:103,20263
DA:105,20263
DA:106,4200
DA:107,5612
DA:110,4195
DA:112,135
DA:113,25
DA:114,15
DA:116,25
DA:117,25
DA:119,110
DA:120,15
DA:121,5
DA:123,15
DA:124,15
DA:126,95
DA:127,25
DA:128,5
DA:130,25
DA:131,25
DA:133,70
DA:134,15
DA:135,5
DA:137,15
DA:138,15
DA:140,55
DA:141,15
DA:142,5
DA:144,15
DA:145,15
DA:147,40
DA:148,15
DA:149,5
DA:151,15
DA:152,15
DA:154,25
DA:155,15
DA:156,5
DA:158,15
DA:159,15
DA:161,10
DA:162,10
DA:163,10
DA:166,4060
DA:167,4060
DA:168,4060
DA:170,4060
DA:174,4055
DA:175,4035
DA:176,5
DA:177,5
DA:180,5
DA:181,5
DA:182,5
DA:183,5
DA:185,5
DA:187,5
DA:188,5
DA:189,5
DA:190,5
DA:193,4030
DA:194,4030
DA:195,4030
DA:196,4030
DA:198,4030
DA:199,4030
DA:201,4035
DA:202,4035
DA:205,20
DA:206,20
DA:207,35
DA:208,25
DA:209,25
DA:211,10
DA:212,10
DA:213,10
DA:214,10
DA:216,10
DA:218,10
DA:219,10
DA:220,10
DA:221,10
DA:222,10
DA:224,15
DA:225,15
DA:228,10
DA:231,16063
DA:233,1515
DA:234,25
DA:235,25
DA:237,1490
DA:238,10
DA:239,10
DA:241,1480
DA:242,5
DA:243,5
DA:245,1475
DA:246,5
DA:247,5
DA:249,1470
DA:250,5
DA:251,5
DA:253,1465
DA:254,5
DA:255,5
DA:257,1460
DA:258,5
DA:259,5
DA:261,1455
DA:262,5
DA:263,5
DA:266,1450
DA:267,1347
DA:268,1347
DA:269,1347
DA:270,1347
DA:271,1347
DA:273,103
DA:276,14651
DA:277,225
DA:280,14651
DA:281,14651
DA:284,28410
DA:285,28410
DA:286,28410
DA:287,28410
DA:288,28410
DA:290,28410
DA:291,25357
DA:292,25357
DA:293,25357
DA:294,25357
DA:296,25357
DA:297,25357
DA:299,25357
DA:300,25357
DA:304,3593
DA:305,3593
DA:306,3593
DA:307,2850
DA:308,2850
DA:310,743
DA:316,203
DA:320,203
DA:321,203
DA:322,203
DA:324,203
DA:325,203
DA:326,203
DA:327,203
DA:328,203
DA:330,203
DA:331,203
DA:333,203
DA:334,203
DA:337,328
DA:338,328
DA:339,328
DA:340,328
DA:342,328
DA:343,328
DA:344,10
DA:347,328
DA:348,328
DA:349,328
DA:351,328
DA:352,328
DA:353,328
DA:355,328
DA:356,328
DA:358,41920
DA:359,41592
DA:360,41592
DA:361,41592
DA:364,328
DA:365,328
DA:366,328
DA:367,328
DA:368,328
DA:370,328
DA:371,328
DA:372,328
DA:373,328
DA:374,328
DA:375,13864
DA:376,13536
DA:378,328
DA:379,328
DA:381,0
DA:384,328
DA:385,328
DA:387,103
DA:390,103
DA:393,103
DA:396,103
DA:399,103
DA:402,103
DA:405,103
DA:408,103
DA:412,13265
DA:414,26200
DA:415,13160
DA:416,13160
DA:417,12935
DA:422,13160
DA:424,13040
DA:430,328
DA:433,0
DA:434,0
DA:435,0
DA:436,0
DA:437,0
DA:438,0
DA:440,0
DA:441,328
LF:270
LH:262
end_of_record
TN:
SF:/home/runner/work/fakelua/fakelua/src/var/var_table.h
FNF:0
FNH:0
DA:14,61
DA:45,265
DA:46,265
DA:50,112
DA:51,112
DA:55,112
DA:56,112
DA:60,112
DA:61,112
LF:9
LH:9
end_of_record
TN:
SF:/home/runner/work/fakelua/fakelua/src/var/var_type.h
FN:21,40,_ZN7fakelua15VarTypeToStringB5cxx11ENS_7VarTypeE
FNDA:268,_ZN7fakelua15VarTypeToStringB5cxx11ENS_7VarTypeE
FNF:1
FNH:1
DA:21,289
DA:22,268
DA:23,18
DA:24,18
DA:25,23
DA:26,23
DA:27,105
DA:28,105
DA:29,43
DA:30,43
DA:31,91
DA:32,91
DA:33,3
DA:34,3
DA:35,3
DA:36,3
DA:37,3
DA:38,3
LF:18
LH:18
end_of_record
