TN:
SF:/home/runner/work/fakelua/fakelua/build_cov/_deps/googletest-src/googletest/include/gtest/gtest-assertion-result.h
FN:198,201,_ZN7testing15AssertionResultlsIA100_cEERS0_RKT_
FN:198,201,_ZN7testing15AssertionResultlsIA106_cEERS0_RKT_
FN:198,201,_ZN7testing15AssertionResultlsIA11_cEERS0_RKT_
FN:198,201,_ZN7testing15AssertionResultlsIA12_cEERS0_RKT_
FN:198,201,_ZN7testing15AssertionResultlsIA13_cEERS0_RKT_
FN:198,201,_ZN7testing15AssertionResultlsIA14_cEERS0_RKT_
FN:198,201,_ZN7testing15AssertionResultlsIA15_cEERS0_RKT_
FN:198,201,_ZN7testing15AssertionResultlsIA16_cEERS0_RKT_
FN:198,201,_ZN7testing15AssertionResultlsIA17_cEERS0_RKT_
FN:198,201,_ZN7testing15AssertionResultlsIA24_cEERS0_RKT_
FN:198,201,_ZN7testing15AssertionResultlsIA27_cEERS0_RKT_
FN:198,201,_ZN7testing15AssertionResultlsIA29_cEERS0_RKT_
FN:198,201,_ZN7testing15AssertionResultlsIA2_cEERS0_RKT_
FN:198,201,_ZN7testing15AssertionResultlsIA3_cEERS0_RKT_
FN:198,201,_ZN7testing15AssertionResultlsIA5_cEERS0_RKT_
FN:198,201,_ZN7testing15AssertionResultlsIA6_cEERS0_RKT_
FN:198,201,_ZN7testing15AssertionResultlsIA7_cEERS0_RKT_
FN:198,201,_ZN7testing15AssertionResultlsIA9_cEERS0_RKT_
FN:198,201,_ZN7testing15AssertionResultlsINS_14TestPartResultEEERS0_RKT_
FN:198,201,_ZN7testing15AssertionResultlsINS_7MessageEEERS0_RKT_
FN:198,201,_ZN7testing15AssertionResultlsINSt7__cxx1112basic_stringIcSt11char_traitsIcESaIcEEEEERS0_RKT_
FN:198,201,_ZN7testing15AssertionResultlsINSt7__cxx1112basic_stringIwSt11char_traitsIwESaIwEEEEERS0_RKT_
FN:198,201,_ZN7testing15AssertionResultlsIPKcEERS0_RKT_
FN:198,201,_ZN7testing15AssertionResultlsIPKwEERS0_RKT_
FN:198,201,_ZN7testing15AssertionResultlsIdEERS0_RKT_
FN:213,216,_ZN7testing15AssertionResult13AppendMessageERKNS_7MessageE
FNDA:0,_ZN7testing15AssertionResultlsIA100_cEERS0_RKT_
FNDA:0,_ZN7testing15AssertionResultlsIA106_cEERS0_RKT_
FNDA:0,_ZN7testing15AssertionResultlsIA11_cEERS0_RKT_
FNDA:0,_ZN7testing15AssertionResultlsIA12_cEERS0_RKT_
FNDA:0,_ZN7testing15AssertionResultlsIA13_cEERS0_RKT_
FNDA:0,_ZN7testing15AssertionResultlsIA14_cEERS0_RKT_
FNDA:0,_ZN7testing15AssertionResultlsIA15_cEERS0_RKT_
FNDA:0,_ZN7testing15AssertionResultlsIA16_cEERS0_RKT_
FNDA:0,_ZN7testing15AssertionResultlsIA17_cEERS0_RKT_
FNDA:0,_ZN7testing15AssertionResultlsIA24_cEERS0_RKT_
FNDA:0,_ZN7testing15AssertionResultlsIA27_cEERS0_RKT_
FNDA:0,_ZN7testing15AssertionResultlsIA29_cEERS0_RKT_
FNDA:0,_ZN7testing15AssertionResultlsIA2_cEERS0_RKT_
FNDA:0,_ZN7testing15AssertionResultlsIA3_cEERS0_RKT_
FNDA:0,_ZN7testing15AssertionResultlsIA5_cEERS0_RKT_
FNDA:0,_ZN7testing15AssertionResultlsIA6_cEERS0_RKT_
FNDA:0,_ZN7testing15AssertionResultlsIA7_cEERS0_RKT_
FNDA:0,_ZN7testing15AssertionResultlsIA9_cEERS0_RKT_
FNDA:0,_ZN7testing15AssertionResultlsINS_14TestPartResultEEERS0_RKT_
FNDA:0,_ZN7testing15AssertionResultlsINS_7MessageEEERS0_RKT_
FNDA:0,_ZN7testing15AssertionResultlsINSt7__cxx1112basic_stringIcSt11char_traitsIcESaIcEEEEERS0_RKT_
FNDA:0,_ZN7testing15AssertionResultlsINSt7__cxx1112basic_stringIwSt11char_traitsIwESaIwEEEEERS0_RKT_
FNDA:0,_ZN7testing15AssertionResultlsIPKcEERS0_RKT_
FNDA:0,_ZN7testing15AssertionResultlsIPKwEERS0_RKT_
FNDA:0,_ZN7testing15AssertionResultlsIdEERS0_RKT_
FNDA:0,_ZN7testing15AssertionResult13AppendMessageERKNS_7MessageE
FNF:26
FNH:0
DA:140,15047
DA:162,21780
DA:168,935
DA:181,14473
DA:190,0
DA:191,0
DA:194,0
DA:198,0
DA:199,0
DA:200,0
DA:213,0
DA:214,0
DA:215,0
DA:216,0
LF:14
LH:4
end_of_record
TN:
SF:/home/runner/work/fakelua/fakelua/build_cov/_deps/googletest-src/googletest/include/gtest/gtest-matchers.h
FN:217,219,_ZN7testing8internal13SharedPayloadINS0_9EqMatcherINSt7__cxx1112basic_stringIcSt11char_traitsIcESaIcEEEEEE7DestroyEPNS0_17SharedPayloadBaseE
FN:232,235,_ZNK7testing8internal11MatcherBaseIRKNSt7__cxx1112basic_stringIcSt11char_traitsIcESaIcEEEE15MatchAndExplainES9_PNS_19MatchResultListenerE
FN:244,247,_ZNK7testing8internal11MatcherBaseINSt7__cxx1112basic_stringIcSt11char_traitsIcESaIcEEEE10DescribeToEPSo
FN:244,247,_ZNK7testing8internal11MatcherBaseIRKNSt7__cxx1112basic_stringIcSt11char_traitsIcESaIcEEEE10DescribeToEPSo
FN:244,247,_ZNK7testing8internal11MatcherBaseIRKSt17basic_string_viewIcSt11char_traitsIcEEE10DescribeToEPSo
FN:244,247,_ZNK7testing8internal11MatcherBaseISt17basic_string_viewIcSt11char_traitsIcEEE10DescribeToEPSo
FN:250,253,_ZNK7testing8internal11MatcherBaseINSt7__cxx1112basic_stringIcSt11char_traitsIcESaIcEEEE18DescribeNegationToEPSo
FN:250,253,_ZNK7testing8internal11MatcherBaseIRKNSt7__cxx1112basic_stringIcSt11char_traitsIcESaIcEEEE18DescribeNegationToEPSo
FN:250,253,_ZNK7testing8internal11MatcherBaseIRKSt17basic_string_viewIcSt11char_traitsIcEEE18DescribeNegationToEPSo
FN:250,253,_ZNK7testing8internal11MatcherBaseISt17basic_string_viewIcSt11char_traitsIcEEE18DescribeNegationToEPSo
FN:313,313,_ZN7testing8internal11MatcherBaseINSt7__cxx1112basic_stringIcSt11char_traitsIcESaIcEEEED0Ev
FN:313,313,_ZN7testing8internal11MatcherBaseINSt7__cxx1112basic_stringIcSt11char_traitsIcESaIcEEEED2Ev
FN:313,313,_ZN7testing8internal11MatcherBaseIRKNSt7__cxx1112basic_stringIcSt11char_traitsIcESaIcEEEED0Ev
FN:313,313,_ZN7testing8internal11MatcherBaseIRKNSt7__cxx1112basic_stringIcSt11char_traitsIcESaIcEEEED2Ev
FN:313,313,_ZN7testing8internal11MatcherBaseIRKSt17basic_string_viewIcSt11char_traitsIcEEED0Ev
FN:313,313,_ZN7testing8internal11MatcherBaseIRKSt17basic_string_viewIcSt11char_traitsIcEEED2Ev
FN:313,313,_ZN7testing8internal11MatcherBaseISt17basic_string_viewIcSt11char_traitsIcEEED0Ev
FN:313,313,_ZN7testing8internal11MatcherBaseISt17basic_string_viewIcSt11char_traitsIcEEED2Ev
FN:333,337,_ZN7testing8internal11MatcherBaseINSt7__cxx1112basic_stringIcSt11char_traitsIcESaIcEEEE19MatchAndExplainImplINS8_11ValuePolicyINS0_9EqMatcherIS7_EELb0EEEEEDTcldtclsrT_3Getfp_E15MatchAndExplainfp0_clptfp1_L_ZNS_19MatchResultListener6streamEvEEEERKS8_RKS7_PSF_
FN:333,337,_ZN7testing8internal11MatcherBaseIRKNSt7__cxx1112basic_stringIcSt11char_traitsIcESaIcEEEE19MatchAndExplainImplINSA_11ValuePolicyINS0_9EqMatcherIS7_EELb0EEEEEDTcldtclsrT_3Getfp_E15MatchAndExplainfp0_clptfp1_L_ZNS_19MatchResultListener6streamEvEEEERKSA_S9_PSH_
FN:333,337,_ZN7testing8internal11MatcherBaseIRKSt17basic_string_viewIcSt11char_traitsIcEEE19MatchAndExplainImplINS8_11ValuePolicyINS0_9EqMatcherINSt7__cxx1112basic_stringIcS4_SaIcEEEEELb0EEEEEDTcldtclsrT_3Getfp_E15MatchAndExplainfp0_clptfp1_L_ZNS_19MatchResultListener6streamEvEEEERKS8_S7_PSJ_
FN:333,337,_ZN7testing8internal11MatcherBaseISt17basic_string_viewIcSt11char_traitsIcEEE19MatchAndExplainImplINS6_11ValuePolicyINS0_9EqMatcherINSt7__cxx1112basic_stringIcS4_SaIcEEEEELb0EEEEEDTcldtclsrT_3Getfp_E15MatchAndExplainfp0_clptfp1_L_ZNS_19MatchResultListener6streamEvEEEERKS6_RKS5_PSH_
FN:347,354,_ZN7testing8internal11MatcherBaseINSt7__cxx1112basic_stringIcSt11char_traitsIcESaIcEEEE12DescribeImplINS8_11ValuePolicyINS0_9EqMatcherIS7_EELb0EEEEEvRKS8_PSob
FN:347,354,_ZN7testing8internal11MatcherBaseIRKNSt7__cxx1112basic_stringIcSt11char_traitsIcESaIcEEEE12DescribeImplINSA_11ValuePolicyINS0_9EqMatcherIS7_EELb0EEEEEvRKSA_PSob
FN:347,354,_ZN7testing8internal11MatcherBaseIRKSt17basic_string_viewIcSt11char_traitsIcEEE12DescribeImplINS8_11ValuePolicyINS0_9EqMatcherINSt7__cxx1112basic_stringIcS4_SaIcEEEEELb0EEEEEvRKS8_PSob
FN:347,354,_ZN7testing8internal11MatcherBaseISt17basic_string_viewIcSt11char_traitsIcEEE12DescribeImplINS6_11ValuePolicyINS0_9EqMatcherINSt7__cxx1112basic_stringIcS4_SaIcEEEEELb0EEEEEvRKS6_PSob
FN:357,370,_ZN7testing8internal11MatcherBaseINSt7__cxx1112basic_stringIcSt11char_traitsIcESaIcEEEE16GetDescriberImplINS8_11ValuePolicyINS0_9EqMatcherIS7_EELb0EEEEEPKNS_25MatcherDescriberInterfaceERKS8_
FN:357,370,_ZN7testing8internal11MatcherBaseIRKNSt7__cxx1112basic_stringIcSt11char_traitsIcESaIcEEEE16GetDescriberImplINSA_11ValuePolicyINS0_9EqMatcherIS7_EELb0EEEEEPKNS_25MatcherDescriberInterfaceERKSA_
FN:357,370,_ZN7testing8internal11MatcherBaseIRKSt17basic_string_viewIcSt11char_traitsIcEEE16GetDescriberImplINS8_11ValuePolicyINS0_9EqMatcherINSt7__cxx1112basic_stringIcS4_SaIcEEEEELb0EEEEEPKNS_25MatcherDescriberInterfaceERKS8_
FN:357,370,_ZN7testing8internal11MatcherBaseISt17basic_string_viewIcSt11char_traitsIcEEE16GetDescriberImplINS6_11ValuePolicyINS0_9EqMatcherINSt7__cxx1112basic_stringIcS4_SaIcEEEEELb0EEEEEPKNS_25MatcherDescriberInterfaceERKS6_
FN:389,393,_ZN7testing8internal11MatcherBaseINSt7__cxx1112basic_stringIcSt11char_traitsIcESaIcEEEE7DestroyEv
FN:389,393,_ZN7testing8internal11MatcherBaseIRKNSt7__cxx1112basic_stringIcSt11char_traitsIcESaIcEEEE7DestroyEv
FN:389,393,_ZN7testing8internal11MatcherBaseIRKSt17basic_string_viewIcSt11char_traitsIcEEE7DestroyEv
FN:389,393,_ZN7testing8internal11MatcherBaseISt17basic_string_viewIcSt11char_traitsIcEEE7DestroyEv
FN:424,426,_ZN7testing8internal11MatcherBaseINSt7__cxx1112basic_stringIcSt11char_traitsIcESaIcEEEE11ValuePolicyINS0_9EqMatcherIS7_EELb0EE4InitISB_EEvRS8_OT_
FN:424,426,_ZN7testing8internal11MatcherBaseIRKNSt7__cxx1112basic_stringIcSt11char_traitsIcESaIcEEEE11ValuePolicyINS0_9EqMatcherIS7_EELb0EE4InitISD_EEvRSA_OT_
FN:424,426,_ZN7testing8internal11MatcherBaseIRKSt17basic_string_viewIcSt11char_traitsIcEEE11ValuePolicyINS0_9EqMatcherINSt7__cxx1112basic_stringIcS4_SaIcEEEEELb0EE4InitISF_EEvRS8_OT_
FN:424,426,_ZN7testing8internal11MatcherBaseISt17basic_string_viewIcSt11char_traitsIcEEE11ValuePolicyINS0_9EqMatcherINSt7__cxx1112basic_stringIcS4_SaIcEEEEELb0EE4InitISD_EEvRS6_OT_
FN:702,705,_ZNK7testing8internal14ComparisonBaseINS0_9EqMatcherINSt7__cxx1112basic_stringIcSt11char_traitsIcESaIcEEEEES8_St8equal_toIvEE10DescribeToEPSo
FN:706,709,_ZNK7testing8internal14ComparisonBaseINS0_9EqMatcherINSt7__cxx1112basic_stringIcSt11char_traitsIcESaIcEEEEES8_St8equal_toIvEE18DescribeNegationToEPSo
FNDA:0,_ZN7testing8internal13SharedPayloadINS0_9EqMatcherINSt7__cxx1112basic_stringIcSt11char_traitsIcESaIcEEEEEE7DestroyEPNS0_17SharedPayloadBaseE
FNDA:0,_ZNK7testing8internal11MatcherBaseIRKNSt7__cxx1112basic_stringIcSt11char_traitsIcESaIcEEEE15MatchAndExplainES9_PNS_19MatchResultListenerE
FNDA:0,_ZNK7testing8internal11MatcherBaseINSt7__cxx1112basic_stringIcSt11char_traitsIcESaIcEEEE10DescribeToEPSo
FNDA:0,_ZNK7testing8internal11MatcherBaseIRKNSt7__cxx1112basic_stringIcSt11char_traitsIcESaIcEEEE10DescribeToEPSo
FNDA:0,_ZNK7testing8internal11MatcherBaseIRKSt17basic_string_viewIcSt11char_traitsIcEEE10DescribeToEPSo
FNDA:0,_ZNK7testing8internal11MatcherBaseISt17basic_string_viewIcSt11char_traitsIcEEE10DescribeToEPSo
FNDA:0,_ZNK7testing8internal11MatcherBaseINSt7__cxx1112basic_stringIcSt11char_traitsIcESaIcEEEE18DescribeNegationToEPSo
FNDA:0,_ZNK7testing8internal11MatcherBaseIRKNSt7__cxx1112basic_stringIcSt11char_traitsIcESaIcEEEE18DescribeNegationToEPSo
FNDA:0,_ZNK7testing8internal11MatcherBaseIRKSt17basic_string_viewIcSt11char_traitsIcEEE18DescribeNegationToEPSo
FNDA:0,_ZNK7testing8internal11MatcherBaseISt17basic_string_viewIcSt11char_traitsIcEEE18DescribeNegationToEPSo
FNDA:0,_ZN7testing8internal11MatcherBaseINSt7__cxx1112basic_stringIcSt11char_traitsIcESaIcEEEED0Ev
FNDA:0,_ZN7testing8internal11MatcherBaseINSt7__cxx1112basic_stringIcSt11char_traitsIcESaIcEEEED2Ev
FNDA:0,_ZN7testing8internal11MatcherBaseIRKNSt7__cxx1112basic_stringIcSt11char_traitsIcESaIcEEEED0Ev
FNDA:0,_ZN7testing8internal11MatcherBaseIRKNSt7__cxx1112basic_stringIcSt11char_traitsIcESaIcEEEED2Ev
FNDA:0,_ZN7testing8internal11MatcherBaseIRKSt17basic_string_viewIcSt11char_traitsIcEEED0Ev
FNDA:0,_ZN7testing8internal11MatcherBaseIRKSt17basic_string_viewIcSt11char_traitsIcEEED2Ev
FNDA:0,_ZN7testing8internal11MatcherBaseISt17basic_string_viewIcSt11char_traitsIcEEED0Ev
FNDA:0,_ZN7testing8internal11MatcherBaseISt17basic_string_viewIcSt11char_traitsIcEEED2Ev
FNDA:0,_ZN7testing8internal11MatcherBaseINSt7__cxx1112basic_stringIcSt11char_traitsIcESaIcEEEE19MatchAndExplainImplINS8_11ValuePolicyINS0_9EqMatcherIS7_EELb0EEEEEDTcldtclsrT_3Getfp_E15MatchAndExplainfp0_clptfp1_L_ZNS_19MatchResultListener6streamEvEEEERKS8_RKS7_PSF_
FNDA:0,_ZN7testing8internal11MatcherBaseIRKNSt7__cxx1112basic_stringIcSt11char_traitsIcESaIcEEEE19MatchAndExplainImplINSA_11ValuePolicyINS0_9EqMatcherIS7_EELb0EEEEEDTcldtclsrT_3Getfp_E15MatchAndExplainfp0_clptfp1_L_ZNS_19MatchResultListener6streamEvEEEERKSA_S9_PSH_
FNDA:0,_ZN7testing8internal11MatcherBaseIRKSt17basic_string_viewIcSt11char_traitsIcEEE19MatchAndExplainImplINS8_11ValuePolicyINS0_9EqMatcherINSt7__cxx1112basic_stringIcS4_SaIcEEEEELb0EEEEEDTcldtclsrT_3Getfp_E15MatchAndExplainfp0_clptfp1_L_ZNS_19MatchResultListener6streamEvEEEERKS8_S7_PSJ_
FNDA:0,_ZN7testing8internal11MatcherBaseISt17basic_string_viewIcSt11char_traitsIcEEE19MatchAndExplainImplINS6_11ValuePolicyINS0_9EqMatcherINSt7__cxx1112basic_stringIcS4_SaIcEEEEELb0EEEEEDTcldtclsrT_3Getfp_E15MatchAndExplainfp0_clptfp1_L_ZNS_19MatchResultListener6streamEvEEEERKS6_RKS5_PSH_
FNDA:0,_ZN7testing8internal11MatcherBaseINSt7__cxx1112basic_stringIcSt11char_traitsIcESaIcEEEE12DescribeImplINS8_11ValuePolicyINS0_9EqMatcherIS7_EELb0EEEEEvRKS8_PSob
FNDA:0,_ZN7testing8internal11MatcherBaseIRKNSt7__cxx1112basic_stringIcSt11char_traitsIcESaIcEEEE12DescribeImplINSA_11ValuePolicyINS0_9EqMatcherIS7_EELb0EEEEEvRKSA_PSob
FNDA:0,_ZN7testing8internal11MatcherBaseIRKSt17basic_string_viewIcSt11char_traitsIcEEE12DescribeImplINS8_11ValuePolicyINS0_9EqMatcherINSt7__cxx1112basic_stringIcS4_SaIcEEEEELb0EEEEEvRKS8_PSob
FNDA:0,_ZN7testing8internal11MatcherBaseISt17basic_string_viewIcSt11char_traitsIcEEE12DescribeImplINS6_11ValuePolicyINS0_9EqMatcherINSt7__cxx1112basic_stringIcS4_SaIcEEEEELb0EEEEEvRKS6_PSob
FNDA:0,_ZN7testing8internal11MatcherBaseINSt7__cxx1112basic_stringIcSt11char_traitsIcESaIcEEEE16GetDescriberImplINS8_11ValuePolicyINS0_9EqMatcherIS7_EELb0EEEEEPKNS_25MatcherDescriberInterfaceERKS8_
FNDA:0,_ZN7testing8internal11MatcherBaseIRKNSt7__cxx1112basic_stringIcSt11char_traitsIcESaIcEEEE16GetDescriberImplINSA_11ValuePolicyINS0_9EqMatcherIS7_EELb0EEEEEPKNS_25MatcherDescriberInterfaceERKSA_
FNDA:0,_ZN7testing8internal11MatcherBaseIRKSt17basic_string_viewIcSt11char_traitsIcEEE16GetDescriberImplINS8_11ValuePolicyINS0_9EqMatcherINSt7__cxx1112basic_stringIcS4_SaIcEEEEELb0EEEEEPKNS_25MatcherDescriberInterfaceERKS8_
FNDA:0,_ZN7testing8internal11MatcherBaseISt17basic_string_viewIcSt11char_traitsIcEEE16GetDescriberImplINS6_11ValuePolicyINS0_9EqMatcherINSt7__cxx1112basic_stringIcS4_SaIcEEEEELb0EEEEEPKNS_25MatcherDescriberInterfaceERKS6_
FNDA:0,_ZN7testing8internal11MatcherBaseINSt7__cxx1112basic_stringIcSt11char_traitsIcESaIcEEEE7DestroyEv
FNDA:0,_ZN7testing8internal11MatcherBaseIRKNSt7__cxx1112basic_stringIcSt11char_traitsIcESaIcEEEE7DestroyEv
FNDA:0,_ZN7testing8internal11MatcherBaseIRKSt17basic_string_viewIcSt11char_traitsIcEEE7DestroyEv
FNDA:0,_ZN7testing8internal11MatcherBaseISt17basic_string_viewIcSt11char_traitsIcEEE7DestroyEv
FNDA:0,_ZN7testing8internal11MatcherBaseINSt7__cxx1112basic_stringIcSt11char_traitsIcESaIcEEEE11ValuePolicyINS0_9EqMatcherIS7_EELb0EE4InitISB_EEvRS8_OT_
FNDA:0,_ZN7testing8internal11MatcherBaseIRKNSt7__cxx1112basic_stringIcSt11char_traitsIcESaIcEEEE11ValuePolicyINS0_9EqMatcherIS7_EELb0EE4InitISD_EEvRSA_OT_
FNDA:0,_ZN7testing8internal11MatcherBaseIRKSt17basic_string_viewIcSt11char_traitsIcEEE11ValuePolicyINS0_9EqMatcherINSt7__cxx1112basic_stringIcS4_SaIcEEEEELb0EE4InitISF_EEvRS8_OT_
FNDA:0,_ZN7testing8internal11MatcherBaseISt17basic_string_viewIcSt11char_traitsIcEEE11ValuePolicyINS0_9EqMatcherINSt7__cxx1112basic_stringIcS4_SaIcEEEEELb0EE4InitISD_EEvRS6_OT_
FNDA:0,_ZNK7testing8internal14ComparisonBaseINS0_9EqMatcherINSt7__cxx1112basic_stringIcSt11char_traitsIcESaIcEEEEES8_St8equal_toIvEE10DescribeToEPSo
FNDA:0,_ZNK7testing8internal14ComparisonBaseINS0_9EqMatcherINSt7__cxx1112basic_stringIcSt11char_traitsIcESaIcEEEEES8_St8equal_toIvEE18DescribeNegationToEPSo
FNF:40
FNH:0
DA:83,0
DA:95,0
DA:110,0
DA:114,0
DA:116,0
DA:183,0
DA:185,0
DA:206,0
DA:209,0
DA:213,0
DA:215,0
DA:217,0
DA:218,0
DA:219,0
DA:232,0
DA:233,0
DA:234,0
DA:238,0
DA:239,0
DA:240,0
DA:241,0
DA:244,0
DA:245,0
DA:246,0
DA:247,0
DA:250,0
DA:251,0
DA:252,0
DA:253,0
DA:270,0
DA:281,0
DA:282,0
DA:299,0
DA:300,0
DA:301,0
DA:304,0
DA:305,0
DA:306,0
DA:307,0
DA:308,0
DA:309,0
DA:310,0
DA:313,0
DA:327,0
DA:328,0
DA:333,0
DA:336,0
DA:347,0
DA:349,0
DA:350,0
DA:352,0
DA:354,0
DA:357,0
DA:369,0
DA:373,0
DA:389,0
DA:390,0
DA:391,0
DA:393,0
DA:420,0
DA:421,0
DA:424,0
DA:425,0
DA:426,0
DA:445,0
DA:448,0
DA:449,0
DA:494,0
DA:504,0
DA:505,0
DA:516,0
DA:528,0
DA:529,0
DA:544,0
DA:554,0
DA:555,0
DA:570,0
DA:582,0
DA:583,0
DA:692,0
DA:694,0
DA:699,0
DA:700,0
DA:702,0
DA:703,0
DA:704,0
DA:705,0
DA:706,0
DA:707,0
DA:708,0
DA:709,0
DA:725,0
DA:727,0
DA:728,0
DA:729,0
DA:730,0
DA:862,0
DA:863,0
LF:98
LH:0
end_of_record
TN:
SF:/home/runner/work/fakelua/fakelua/build_cov/_deps/googletest-src/googletest/include/gtest/gtest-message.h
FN:112,114,_ZN7testing7MessageC2ERKS0_
FN:181,188,_ZN7testing7MessagelsIKcEERS0_RKPT_
FN:181,188,_ZN7testing7MessagelsIcEERS0_RKPT_
FN:231,233,_ZN7testinglsERSoRKNS_7MessageE
FN:242,244,_ZN7testing8internal18StreamableToStringIPcEENSt7__cxx1112basic_stringIcSt11char_traitsIcESaIcEEERKT_
FN:242,244,_ZN7testing8internal18StreamableToStringIPwEENSt7__cxx1112basic_stringIcSt11char_traitsIcESaIcEEERKT_
FN:242,244,_ZN7testing8internal18StreamableToStringIiEENSt7__cxx1112basic_stringIcSt11char_traitsIcESaIcEEERKT_
FN:242,244,_ZN7testing8internal18StreamableToStringIlEENSt7__cxx1112basic_stringIcSt11char_traitsIcESaIcEEERKT_
FNDA:0,_ZN7testing7MessageC2ERKS0_
FNDA:332,_ZN7testing7MessagelsIKcEERS0_RKPT_
FNDA:34,_ZN7testing7MessagelsIcEERS0_RKPT_
FNDA:0,_ZN7testinglsERSoRKNS_7MessageE
FNDA:34,_ZN7testing8internal18StreamableToStringIPcEENSt7__cxx1112basic_stringIcSt11char_traitsIcESaIcEEERKT_
FNDA:0,_ZN7testing8internal18StreamableToStringIPwEENSt7__cxx1112basic_stringIcSt11char_traitsIcESaIcEEERKT_
FNDA:170,_ZN7testing8internal18StreamableToStringIiEENSt7__cxx1112basic_stringIcSt11char_traitsIcESaIcEEERKT_
FNDA:1972,_ZN7testing8internal18StreamableToStringIlEENSt7__cxx1112basic_stringIcSt11char_traitsIcESaIcEEERKT_
FNF:8
FNH:5
DA:101,3444
DA:112,0
DA:113,0
DA:114,0
DA:132,6
DA:148,8692
DA:149,6212
DA:181,366
DA:182,366
DA:183,0
DA:185,366
DA:187,366
DA:231,0
DA:232,0
DA:242,2176
DA:243,6494
LF:16
LH:10
end_of_record
TN:
SF:/home/runner/work/fakelua/fakelua/build_cov/_deps/googletest-src/googletest/include/gtest/gtest-printers.h
FN:1092,1098,_ZN7testing8internal21UniversalTersePrinterIPKcE5PrintES3_PSo
FN:1155,1161,_ZN7testing8internal21UniversalTersePrinterIPKwE5PrintES3_PSo
FN:1223,1227,_ZN7testing13PrintToStringIDnEENSt7__cxx1112basic_stringIcSt11char_traitsIcESaIcEEERKT_
FN:1223,1227,_ZN7testing13PrintToStringIN7fakelua12VarInterface4TypeEEENSt7__cxx1112basic_stringIcSt11char_traitsIcESaIcEEERKT_
FN:1223,1227,_ZN7testing13PrintToStringIN7fakelua3VarEEENSt7__cxx1112basic_stringIcSt11char_traitsIcESaIcEEERKT_
FN:1223,1227,_ZN7testing13PrintToStringIN7fakelua7VarTypeEEENSt7__cxx1112basic_stringIcSt11char_traitsIcESaIcEEERKT_
FN:1223,1227,_ZN7testing13PrintToStringINSt7__cxx1112basic_stringIcSt11char_traitsIcESaIcEEEEES6_RKT_
FN:1223,1227,_ZN7testing13PrintToStringIP9lua_StateEENSt7__cxx1112basic_stringIcSt11char_traitsIcESaIcEEERKT_
FN:1223,1227,_ZN7testing13PrintToStringIPKcEENSt7__cxx1112basic_stringIcSt11char_traitsIcESaIcEEERKT_
FN:1223,1227,_ZN7testing13PrintToStringIPKvEENSt7__cxx1112basic_stringIcSt11char_traitsIcESaIcEEERKT_
FN:1223,1227,_ZN7testing13PrintToStringIPKwEENSt7__cxx1112basic_stringIcSt11char_traitsIcESaIcEEERKT_
FN:1223,1227,_ZN7testing13PrintToStringIPN7fakelua12VarInterfaceEEENSt7__cxx1112basic_stringIcSt11char_traitsIcESaIcEEERKT_
FN:1223,1227,_ZN7testing13PrintToStringIPN7fakelua5StateEEENSt7__cxx1112basic_stringIcSt11char_traitsIcESaIcEEERKT_
FN:1223,1227,_ZN7testing13PrintToStringIPvEENSt7__cxx1112basic_stringIcSt11char_traitsIcESaIcEEERKT_
FN:1223,1227,_ZN7testing13PrintToStringISt10shared_ptrIN7fakelua19SyntaxTreeInterfaceEEEENSt7__cxx1112basic_stringIcSt11char_traitsIcESaIcEEERKT_
FN:1223,1227,_ZN7testing13PrintToStringISt17basic_string_viewIcSt11char_traitsIcEEEENSt7__cxx1112basic_stringIcS3_SaIcEEERKT_
FN:1223,1227,_ZN7testing13PrintToStringIbEENSt7__cxx1112basic_stringIcSt11char_traitsIcESaIcEEERKT_
FN:1223,1227,_ZN7testing13PrintToStringIcEENSt7__cxx1112basic_stringIcSt11char_traitsIcESaIcEEERKT_
FN:1223,1227,_ZN7testing13PrintToStringIdEENSt7__cxx1112basic_stringIcSt11char_traitsIcESaIcEEERKT_
FN:1223,1227,_ZN7testing13PrintToStringIfEENSt7__cxx1112basic_stringIcSt11char_traitsIcESaIcEEERKT_
FN:1223,1227,_ZN7testing13PrintToStringIhEENSt7__cxx1112basic_stringIcSt11char_traitsIcESaIcEEERKT_
FN:1223,1227,_ZN7testing13PrintToStringIiEENSt7__cxx1112basic_stringIcSt11char_traitsIcESaIcEEERKT_
FN:1223,1227,_ZN7testing13PrintToStringIjEENSt7__cxx1112basic_stringIcSt11char_traitsIcESaIcEEERKT_
FN:1223,1227,_ZN7testing13PrintToStringIlEENSt7__cxx1112basic_stringIcSt11char_traitsIcESaIcEEERKT_
FN:1223,1227,_ZN7testing13PrintToStringImEENSt7__cxx1112basic_stringIcSt11char_traitsIcESaIcEEERKT_
FN:1223,1227,_ZN7testing13PrintToStringIsEENSt7__cxx1112basic_stringIcSt11char_traitsIcESaIcEEERKT_
FN:1223,1227,_ZN7testing13PrintToStringItEENSt7__cxx1112basic_stringIcSt11char_traitsIcESaIcEEERKT_
FN:1223,1227,_ZN7testing13PrintToStringIxEENSt7__cxx1112basic_stringIcSt11char_traitsIcESaIcEEERKT_
FN:1223,1227,_ZN7testing13PrintToStringIyEENSt7__cxx1112basic_stringIcSt11char_traitsIcESaIcEEERKT_
FN:217,226,_ZN7testing8internal14PointerPrinter10PrintValueI9lua_StateEEvPT_PSo
FN:217,226,_ZN7testing8internal14PointerPrinter10PrintValueIKvEEvPT_PSo
FN:217,226,_ZN7testing8internal14PointerPrinter10PrintValueIN7fakelua12VarInterfaceEEEvPT_PSo
FN:217,226,_ZN7testing8internal14PointerPrinter10PrintValueIN7fakelua5StateEEEvPT_PSo
FN:217,226,_ZN7testing8internal14PointerPrinter10PrintValueIvEEvPT_PSo
FN:555,617,_ZN7testing8internal21AppropriateResolutionIdEEiT_
FN:555,617,_ZN7testing8internal21AppropriateResolutionIfEEiT_
FN:619,624,_ZN7testing8internal7PrintToEfPSo
FN:626,631,_ZN7testing8internal7PrintToEdPSo
FN:734,736,_ZN7testing8internal7PrintToESt17basic_string_viewIcSt11char_traitsIcEEPSo
FN:769,777,_ZN7testing8internal17PrintSmartPointerIN7fakelua19SyntaxTreeInterfaceESt10shared_ptrIS3_EvEEvRKT0_PSoi
FNDA:0,_ZN7testing8internal21UniversalTersePrinterIPKcE5PrintES3_PSo
FNDA:0,_ZN7testing8internal21UniversalTersePrinterIPKwE5PrintES3_PSo
FNDA:0,_ZN7testing13PrintToStringIDnEENSt7__cxx1112basic_stringIcSt11char_traitsIcESaIcEEERKT_
FNDA:0,_ZN7testing13PrintToStringIN7fakelua12VarInterface4TypeEEENSt7__cxx1112basic_stringIcSt11char_traitsIcESaIcEEERKT_
FNDA:0,_ZN7testing13PrintToStringIN7fakelua3VarEEENSt7__cxx1112basic_stringIcSt11char_traitsIcESaIcEEERKT_
FNDA:0,_ZN7testing13PrintToStringIN7fakelua7VarTypeEEENSt7__cxx1112basic_stringIcSt11char_traitsIcESaIcEEERKT_
FNDA:0,_ZN7testing13PrintToStringINSt7__cxx1112basic_stringIcSt11char_traitsIcESaIcEEEEES6_RKT_
FNDA:0,_ZN7testing13PrintToStringIP9lua_StateEENSt7__cxx1112basic_stringIcSt11char_traitsIcESaIcEEERKT_
FNDA:0,_ZN7testing13PrintToStringIPKcEENSt7__cxx1112basic_stringIcSt11char_traitsIcESaIcEEERKT_
FNDA:0,_ZN7testing13PrintToStringIPKvEENSt7__cxx1112basic_stringIcSt11char_traitsIcESaIcEEERKT_
FNDA:0,_ZN7testing13PrintToStringIPKwEENSt7__cxx1112basic_stringIcSt11char_traitsIcESaIcEEERKT_
FNDA:0,_ZN7testing13PrintToStringIPN7fakelua12VarInterfaceEEENSt7__cxx1112basic_stringIcSt11char_traitsIcESaIcEEERKT_
FNDA:0,_ZN7testing13PrintToStringIPN7fakelua5StateEEENSt7__cxx1112basic_stringIcSt11char_traitsIcESaIcEEERKT_
FNDA:0,_ZN7testing13PrintToStringIPvEENSt7__cxx1112basic_stringIcSt11char_traitsIcESaIcEEERKT_
FNDA:0,_ZN7testing13PrintToStringISt10shared_ptrIN7fakelua19SyntaxTreeInterfaceEEEENSt7__cxx1112basic_stringIcSt11char_traitsIcESaIcEEERKT_
FNDA:0,_ZN7testing13PrintToStringISt17basic_string_viewIcSt11char_traitsIcEEEENSt7__cxx1112basic_stringIcS3_SaIcEEERKT_
FNDA:0,_ZN7testing13PrintToStringIbEENSt7__cxx1112basic_stringIcSt11char_traitsIcESaIcEEERKT_
FNDA:0,_ZN7testing13PrintToStringIcEENSt7__cxx1112basic_stringIcSt11char_traitsIcESaIcEEERKT_
FNDA:0,_ZN7testing13PrintToStringIdEENSt7__cxx1112basic_stringIcSt11char_traitsIcESaIcEEERKT_
FNDA:0,_ZN7testing13PrintToStringIfEENSt7__cxx1112basic_stringIcSt11char_traitsIcESaIcEEERKT_
FNDA:0,_ZN7testing13PrintToStringIhEENSt7__cxx1112basic_stringIcSt11char_traitsIcESaIcEEERKT_
FNDA:0,_ZN7testing13PrintToStringIiEENSt7__cxx1112basic_stringIcSt11char_traitsIcESaIcEEERKT_
FNDA:0,_ZN7testing13PrintToStringIjEENSt7__cxx1112basic_stringIcSt11char_traitsIcESaIcEEERKT_
FNDA:0,_ZN7testing13PrintToStringIlEENSt7__cxx1112basic_stringIcSt11char_traitsIcESaIcEEERKT_
FNDA:0,_ZN7testing13PrintToStringImEENSt7__cxx1112basic_stringIcSt11char_traitsIcESaIcEEERKT_
FNDA:0,_ZN7testing13PrintToStringIsEENSt7__cxx1112basic_stringIcSt11char_traitsIcESaIcEEERKT_
FNDA:0,_ZN7testing13PrintToStringItEENSt7__cxx1112basic_stringIcSt11char_traitsIcESaIcEEERKT_
FNDA:0,_ZN7testing13PrintToStringIxEENSt7__cxx1112basic_stringIcSt11char_traitsIcESaIcEEERKT_
FNDA:0,_ZN7testing13PrintToStringIyEENSt7__cxx1112basic_stringIcSt11char_traitsIcESaIcEEERKT_
FNDA:0,_ZN7testing8internal14PointerPrinter10PrintValueI9lua_StateEEvPT_PSo
FNDA:0,_ZN7testing8internal14PointerPrinter10PrintValueIKvEEvPT_PSo
FNDA:0,_ZN7testing8internal14PointerPrinter10PrintValueIN7fakelua12VarInterfaceEEEvPT_PSo
FNDA:0,_ZN7testing8internal14PointerPrinter10PrintValueIN7fakelua5StateEEEvPT_PSo
FNDA:0,_ZN7testing8internal14PointerPrinter10PrintValueIvEEvPT_PSo
FNDA:0,_ZN7testing8internal21AppropriateResolutionIdEEiT_
FNDA:0,_ZN7testing8internal21AppropriateResolutionIfEEiT_
FNDA:0,_ZN7testing8internal7PrintToEfPSo
FNDA:0,_ZN7testing8internal7PrintToEdPSo
FNDA:0,_ZN7testing8internal7PrintToESt17basic_string_viewIcSt11char_traitsIcEEPSo
FNDA:0,_ZN7testing8internal17PrintSmartPointerIN7fakelua19SyntaxTreeInterfaceESt10shared_ptrIS3_EvEEvRKT0_PSoi
FNF:40
FNH:0
DA:217,0
DA:218,0
DA:219,0
DA:224,0
DA:226,0
DA:248,0
DA:252,0
DA:315,0
DA:316,0
DA:352,0
DA:362,0
DA:383,0
DA:384,0
DA:392,0
DA:393,0
DA:410,0
DA:437,0
DA:463,0
DA:465,0
DA:490,0
DA:491,0
DA:501,0
DA:505,0
DA:509,0
DA:510,0
DA:555,0
DA:556,0
DA:557,0
DA:563,0
DA:564,0
DA:568,0
DA:570,0
DA:572,0
DA:574,0
DA:576,0
DA:578,0
DA:580,0
DA:582,0
DA:584,0
DA:586,0
DA:587,0
DA:589,0
DA:590,0
DA:593,0
DA:594,0
DA:595,0
DA:596,0
DA:598,0
DA:601,0
DA:605,0
DA:607,0
DA:608,0
DA:611,0
DA:619,0
DA:620,0
DA:621,0
DA:622,0
DA:623,0
DA:624,0
DA:626,0
DA:627,0
DA:628,0
DA:629,0
DA:630,0
DA:631,0
DA:700,0
DA:701,0
DA:702,0
DA:727,0
DA:728,0
DA:734,0
DA:735,0
DA:736,0
DA:739,0
DA:769,0
DA:770,0
DA:771,0
DA:773,0
DA:774,0
DA:775,0
DA:777,0
DA:785,0
DA:786,0
DA:874,0
DA:883,0
DA:1064,0
DA:1065,0
DA:1066,0
DA:1092,0
DA:1093,0
DA:1094,0
DA:1096,0
DA:1098,0
DA:1155,0
DA:1156,0
DA:1157,0
DA:1159,0
DA:1161,0
DA:1183,0
DA:1187,0
DA:1188,0
DA:1223,0
DA:1224,0
DA:1225,0
DA:1226,0
DA:1227,0
LF:106
LH:0
end_of_record
TN:
SF:/home/runner/work/fakelua/fakelua/build_cov/_deps/googletest-src/googletest/include/gtest/gtest-test-part.h
FN:68,74,_ZN7testing14TestPartResultC2ENS0_4TypeEPKciS3_
FNDA:6,_ZN7testing14TestPartResultC2ENS0_4TypeEPKciS3_
FNF:1
FNH:1
DA:68,6
DA:70,6
DA:71,12
DA:72,6
DA:73,6
DA:74,6
DA:77,12
DA:81,6
DA:82,6
DA:87,6
DA:90,0
DA:93,6
DA:96,0
DA:102,0
DA:105,0
DA:108,72
DA:155,0
DA:157,14
LF:18
LH:13
end_of_record
TN:
SF:/home/runner/work/fakelua/fakelua/build_cov/_deps/googletest-src/googletest/include/gtest/gtest.h
FN:1002,1002,_ZN7testing22EmptyTestEventListener15OnTestCaseStartERKNS_9TestSuiteE
FN:1005,1005,_ZN7testing22EmptyTestEventListener11OnTestStartERKNS_8TestInfoE
FN:1006,1006,_ZN7testing22EmptyTestEventListener14OnTestDisabledERKNS_8TestInfoE
FN:1007,1007,_ZN7testing22EmptyTestEventListener16OnTestPartResultERKNS_14TestPartResultE
FN:1008,1008,_ZN7testing22EmptyTestEventListener9OnTestEndERKNS_8TestInfoE
FN:1009,1009,_ZN7testing22EmptyTestEventListener14OnTestSuiteEndERKNS_9TestSuiteE
FN:1011,1011,_ZN7testing22EmptyTestEventListener13OnTestCaseEndERKNS_9TestSuiteE
FN:1014,1014,_ZN7testing22EmptyTestEventListener27OnEnvironmentsTearDownStartERKNS_8UnitTestE
FN:1015,1015,_ZN7testing22EmptyTestEventListener25OnEnvironmentsTearDownEndERKNS_8UnitTestE
FN:1016,1017,_ZN7testing22EmptyTestEventListener18OnTestIterationEndERKNS_8UnitTestEi
FN:1018,1018,_ZN7testing22EmptyTestEventListener16OnTestProgramEndERKNS_8UnitTestE
FN:1374,1380,_ZN7testing8internal18CmpHelperEQFailureIN7fakelua12VarInterface4TypeES4_EENS_15AssertionResultEPKcS7_RKT_RKT0_
FN:1374,1380,_ZN7testing8internal18CmpHelperEQFailureIN7fakelua3VarES3_EENS_15AssertionResultEPKcS6_RKT_RKT0_
FN:1374,1380,_ZN7testing8internal18CmpHelperEQFailureIN7fakelua7VarTypeES3_EENS_15AssertionResultEPKcS6_RKT_RKT0_
FN:1374,1380,_ZN7testing8internal18CmpHelperEQFailureINSt7__cxx1112basic_stringIcSt11char_traitsIcESaIcEEEA10_cEENS_15AssertionResultEPKcSB_RKT_RKT0_
FN:1374,1380,_ZN7testing8internal18CmpHelperEQFailureINSt7__cxx1112basic_stringIcSt11char_traitsIcESaIcEEEA111_cEENS_15AssertionResultEPKcSB_RKT_RKT0_
FN:1374,1380,_ZN7testing8internal18CmpHelperEQFailureINSt7__cxx1112basic_stringIcSt11char_traitsIcESaIcEEEA114_cEENS_15AssertionResultEPKcSB_RKT_RKT0_
FN:1374,1380,_ZN7testing8internal18CmpHelperEQFailureINSt7__cxx1112basic_stringIcSt11char_traitsIcESaIcEEEA11_cEENS_15AssertionResultEPKcSB_RKT_RKT0_
FN:1374,1380,_ZN7testing8internal18CmpHelperEQFailureINSt7__cxx1112basic_stringIcSt11char_traitsIcESaIcEEEA13_cEENS_15AssertionResultEPKcSB_RKT_RKT0_
FN:1374,1380,_ZN7testing8internal18CmpHelperEQFailureINSt7__cxx1112basic_stringIcSt11char_traitsIcESaIcEEEA1_cEENS_15AssertionResultEPKcSB_RKT_RKT0_
FN:1374,1380,_ZN7testing8internal18CmpHelperEQFailureINSt7__cxx1112basic_stringIcSt11char_traitsIcESaIcEEEA20_cEENS_15AssertionResultEPKcSB_RKT_RKT0_
FN:1374,1380,_ZN7testing8internal18CmpHelperEQFailureINSt7__cxx1112basic_stringIcSt11char_traitsIcESaIcEEEA22_cEENS_15AssertionResultEPKcSB_RKT_RKT0_
FN:1374,1380,_ZN7testing8internal18CmpHelperEQFailureINSt7__cxx1112basic_stringIcSt11char_traitsIcESaIcEEEA2_cEENS_15AssertionResultEPKcSB_RKT_RKT0_
FN:1374,1380,_ZN7testing8internal18CmpHelperEQFailureINSt7__cxx1112basic_stringIcSt11char_traitsIcESaIcEEEA3_cEENS_15AssertionResultEPKcSB_RKT_RKT0_
FN:1374,1380,_ZN7testing8internal18CmpHelperEQFailureINSt7__cxx1112basic_stringIcSt11char_traitsIcESaIcEEEA40_cEENS_15AssertionResultEPKcSB_RKT_RKT0_
FN:1374,1380,_ZN7testing8internal18CmpHelperEQFailureINSt7__cxx1112basic_stringIcSt11char_traitsIcESaIcEEEA4_cEENS_15AssertionResultEPKcSB_RKT_RKT0_
FN:1374,1380,_ZN7testing8internal18CmpHelperEQFailureINSt7__cxx1112basic_stringIcSt11char_traitsIcESaIcEEEA56_cEENS_15AssertionResultEPKcSB_RKT_RKT0_
FN:1374,1380,_ZN7testing8internal18CmpHelperEQFailureINSt7__cxx1112basic_stringIcSt11char_traitsIcESaIcEEEA5_cEENS_15AssertionResultEPKcSB_RKT_RKT0_
FN:1374,1380,_ZN7testing8internal18CmpHelperEQFailureINSt7__cxx1112basic_stringIcSt11char_traitsIcESaIcEEEA6_cEENS_15AssertionResultEPKcSB_RKT_RKT0_
FN:1374,1380,_ZN7testing8internal18CmpHelperEQFailureINSt7__cxx1112basic_stringIcSt11char_traitsIcESaIcEEEA7_cEENS_15AssertionResultEPKcSB_RKT_RKT0_
FN:1374,1380,_ZN7testing8internal18CmpHelperEQFailureINSt7__cxx1112basic_stringIcSt11char_traitsIcESaIcEEEA8_cEENS_15AssertionResultEPKcSB_RKT_RKT0_
FN:1374,1380,_ZN7testing8internal18CmpHelperEQFailureINSt7__cxx1112basic_stringIcSt11char_traitsIcESaIcEEEA99_cEENS_15AssertionResultEPKcSB_RKT_RKT0_
FN:1374,1380,_ZN7testing8internal18CmpHelperEQFailureINSt7__cxx1112basic_stringIcSt11char_traitsIcESaIcEEEA9_cEENS_15AssertionResultEPKcSB_RKT_RKT0_
FN:1374,1380,_ZN7testing8internal18CmpHelperEQFailureINSt7__cxx1112basic_stringIcSt11char_traitsIcESaIcEEEPKcEENS_15AssertionResultES9_S9_RKT_RKT0_
FN:1374,1380,_ZN7testing8internal18CmpHelperEQFailureINSt7__cxx1112basic_stringIcSt11char_traitsIcESaIcEEES7_EENS_15AssertionResultEPKcSA_RKT_RKT0_
FN:1374,1380,_ZN7testing8internal18CmpHelperEQFailureISt17basic_string_viewIcSt11char_traitsIcEEA10_cEENS_15AssertionResultEPKcS9_RKT_RKT0_
FN:1374,1380,_ZN7testing8internal18CmpHelperEQFailureISt17basic_string_viewIcSt11char_traitsIcEEA12_cEENS_15AssertionResultEPKcS9_RKT_RKT0_
FN:1374,1380,_ZN7testing8internal18CmpHelperEQFailureISt17basic_string_viewIcSt11char_traitsIcEEA13_cEENS_15AssertionResultEPKcS9_RKT_RKT0_
FN:1374,1380,_ZN7testing8internal18CmpHelperEQFailureISt17basic_string_viewIcSt11char_traitsIcEEA5_cEENS_15AssertionResultEPKcS9_RKT_RKT0_
FN:1374,1380,_ZN7testing8internal18CmpHelperEQFailureISt17basic_string_viewIcSt11char_traitsIcEEA6_cEENS_15AssertionResultEPKcS9_RKT_RKT0_
FN:1374,1380,_ZN7testing8internal18CmpHelperEQFailureISt17basic_string_viewIcSt11char_traitsIcEENSt7__cxx1112basic_stringIcS4_SaIcEEEEENS_15AssertionResultEPKcSC_RKT_RKT0_
FN:1374,1380,_ZN7testing8internal18CmpHelperEQFailureIbbEENS_15AssertionResultEPKcS4_RKT_RKT0_
FN:1374,1380,_ZN7testing8internal18CmpHelperEQFailureIciEENS_15AssertionResultEPKcS4_RKT_RKT0_
FN:1374,1380,_ZN7testing8internal18CmpHelperEQFailureIddEENS_15AssertionResultEPKcS4_RKT_RKT0_
FN:1374,1380,_ZN7testing8internal18CmpHelperEQFailureIdiEENS_15AssertionResultEPKcS4_RKT_RKT0_
FN:1374,1380,_ZN7testing8internal18CmpHelperEQFailureIfiEENS_15AssertionResultEPKcS4_RKT_RKT0_
FN:1374,1380,_ZN7testing8internal18CmpHelperEQFailureIhiEENS_15AssertionResultEPKcS4_RKT_RKT0_
FN:1374,1380,_ZN7testing8internal18CmpHelperEQFailureIiiEENS_15AssertionResultEPKcS4_RKT_RKT0_
FN:1374,1380,_ZN7testing8internal18CmpHelperEQFailureIjjEENS_15AssertionResultEPKcS4_RKT_RKT0_
FN:1374,1380,_ZN7testing8internal18CmpHelperEQFailureIliEENS_15AssertionResultEPKcS4_RKT_RKT0_
FN:1374,1380,_ZN7testing8internal18CmpHelperEQFailureIllEENS_15AssertionResultEPKcS4_RKT_RKT0_
FN:1374,1380,_ZN7testing8internal18CmpHelperEQFailureIlxEENS_15AssertionResultEPKcS4_RKT_RKT0_
FN:1374,1380,_ZN7testing8internal18CmpHelperEQFailureImiEENS_15AssertionResultEPKcS4_RKT_RKT0_
FN:1374,1380,_ZN7testing8internal18CmpHelperEQFailureImjEENS_15AssertionResultEPKcS4_RKT_RKT0_
FN:1374,1380,_ZN7testing8internal18CmpHelperEQFailureImmEENS_15AssertionResultEPKcS4_RKT_RKT0_
FN:1374,1380,_ZN7testing8internal18CmpHelperEQFailureIsiEENS_15AssertionResultEPKcS4_RKT_RKT0_
FN:1374,1380,_ZN7testing8internal18CmpHelperEQFailureItiEENS_15AssertionResultEPKcS4_RKT_RKT0_
FN:1374,1380,_ZN7testing8internal18CmpHelperEQFailureIxxEENS_15AssertionResultEPKcS4_RKT_RKT0_
FN:1374,1380,_ZN7testing8internal18CmpHelperEQFailureIyyEENS_15AssertionResultEPKcS4_RKT_RKT0_
FN:1391,1399,_ZN7testing8internal11CmpHelperEQIN7fakelua12VarInterface4TypeES4_EENS_15AssertionResultEPKcS7_RKT_RKT0_
FN:1391,1399,_ZN7testing8internal11CmpHelperEQIN7fakelua3VarES3_EENS_15AssertionResultEPKcS6_RKT_RKT0_
FN:1391,1399,_ZN7testing8internal11CmpHelperEQIN7fakelua7VarTypeES3_EENS_15AssertionResultEPKcS6_RKT_RKT0_
FN:1391,1399,_ZN7testing8internal11CmpHelperEQINSt7__cxx1112basic_stringIcSt11char_traitsIcESaIcEEEA10_cEENS_15AssertionResultEPKcSB_RKT_RKT0_
FN:1391,1399,_ZN7testing8internal11CmpHelperEQINSt7__cxx1112basic_stringIcSt11char_traitsIcESaIcEEEA111_cEENS_15AssertionResultEPKcSB_RKT_RKT0_
FN:1391,1399,_ZN7testing8internal11CmpHelperEQINSt7__cxx1112basic_stringIcSt11char_traitsIcESaIcEEEA114_cEENS_15AssertionResultEPKcSB_RKT_RKT0_
FN:1391,1399,_ZN7testing8internal11CmpHelperEQINSt7__cxx1112basic_stringIcSt11char_traitsIcESaIcEEEA11_cEENS_15AssertionResultEPKcSB_RKT_RKT0_
FN:1391,1399,_ZN7testing8internal11CmpHelperEQINSt7__cxx1112basic_stringIcSt11char_traitsIcESaIcEEEA13_cEENS_15AssertionResultEPKcSB_RKT_RKT0_
FN:1391,1399,_ZN7testing8internal11CmpHelperEQINSt7__cxx1112basic_stringIcSt11char_traitsIcESaIcEEEA1_cEENS_15AssertionResultEPKcSB_RKT_RKT0_
FN:1391,1399,_ZN7testing8internal11CmpHelperEQINSt7__cxx1112basic_stringIcSt11char_traitsIcESaIcEEEA20_cEENS_15AssertionResultEPKcSB_RKT_RKT0_
FN:1391,1399,_ZN7testing8internal11CmpHelperEQINSt7__cxx1112basic_stringIcSt11char_traitsIcESaIcEEEA22_cEENS_15AssertionResultEPKcSB_RKT_RKT0_
FN:1391,1399,_ZN7testing8internal11CmpHelperEQINSt7__cxx1112basic_stringIcSt11char_traitsIcESaIcEEEA2_cEENS_15AssertionResultEPKcSB_RKT_RKT0_
FN:1391,1399,_ZN7testing8internal11CmpHelperEQINSt7__cxx1112basic_stringIcSt11char_traitsIcESaIcEEEA3_cEENS_15AssertionResultEPKcSB_RKT_RKT0_
FN:1391,1399,_ZN7testing8internal11CmpHelperEQINSt7__cxx1112basic_stringIcSt11char_traitsIcESaIcEEEA40_cEENS_15AssertionResultEPKcSB_RKT_RKT0_
FN:1391,1399,_ZN7testing8internal11CmpHelperEQINSt7__cxx1112basic_stringIcSt11char_traitsIcESaIcEEEA4_cEENS_15AssertionResultEPKcSB_RKT_RKT0_
FN:1391,1399,_ZN7testing8internal11CmpHelperEQINSt7__cxx1112basic_stringIcSt11char_traitsIcESaIcEEEA56_cEENS_15AssertionResultEPKcSB_RKT_RKT0_
FN:1391,1399,_ZN7testing8internal11CmpHelperEQINSt7__cxx1112basic_stringIcSt11char_traitsIcESaIcEEEA5_cEENS_15AssertionResultEPKcSB_RKT_RKT0_
FN:1391,1399,_ZN7testing8internal11CmpHelperEQINSt7__cxx1112basic_stringIcSt11char_traitsIcESaIcEEEA6_cEENS_15AssertionResultEPKcSB_RKT_RKT0_
FN:1391,1399,_ZN7testing8internal11CmpHelperEQINSt7__cxx1112basic_stringIcSt11char_traitsIcESaIcEEEA7_cEENS_15AssertionResultEPKcSB_RKT_RKT0_
FN:1391,1399,_ZN7testing8internal11CmpHelperEQINSt7__cxx1112basic_stringIcSt11char_traitsIcESaIcEEEA8_cEENS_15AssertionResultEPKcSB_RKT_RKT0_
FN:1391,1399,_ZN7testing8internal11CmpHelperEQINSt7__cxx1112basic_stringIcSt11char_traitsIcESaIcEEEA99_cEENS_15AssertionResultEPKcSB_RKT_RKT0_
FN:1391,1399,_ZN7testing8internal11CmpHelperEQINSt7__cxx1112basic_stringIcSt11char_traitsIcESaIcEEEA9_cEENS_15AssertionResultEPKcSB_RKT_RKT0_
FN:1391,1399,_ZN7testing8internal11CmpHelperEQINSt7__cxx1112basic_stringIcSt11char_traitsIcESaIcEEEPKcEENS_15AssertionResultES9_S9_RKT_RKT0_
FN:1391,1399,_ZN7testing8internal11CmpHelperEQINSt7__cxx1112basic_stringIcSt11char_traitsIcESaIcEEES7_EENS_15AssertionResultEPKcSA_RKT_RKT0_
FN:1391,1399,_ZN7testing8internal11CmpHelperEQISt17basic_string_viewIcSt11char_traitsIcEEA10_cEENS_15AssertionResultEPKcS9_RKT_RKT0_
FN:1391,1399,_ZN7testing8internal11CmpHelperEQISt17basic_string_viewIcSt11char_traitsIcEEA12_cEENS_15AssertionResultEPKcS9_RKT_RKT0_
FN:1391,1399,_ZN7testing8internal11CmpHelperEQISt17basic_string_viewIcSt11char_traitsIcEEA13_cEENS_15AssertionResultEPKcS9_RKT_RKT0_
FN:1391,1399,_ZN7testing8internal11CmpHelperEQISt17basic_string_viewIcSt11char_traitsIcEEA5_cEENS_15AssertionResultEPKcS9_RKT_RKT0_
FN:1391,1399,_ZN7testing8internal11CmpHelperEQISt17basic_string_viewIcSt11char_traitsIcEEA6_cEENS_15AssertionResultEPKcS9_RKT_RKT0_
FN:1391,1399,_ZN7testing8internal11CmpHelperEQISt17basic_string_viewIcSt11char_traitsIcEENSt7__cxx1112basic_stringIcS4_SaIcEEEEENS_15AssertionResultEPKcSC_RKT_RKT0_
FN:1391,1399,_ZN7testing8internal11CmpHelperEQIbbEENS_15AssertionResultEPKcS4_RKT_RKT0_
FN:1391,1399,_ZN7testing8internal11CmpHelperEQIciEENS_15AssertionResultEPKcS4_RKT_RKT0_
FN:1391,1399,_ZN7testing8internal11CmpHelperEQIddEENS_15AssertionResultEPKcS4_RKT_RKT0_
FN:1391,1399,_ZN7testing8internal11CmpHelperEQIdiEENS_15AssertionResultEPKcS4_RKT_RKT0_
FN:1391,1399,_ZN7testing8internal11CmpHelperEQIfiEENS_15AssertionResultEPKcS4_RKT_RKT0_
FN:1391,1399,_ZN7testing8internal11CmpHelperEQIhiEENS_15AssertionResultEPKcS4_RKT_RKT0_
FN:1391,1399,_ZN7testing8internal11CmpHelperEQIiiEENS_15AssertionResultEPKcS4_RKT_RKT0_
FN:1391,1399,_ZN7testing8internal11CmpHelperEQIjjEENS_15AssertionResultEPKcS4_RKT_RKT0_
FN:1391,1399,_ZN7testing8internal11CmpHelperEQIliEENS_15AssertionResultEPKcS4_RKT_RKT0_
FN:1391,1399,_ZN7testing8internal11CmpHelperEQIllEENS_15AssertionResultEPKcS4_RKT_RKT0_
FN:1391,1399,_ZN7testing8internal11CmpHelperEQIlxEENS_15AssertionResultEPKcS4_RKT_RKT0_
FN:1391,1399,_ZN7testing8internal11CmpHelperEQImiEENS_15AssertionResultEPKcS4_RKT_RKT0_
FN:1391,1399,_ZN7testing8internal11CmpHelperEQImjEENS_15AssertionResultEPKcS4_RKT_RKT0_
FN:1391,1399,_ZN7testing8internal11CmpHelperEQImmEENS_15AssertionResultEPKcS4_RKT_RKT0_
FN:1391,1399,_ZN7testing8internal11CmpHelperEQIsiEENS_15AssertionResultEPKcS4_RKT_RKT0_
FN:1391,1399,_ZN7testing8internal11CmpHelperEQItiEENS_15AssertionResultEPKcS4_RKT_RKT0_
FN:1391,1399,_ZN7testing8internal11CmpHelperEQIxxEENS_15AssertionResultEPKcS4_RKT_RKT0_
FN:1391,1399,_ZN7testing8internal11CmpHelperEQIyyEENS_15AssertionResultEPKcS4_RKT_RKT0_
FN:1443,1450,_ZN7testing8internal18CmpHelperOpFailureIP9lua_StateDnEENS_15AssertionResultEPKcS6_RKT_RKT0_S6_
FN:1443,1450,_ZN7testing8internal18CmpHelperOpFailureIPN7fakelua12VarInterfaceEDnEENS_15AssertionResultEPKcS7_RKT_RKT0_S7_
FN:1443,1450,_ZN7testing8internal18CmpHelperOpFailureIPN7fakelua5StateEDnEENS_15AssertionResultEPKcS7_RKT_RKT0_S7_
FN:1443,1450,_ZN7testing8internal18CmpHelperOpFailureIPvDnEENS_15AssertionResultEPKcS5_RKT_RKT0_S5_
FN:1443,1450,_ZN7testing8internal18CmpHelperOpFailureISt10shared_ptrIN7fakelua19SyntaxTreeInterfaceEEDnEENS_15AssertionResultEPKcS8_RKT_RKT0_S8_
FN:1443,1450,_ZN7testing8internal18CmpHelperOpFailureImiEENS_15AssertionResultEPKcS4_RKT_RKT0_S4_
FN:1443,1450,_ZN7testing8internal18CmpHelperOpFailureImjEENS_15AssertionResultEPKcS4_RKT_RKT0_S4_
FN:1443,1450,_ZN7testing8internal18CmpHelperOpFailureImmEENS_15AssertionResultEPKcS4_RKT_RKT0_S4_
FN:1472,1472,_ZN7testing8internal11CmpHelperNEIP9lua_StateDnEENS_15AssertionResultEPKcS6_RKT_RKT0_
FN:1472,1472,_ZN7testing8internal11CmpHelperNEIPN7fakelua12VarInterfaceEDnEENS_15AssertionResultEPKcS7_RKT_RKT0_
FN:1472,1472,_ZN7testing8internal11CmpHelperNEIPN7fakelua5StateEDnEENS_15AssertionResultEPKcS7_RKT_RKT0_
FN:1472,1472,_ZN7testing8internal11CmpHelperNEIPvDnEENS_15AssertionResultEPKcS5_RKT_RKT0_
FN:1472,1472,_ZN7testing8internal11CmpHelperNEISt10shared_ptrIN7fakelua19SyntaxTreeInterfaceEEDnEENS_15AssertionResultEPKcS8_RKT_RKT0_
FN:1472,1472,_ZN7testing8internal11CmpHelperNEImiEENS_15AssertionResultEPKcS4_RKT_RKT0_
FN:1472,1472,_ZN7testing8internal11CmpHelperNEImmEENS_15AssertionResultEPKcS4_RKT_RKT0_
FN:1480,1480,_ZN7testing8internal11CmpHelperGTImjEENS_15AssertionResultEPKcS4_RKT_RKT0_
FN:1582,1602,_ZN7testing8internal24CmpHelperFloatingPointEQIdEENS_15AssertionResultEPKcS4_T_S5_
FN:1582,1602,_ZN7testing8internal24CmpHelperFloatingPointEQIfEENS_15AssertionResultEPKcS4_T_S5_
FN:2299,2319,_ZN7testing12RegisterTestIJEZNS_8internal23InsertSyntheticTestCaseERKNSt7__cxx1112basic_stringIcSt11char_traitsIcESaIcEEENS1_12CodeLocationEbEUlvE_EEPNS_8TestInfoEPKcSF_SF_SF_SF_iT0_
FN:2299,2319,_ZN7testing12RegisterTestIJEZNS_8internal34TypeParameterizedTestSuiteRegistry22CheckForInstantiationsEvEUlvE_EEPNS_8TestInfoEPKcS7_S7_S7_S7_iT0_
FN:2306,2306,_ZZN7testing12RegisterTestIJEZNS_8internal23InsertSyntheticTestCaseERKNSt7__cxx1112basic_stringIcSt11char_traitsIcESaIcEEENS1_12CodeLocationEbEUlvE_EEPNS_8TestInfoEPKcSF_SF_SF_SF_iT0_EN11FactoryImplC2ESB_
FN:2307,2307,_ZZN7testing12RegisterTestIJEZNS_8internal23InsertSyntheticTestCaseERKNSt7__cxx1112basic_stringIcSt11char_traitsIcESaIcEEENS1_12CodeLocationEbEUlvE_EEPNS_8TestInfoEPKcSF_SF_SF_SF_iT0_EN11FactoryImpl10CreateTestEv
FN:2307,2307,_ZZN7testing12RegisterTestIJEZNS_8internal34TypeParameterizedTestSuiteRegistry22CheckForInstantiationsEvEUlvE_EEPNS_8TestInfoEPKcS7_S7_S7_S7_iT0_EN11FactoryImpl10CreateTestEv
FN:335,335,_ZN7testing4Test11DeleteSelf_Ev
FN:356,356,_ZN7testing4Test5SetupEv
FN:374,375,_ZN7testing12TestPropertyC2ERKNSt7__cxx1112basic_stringIcSt11char_traitsIcESaIcEEES8_
FN:415,415,_ZNK7testing10TestResult6PassedEv
FN:638,640,_ZN7testing8TestInfo15ClearTestResultEPS0_
FN:734,736,_ZNK7testing9TestSuite6FailedEv
FN:780,782,_ZN7testing9TestSuite20ClearTestSuiteResultEPS0_
FN:792,796,_ZN7testing9TestSuite17RunSetUpTestSuiteEv
FN:800,804,_ZN7testing9TestSuite20RunTearDownTestSuiteEv
FN:807,809,_ZN7testing9TestSuite10TestPassedEPKNS_8TestInfoE
FN:812,814,_ZN7testing9TestSuite11TestSkippedEPKNS_8TestInfoE
FN:817,819,_ZN7testing9TestSuite10TestFailedEPKNS_8TestInfoE
FN:823,825,_ZN7testing9TestSuite22TestReportableDisabledEPKNS_8TestInfoE
FN:828,830,_ZN7testing9TestSuite12TestDisabledEPKNS_8TestInfoE
FN:833,835,_ZN7testing9TestSuite14TestReportableEPKNS_8TestInfoE
FN:838,840,_ZN7testing9TestSuite13ShouldRunTestEPKNS_8TestInfoE
FN:896,896,_ZN7testing11EnvironmentD0Ev
FN:896,896,_ZN7testing11EnvironmentD2Ev
FN:899,899,_ZN7testing11Environment5SetUpEv
FN:902,902,_ZN7testing11Environment8TearDownEv
FN:945,945,_ZN7testing17TestEventListener16OnTestSuiteStartERKNS_9TestSuiteE
FN:949,949,_ZN7testing17TestEventListener15OnTestCaseStartERKNS_9TestSuiteE
FN:956,956,_ZN7testing17TestEventListener14OnTestDisabledERKNS_8TestInfoE
FN:967,967,_ZN7testing17TestEventListener14OnTestSuiteEndERKNS_9TestSuiteE
FN:971,971,_ZN7testing17TestEventListener13OnTestCaseEndERKNS_9TestSuiteE
FN:994,994,_ZN7testing22EmptyTestEventListener18OnTestProgramStartERKNS_8UnitTestE
FN:995,996,_ZN7testing22EmptyTestEventListener20OnTestIterationStartERKNS_8UnitTestEi
FN:997,997,_ZN7testing22EmptyTestEventListener24OnEnvironmentsSetUpStartERKNS_8UnitTestE
FN:998,998,_ZN7testing22EmptyTestEventListener22OnEnvironmentsSetUpEndERKNS_8UnitTestE
FN:999,999,_ZN7testing22EmptyTestEventListener16OnTestSuiteStartERKNS_9TestSuiteE
FNDA:0,_ZN7testing22EmptyTestEventListener15OnTestCaseStartERKNS_9TestSuiteE
FNDA:0,_ZN7testing22EmptyTestEventListener11OnTestStartERKNS_8TestInfoE
FNDA:0,_ZN7testing22EmptyTestEventListener14OnTestDisabledERKNS_8TestInfoE
FNDA:0,_ZN7testing22EmptyTestEventListener16OnTestPartResultERKNS_14TestPartResultE
FNDA:0,_ZN7testing22EmptyTestEventListener9OnTestEndERKNS_8TestInfoE
FNDA:0,_ZN7testing22EmptyTestEventListener14OnTestSuiteEndERKNS_9TestSuiteE
FNDA:0,_ZN7testing22EmptyTestEventListener13OnTestCaseEndERKNS_9TestSuiteE
FNDA:0,_ZN7testing22EmptyTestEventListener27OnEnvironmentsTearDownStartERKNS_8UnitTestE
FNDA:0,_ZN7testing22EmptyTestEventListener25OnEnvironmentsTearDownEndERKNS_8UnitTestE
FNDA:0,_ZN7testing22EmptyTestEventListener18OnTestIterationEndERKNS_8UnitTestEi
FNDA:0,_ZN7testing22EmptyTestEventListener16OnTestProgramEndERKNS_8UnitTestE
FNDA:0,_ZN7testing8internal18CmpHelperEQFailureIN7fakelua12VarInterface4TypeES4_EENS_15AssertionResultEPKcS7_RKT_RKT0_
FNDA:0,_ZN7testing8internal18CmpHelperEQFailureIN7fakelua3VarES3_EENS_15AssertionResultEPKcS6_RKT_RKT0_
FNDA:0,_ZN7testing8internal18CmpHelperEQFailureIN7fakelua7VarTypeES3_EENS_15AssertionResultEPKcS6_RKT_RKT0_
FNDA:0,_ZN7testing8internal18CmpHelperEQFailureINSt7__cxx1112basic_stringIcSt11char_traitsIcESaIcEEEA10_cEENS_15AssertionResultEPKcSB_RKT_RKT0_
FNDA:0,_ZN7testing8internal18CmpHelperEQFailureINSt7__cxx1112basic_stringIcSt11char_traitsIcESaIcEEEA111_cEENS_15AssertionResultEPKcSB_RKT_RKT0_
FNDA:0,_ZN7testing8internal18CmpHelperEQFailureINSt7__cxx1112basic_stringIcSt11char_traitsIcESaIcEEEA114_cEENS_15AssertionResultEPKcSB_RKT_RKT0_
FNDA:0,_ZN7testing8internal18CmpHelperEQFailureINSt7__cxx1112basic_stringIcSt11char_traitsIcESaIcEEEA11_cEENS_15AssertionResultEPKcSB_RKT_RKT0_
FNDA:0,_ZN7testing8internal18CmpHelperEQFailureINSt7__cxx1112basic_stringIcSt11char_traitsIcESaIcEEEA13_cEENS_15AssertionResultEPKcSB_RKT_RKT0_
FNDA:0,_ZN7testing8internal18CmpHelperEQFailureINSt7__cxx1112basic_stringIcSt11char_traitsIcESaIcEEEA1_cEENS_15AssertionResultEPKcSB_RKT_RKT0_
FNDA:0,_ZN7testing8internal18CmpHelperEQFailureINSt7__cxx1112basic_stringIcSt11char_traitsIcESaIcEEEA20_cEENS_15AssertionResultEPKcSB_RKT_RKT0_
FNDA:0,_ZN7testing8internal18CmpHelperEQFailureINSt7__cxx1112basic_stringIcSt11char_traitsIcESaIcEEEA22_cEENS_15AssertionResultEPKcSB_RKT_RKT0_
FNDA:0,_ZN7testing8internal18CmpHelperEQFailureINSt7__cxx1112basic_stringIcSt11char_traitsIcESaIcEEEA2_cEENS_15AssertionResultEPKcSB_RKT_RKT0_
FNDA:0,_ZN7testing8internal18CmpHelperEQFailureINSt7__cxx1112basic_stringIcSt11char_traitsIcESaIcEEEA3_cEENS_15AssertionResultEPKcSB_RKT_RKT0_
FNDA:0,_ZN7testing8internal18CmpHelperEQFailureINSt7__cxx1112basic_stringIcSt11char_traitsIcESaIcEEEA40_cEENS_15AssertionResultEPKcSB_RKT_RKT0_
FNDA:0,_ZN7testing8internal18CmpHelperEQFailureINSt7__cxx1112basic_stringIcSt11char_traitsIcESaIcEEEA4_cEENS_15AssertionResultEPKcSB_RKT_RKT0_
FNDA:0,_ZN7testing8internal18CmpHelperEQFailureINSt7__cxx1112basic_stringIcSt11char_traitsIcESaIcEEEA56_cEENS_15AssertionResultEPKcSB_RKT_RKT0_
FNDA:0,_ZN7testing8internal18CmpHelperEQFailureINSt7__cxx1112basic_stringIcSt11char_traitsIcESaIcEEEA5_cEENS_15AssertionResultEPKcSB_RKT_RKT0_
FNDA:0,_ZN7testing8internal18CmpHelperEQFailureINSt7__cxx1112basic_stringIcSt11char_traitsIcESaIcEEEA6_cEENS_15AssertionResultEPKcSB_RKT_RKT0_
FNDA:0,_ZN7testing8internal18CmpHelperEQFailureINSt7__cxx1112basic_stringIcSt11char_traitsIcESaIcEEEA7_cEENS_15AssertionResultEPKcSB_RKT_RKT0_
FNDA:0,_ZN7testing8internal18CmpHelperEQFailureINSt7__cxx1112basic_stringIcSt11char_traitsIcESaIcEEEA8_cEENS_15AssertionResultEPKcSB_RKT_RKT0_
FNDA:0,_ZN7testing8internal18CmpHelperEQFailureINSt7__cxx1112basic_stringIcSt11char_traitsIcESaIcEEEA99_cEENS_15AssertionResultEPKcSB_RKT_RKT0_
FNDA:0,_ZN7testing8internal18CmpHelperEQFailureINSt7__cxx1112basic_stringIcSt11char_traitsIcESaIcEEEA9_cEENS_15AssertionResultEPKcSB_RKT_RKT0_
FNDA:0,_ZN7testing8internal18CmpHelperEQFailureINSt7__cxx1112basic_stringIcSt11char_traitsIcESaIcEEEPKcEENS_15AssertionResultES9_S9_RKT_RKT0_
FNDA:0,_ZN7testing8internal18CmpHelperEQFailureINSt7__cxx1112basic_stringIcSt11char_traitsIcESaIcEEES7_EENS_15AssertionResultEPKcSA_RKT_RKT0_
FNDA:0,_ZN7testing8internal18CmpHelperEQFailureISt17basic_string_viewIcSt11char_traitsIcEEA10_cEENS_15AssertionResultEPKcS9_RKT_RKT0_
FNDA:0,_ZN7testing8internal18CmpHelperEQFailureISt17basic_string_viewIcSt11char_traitsIcEEA12_cEENS_15AssertionResultEPKcS9_RKT_RKT0_
FNDA:0,_ZN7testing8internal18CmpHelperEQFailureISt17basic_string_viewIcSt11char_traitsIcEEA13_cEENS_15AssertionResultEPKcS9_RKT_RKT0_
FNDA:0,_ZN7testing8internal18CmpHelperEQFailureISt17basic_string_viewIcSt11char_traitsIcEEA5_cEENS_15AssertionResultEPKcS9_RKT_RKT0_
FNDA:0,_ZN7testing8internal18CmpHelperEQFailureISt17basic_string_viewIcSt11char_traitsIcEEA6_cEENS_15AssertionResultEPKcS9_RKT_RKT0_
FNDA:0,_ZN7testing8internal18CmpHelperEQFailureISt17basic_string_viewIcSt11char_traitsIcEENSt7__cxx1112basic_stringIcS4_SaIcEEEEENS_15AssertionResultEPKcSC_RKT_RKT0_
FNDA:0,_ZN7testing8internal18CmpHelperEQFailureIbbEENS_15AssertionResultEPKcS4_RKT_RKT0_
FNDA:0,_ZN7testing8internal18CmpHelperEQFailureIciEENS_15AssertionResultEPKcS4_RKT_RKT0_
FNDA:0,_ZN7testing8internal18CmpHelperEQFailureIddEENS_15AssertionResultEPKcS4_RKT_RKT0_
FNDA:0,_ZN7testing8internal18CmpHelperEQFailureIdiEENS_15AssertionResultEPKcS4_RKT_RKT0_
FNDA:0,_ZN7testing8internal18CmpHelperEQFailureIfiEENS_15AssertionResultEPKcS4_RKT_RKT0_
FNDA:0,_ZN7testing8internal18CmpHelperEQFailureIhiEENS_15AssertionResultEPKcS4_RKT_RKT0_
FNDA:0,_ZN7testing8internal18CmpHelperEQFailureIiiEENS_15AssertionResultEPKcS4_RKT_RKT0_
FNDA:0,_ZN7testing8internal18CmpHelperEQFailureIjjEENS_15AssertionResultEPKcS4_RKT_RKT0_
FNDA:0,_ZN7testing8internal18CmpHelperEQFailureIliEENS_15AssertionResultEPKcS4_RKT_RKT0_
FNDA:0,_ZN7testing8internal18CmpHelperEQFailureIllEENS_15AssertionResultEPKcS4_RKT_RKT0_
FNDA:0,_ZN7testing8internal18CmpHelperEQFailureIlxEENS_15AssertionResultEPKcS4_RKT_RKT0_
FNDA:0,_ZN7testing8internal18CmpHelperEQFailureImiEENS_15AssertionResultEPKcS4_RKT_RKT0_
FNDA:0,_ZN7testing8internal18CmpHelperEQFailureImjEENS_15AssertionResultEPKcS4_RKT_RKT0_
FNDA:0,_ZN7testing8internal18CmpHelperEQFailureImmEENS_15AssertionResultEPKcS4_RKT_RKT0_
FNDA:0,_ZN7testing8internal18CmpHelperEQFailureIsiEENS_15AssertionResultEPKcS4_RKT_RKT0_
FNDA:0,_ZN7testing8internal18CmpHelperEQFailureItiEENS_15AssertionResultEPKcS4_RKT_RKT0_
FNDA:0,_ZN7testing8internal18CmpHelperEQFailureIxxEENS_15AssertionResultEPKcS4_RKT_RKT0_
FNDA:0,_ZN7testing8internal18CmpHelperEQFailureIyyEENS_15AssertionResultEPKcS4_RKT_RKT0_
FNDA:112,_ZN7testing8internal11CmpHelperEQIN7fakelua12VarInterface4TypeES4_EENS_15AssertionResultEPKcS7_RKT_RKT0_
FNDA:27,_ZN7testing8internal11CmpHelperEQIN7fakelua3VarES3_EENS_15AssertionResultEPKcS6_RKT_RKT0_
FNDA:306,_ZN7testing8internal11CmpHelperEQIN7fakelua7VarTypeES3_EENS_15AssertionResultEPKcS6_RKT_RKT0_
FNDA:27,_ZN7testing8internal11CmpHelperEQINSt7__cxx1112basic_stringIcSt11char_traitsIcESaIcEEEA10_cEENS_15AssertionResultEPKcSB_RKT_RKT0_
FNDA:16,_ZN7testing8internal11CmpHelperEQINSt7__cxx1112basic_stringIcSt11char_traitsIcESaIcEEEA111_cEENS_15AssertionResultEPKcSB_RKT_RKT0_
FNDA:3,_ZN7testing8internal11CmpHelperEQINSt7__cxx1112basic_stringIcSt11char_traitsIcESaIcEEEA114_cEENS_15AssertionResultEPKcSB_RKT_RKT0_
FNDA:6,_ZN7testing8internal11CmpHelperEQINSt7__cxx1112basic_stringIcSt11char_traitsIcESaIcEEEA11_cEENS_15AssertionResultEPKcSB_RKT_RKT0_
FNDA:16,_ZN7testing8internal11CmpHelperEQINSt7__cxx1112basic_stringIcSt11char_traitsIcESaIcEEEA13_cEENS_15AssertionResultEPKcSB_RKT_RKT0_
FNDA:12,_ZN7testing8internal11CmpHelperEQINSt7__cxx1112basic_stringIcSt11char_traitsIcESaIcEEEA1_cEENS_15AssertionResultEPKcSB_RKT_RKT0_
FNDA:4,_ZN7testing8internal11CmpHelperEQINSt7__cxx1112basic_stringIcSt11char_traitsIcESaIcEEEA20_cEENS_15AssertionResultEPKcSB_RKT_RKT0_
FNDA:3,_ZN7testing8internal11CmpHelperEQINSt7__cxx1112basic_stringIcSt11char_traitsIcESaIcEEEA22_cEENS_15AssertionResultEPKcSB_RKT_RKT0_
FNDA:25,_ZN7testing8internal11CmpHelperEQINSt7__cxx1112basic_stringIcSt11char_traitsIcESaIcEEEA2_cEENS_15AssertionResultEPKcSB_RKT_RKT0_
FNDA:21,_ZN7testing8internal11CmpHelperEQINSt7__cxx1112basic_stringIcSt11char_traitsIcESaIcEEEA3_cEENS_15AssertionResultEPKcSB_RKT_RKT0_
FNDA:16,_ZN7testing8internal11CmpHelperEQINSt7__cxx1112basic_stringIcSt11char_traitsIcESaIcEEEA40_cEENS_15AssertionResultEPKcSB_RKT_RKT0_
FNDA:44,_ZN7testing8internal11CmpHelperEQINSt7__cxx1112basic_stringIcSt11char_traitsIcESaIcEEEA4_cEENS_15AssertionResultEPKcSB_RKT_RKT0_
FNDA:16,_ZN7testing8internal11CmpHelperEQINSt7__cxx1112basic_stringIcSt11char_traitsIcESaIcEEEA56_cEENS_15AssertionResultEPKcSB_RKT_RKT0_
FNDA:82,_ZN7testing8internal11CmpHelperEQINSt7__cxx1112basic_stringIcSt11char_traitsIcESaIcEEEA5_cEENS_15AssertionResultEPKcSB_RKT_RKT0_
FNDA:60,_ZN7testing8internal11CmpHelperEQINSt7__cxx1112basic_stringIcSt11char_traitsIcESaIcEEEA6_cEENS_15AssertionResultEPKcSB_RKT_RKT0_
FNDA:3,_ZN7testing8internal11CmpHelperEQINSt7__cxx1112basic_stringIcSt11char_traitsIcESaIcEEEA7_cEENS_15AssertionResultEPKcSB_RKT_RKT0_
FNDA:24,_ZN7testing8internal11CmpHelperEQINSt7__cxx1112basic_stringIcSt11char_traitsIcESaIcEEEA8_cEENS_15AssertionResultEPKcSB_RKT_RKT0_
FNDA:16,_ZN7testing8internal11CmpHelperEQINSt7__cxx1112basic_stringIcSt11char_traitsIcESaIcEEEA99_cEENS_15AssertionResultEPKcSB_RKT_RKT0_
FNDA:15,_ZN7testing8internal11CmpHelperEQINSt7__cxx1112basic_stringIcSt11char_traitsIcESaIcEEEA9_cEENS_15AssertionResultEPKcSB_RKT_RKT0_
FNDA:87,_ZN7testing8internal11CmpHelperEQINSt7__cxx1112basic_stringIcSt11char_traitsIcESaIcEEEPKcEENS_15AssertionResultES9_S9_RKT_RKT0_
FNDA:3,_ZN7testing8internal11CmpHelperEQINSt7__cxx1112basic_stringIcSt11char_traitsIcESaIcEEES7_EENS_15AssertionResultEPKcSA_RKT_RKT0_
FNDA:4,_ZN7testing8internal11CmpHelperEQISt17basic_string_viewIcSt11char_traitsIcEEA10_cEENS_15AssertionResultEPKcS9_RKT_RKT0_
FNDA:6,_ZN7testing8internal11CmpHelperEQISt17basic_string_viewIcSt11char_traitsIcEEA12_cEENS_15AssertionResultEPKcS9_RKT_RKT0_
FNDA:3,_ZN7testing8internal11CmpHelperEQISt17basic_string_viewIcSt11char_traitsIcEEA13_cEENS_15AssertionResultEPKcS9_RKT_RKT0_
FNDA:4,_ZN7testing8internal11CmpHelperEQISt17basic_string_viewIcSt11char_traitsIcEEA5_cEENS_15AssertionResultEPKcS9_RKT_RKT0_
FNDA:9,_ZN7testing8internal11CmpHelperEQISt17basic_string_viewIcSt11char_traitsIcEEA6_cEENS_15AssertionResultEPKcS9_RKT_RKT0_
FNDA:12,_ZN7testing8internal11CmpHelperEQISt17basic_string_viewIcSt11char_traitsIcEENSt7__cxx1112basic_stringIcS4_SaIcEEEEENS_15AssertionResultEPKcSC_RKT_RKT0_
FNDA:67,_ZN7testing8internal11CmpHelperEQIbbEENS_15AssertionResultEPKcS4_RKT_RKT0_
FNDA:4,_ZN7testing8internal11CmpHelperEQIciEENS_15AssertionResultEPKcS4_RKT_RKT0_
FNDA:129,_ZN7testing8internal11CmpHelperEQIddEENS_15AssertionResultEPKcS4_RKT_RKT0_
FNDA:12,_ZN7testing8internal11CmpHelperEQIdiEENS_15AssertionResultEPKcS4_RKT_RKT0_
FNDA:16,_ZN7testing8internal11CmpHelperEQIfiEENS_15AssertionResultEPKcS4_RKT_RKT0_
FNDA:4,_ZN7testing8internal11CmpHelperEQIhiEENS_15AssertionResultEPKcS4_RKT_RKT0_
FNDA:3044,_ZN7testing8internal11CmpHelperEQIiiEENS_15AssertionResultEPKcS4_RKT_RKT0_
FNDA:28,_ZN7testing8internal11CmpHelperEQIjjEENS_15AssertionResultEPKcS4_RKT_RKT0_
FNDA:7368,_ZN7testing8internal11CmpHelperEQIliEENS_15AssertionResultEPKcS4_RKT_RKT0_
FNDA:22,_ZN7testing8internal11CmpHelperEQIllEENS_15AssertionResultEPKcS4_RKT_RKT0_
FNDA:6,_ZN7testing8internal11CmpHelperEQIlxEENS_15AssertionResultEPKcS4_RKT_RKT0_
FNDA:126,_ZN7testing8internal11CmpHelperEQImiEENS_15AssertionResultEPKcS4_RKT_RKT0_
FNDA:24,_ZN7testing8internal11CmpHelperEQImjEENS_15AssertionResultEPKcS4_RKT_RKT0_
FNDA:241,_ZN7testing8internal11CmpHelperEQImmEENS_15AssertionResultEPKcS4_RKT_RKT0_
FNDA:4,_ZN7testing8internal11CmpHelperEQIsiEENS_15AssertionResultEPKcS4_RKT_RKT0_
FNDA:4,_ZN7testing8internal11CmpHelperEQItiEENS_15AssertionResultEPKcS4_RKT_RKT0_
FNDA:4,_ZN7testing8internal11CmpHelperEQIxxEENS_15AssertionResultEPKcS4_RKT_RKT0_
FNDA:4,_ZN7testing8internal11CmpHelperEQIyyEENS_15AssertionResultEPKcS4_RKT_RKT0_
FNDA:0,_ZN7testing8internal18CmpHelperOpFailureIP9lua_StateDnEENS_15AssertionResultEPKcS6_RKT_RKT0_S6_
FNDA:0,_ZN7testing8internal18CmpHelperOpFailureIPN7fakelua12VarInterfaceEDnEENS_15AssertionResultEPKcS7_RKT_RKT0_S7_
FNDA:0,_ZN7testing8internal18CmpHelperOpFailureIPN7fakelua5StateEDnEENS_15AssertionResultEPKcS7_RKT_RKT0_S7_
FNDA:0,_ZN7testing8internal18CmpHelperOpFailureIPvDnEENS_15AssertionResultEPKcS5_RKT_RKT0_S5_
FNDA:0,_ZN7testing8internal18CmpHelperOpFailureISt10shared_ptrIN7fakelua19SyntaxTreeInterfaceEEDnEENS_15AssertionResultEPKcS8_RKT_RKT0_S8_
FNDA:0,_ZN7testing8internal18CmpHelperOpFailureImiEENS_15AssertionResultEPKcS4_RKT_RKT0_S4_
FNDA:0,_ZN7testing8internal18CmpHelperOpFailureImjEENS_15AssertionResultEPKcS4_RKT_RKT0_S4_
FNDA:0,_ZN7testing8internal18CmpHelperOpFailureImmEENS_15AssertionResultEPKcS4_RKT_RKT0_S4_
FNDA:32,_ZN7testing8internal11CmpHelperNEIP9lua_StateDnEENS_15AssertionResultEPKcS6_RKT_RKT0_
FNDA:64,_ZN7testing8internal11CmpHelperNEIPN7fakelua12VarInterfaceEDnEENS_15AssertionResultEPKcS7_RKT_RKT0_
FNDA:1060,_ZN7testing8internal11CmpHelperNEIPN7fakelua5StateEDnEENS_15AssertionResultEPKcS7_RKT_RKT0_
FNDA:20,_ZN7testing8internal11CmpHelperNEIPvDnEENS_15AssertionResultEPKcS5_RKT_RKT0_
FNDA:87,_ZN7testing8internal11CmpHelperNEISt10shared_ptrIN7fakelua19SyntaxTreeInterfaceEEDnEENS_15AssertionResultEPKcS8_RKT_RKT0_
FNDA:15,_ZN7testing8internal11CmpHelperNEImiEENS_15AssertionResultEPKcS4_RKT_RKT0_
FNDA:386,_ZN7testing8internal11CmpHelperNEImmEENS_15AssertionResultEPKcS4_RKT_RKT0_
FNDA:4,_ZN7testing8internal11CmpHelperGTImjEENS_15AssertionResultEPKcS4_RKT_RKT0_
FNDA:41,_ZN7testing8internal24CmpHelperFloatingPointEQIdEENS_15AssertionResultEPKcS4_T_S5_
FNDA:8,_ZN7testing8internal24CmpHelperFloatingPointEQIfEENS_15AssertionResultEPKcS4_T_S5_
FNDA:0,_ZN7testing12RegisterTestIJEZNS_8internal23InsertSyntheticTestCaseERKNSt7__cxx1112basic_stringIcSt11char_traitsIcESaIcEEENS1_12CodeLocationEbEUlvE_EEPNS_8TestInfoEPKcSF_SF_SF_SF_iT0_
FNDA:0,_ZN7testing12RegisterTestIJEZNS_8internal34TypeParameterizedTestSuiteRegistry22CheckForInstantiationsEvEUlvE_EEPNS_8TestInfoEPKcS7_S7_S7_S7_iT0_
FNDA:0,_ZZN7testing12RegisterTestIJEZNS_8internal23InsertSyntheticTestCaseERKNSt7__cxx1112basic_stringIcSt11char_traitsIcESaIcEEENS1_12CodeLocationEbEUlvE_EEPNS_8TestInfoEPKcSF_SF_SF_SF_iT0_EN11FactoryImplC2ESB_
FNDA:0,_ZZN7testing12RegisterTestIJEZNS_8internal23InsertSyntheticTestCaseERKNSt7__cxx1112basic_stringIcSt11char_traitsIcESaIcEEENS1_12CodeLocationEbEUlvE_EEPNS_8TestInfoEPKcSF_SF_SF_SF_iT0_EN11FactoryImpl10CreateTestEv
FNDA:0,_ZZN7testing12RegisterTestIJEZNS_8internal34TypeParameterizedTestSuiteRegistry22CheckForInstantiationsEvEUlvE_EEPNS_8TestInfoEPKcS7_S7_S7_S7_iT0_EN11FactoryImpl10CreateTestEv
FNDA:1910,_ZN7testing4Test11DeleteSelf_Ev
FNDA:0,_ZN7testing4Test5SetupEv
FNDA:0,_ZN7testing12TestPropertyC2ERKNSt7__cxx1112basic_stringIcSt11char_traitsIcESaIcEEES8_
FNDA:3820,_ZNK7testing10TestResult6PassedEv
FNDA:5896,_ZN7testing8TestInfo15ClearTestResultEPS0_
FNDA:96,_ZNK7testing9TestSuite6FailedEv
FNDA:126,_ZN7testing9TestSuite20ClearTestSuiteResultEPS0_
FNDA:48,_ZN7testing9TestSuite17RunSetUpTestSuiteEv
FNDA:48,_ZN7testing9TestSuite20RunTearDownTestSuiteEv
FNDA:5896,_ZN7testing9TestSuite10TestPassedEPKNS_8TestInfoE
FNDA:5896,_ZN7testing9TestSuite11TestSkippedEPKNS_8TestInfoE
FNDA:6452,_ZN7testing9TestSuite10TestFailedEPKNS_8TestInfoE
FNDA:5896,_ZN7testing9TestSuite22TestReportableDisabledEPKNS_8TestInfoE
FNDA:0,_ZN7testing9TestSuite12TestDisabledEPKNS_8TestInfoE
FNDA:0,_ZN7testing9TestSuite14TestReportableEPKNS_8TestInfoE
FNDA:16368,_ZN7testing9TestSuite13ShouldRunTestEPKNS_8TestInfoE
FNDA:0,_ZN7testing11EnvironmentD0Ev
FNDA:0,_ZN7testing11EnvironmentD2Ev
FNDA:0,_ZN7testing11Environment5SetUpEv
FNDA:0,_ZN7testing11Environment8TearDownEv
FNDA:48,_ZN7testing17TestEventListener16OnTestSuiteStartERKNS_9TestSuiteE
FNDA:0,_ZN7testing17TestEventListener15OnTestCaseStartERKNS_9TestSuiteE
FNDA:0,_ZN7testing17TestEventListener14OnTestDisabledERKNS_8TestInfoE
FNDA:48,_ZN7testing17TestEventListener14OnTestSuiteEndERKNS_9TestSuiteE
FNDA:0,_ZN7testing17TestEventListener13OnTestCaseEndERKNS_9TestSuiteE
FNDA:0,_ZN7testing22EmptyTestEventListener18OnTestProgramStartERKNS_8UnitTestE
FNDA:0,_ZN7testing22EmptyTestEventListener20OnTestIterationStartERKNS_8UnitTestEi
FNDA:0,_ZN7testing22EmptyTestEventListener24OnEnvironmentsSetUpStartERKNS_8UnitTestE
FNDA:0,_ZN7testing22EmptyTestEventListener22OnEnvironmentsSetUpEndERKNS_8UnitTestE
FNDA:0,_ZN7testing22EmptyTestEventListener16OnTestSuiteStartERKNS_9TestSuiteE
FNF:160
FNH:72
DA:335,1910
DA:356,0
DA:369,0
DA:374,0
DA:375,0
DA:378,0
DA:381,0
DA:384,0
DA:415,3820
DA:430,1910
DA:434,0
DA:467,1910
DA:470,1910
DA:491,0
DA:494,0
DA:540,3820
DA:548,5736
DA:552,5908
DA:553,5908
DA:559,12
DA:560,12
DA:565,8425
DA:568,8425
DA:571,0
DA:589,204
DA:592,5896
DA:595,1910
DA:599,3826
DA:627,0
DA:628,0
DA:638,5896
DA:639,5896
DA:640,5896
DA:694,102
DA:698,48
DA:699,48
DA:704,6220
DA:731,0
DA:734,96
DA:735,184
DA:739,48
DA:743,0
DA:751,140
DA:758,177
DA:762,1910
DA:770,6022
DA:780,126
DA:781,126
DA:782,126
DA:792,48
DA:793,48
DA:794,0
DA:796,48
DA:800,48
DA:801,48
DA:802,0
DA:804,48
DA:807,5896
DA:808,5896
DA:812,5896
DA:813,5896
DA:817,6452
DA:818,6452
DA:823,5896
DA:824,7806
DA:828,0
DA:829,0
DA:833,0
DA:834,0
DA:838,16368
DA:839,16368
DA:896,0
DA:899,0
DA:902,0
DA:925,14
DA:927,14
DA:945,48
DA:949,0
DA:956,0
DA:967,48
DA:971,0
DA:992,0
DA:994,0
DA:995,0
DA:996,0
DA:997,0
DA:998,0
DA:999,0
DA:1002,0
DA:1005,0
DA:1006,0
DA:1007,0
DA:1008,0
DA:1009,0
DA:1011,0
DA:1014,0
DA:1015,0
DA:1016,0
DA:1017,0
DA:1018,0
DA:1280,30986
DA:1281,268
DA:1374,0
DA:1379,0
DA:1391,12089
DA:1394,12089
DA:1395,12089
DA:1398,0
DA:1410,12063
DA:1413,12063
DA:1422,4
DA:1425,4
DA:1443,0
DA:1447,0
DA:1448,0
DA:1449,0
DA:1472,1664
DA:1480,4
DA:1582,49
DA:1585,49
DA:1587,49
DA:1588,49
DA:1591,0
DA:1592,0
DA:1593,0
DA:1595,0
DA:1596,0
DA:1597,0
DA:1601,0
DA:1602,0
DA:1631,0
DA:1632,0
DA:1634,0
DA:2299,0
DA:2306,0
DA:2307,0
DA:2313,0
DA:2315,0
DA:2318,0
DA:2334,14
LF:140
LH:70
end_of_record
TN:
SF:/home/runner/work/fakelua/fakelua/build_cov/_deps/googletest-src/googletest/include/gtest/internal/gtest-death-test-internal.h
FN:277,279,_ZN7testing8internal24InternalRunDeathTestFlagD2Ev
FNDA:0,_ZN7testing8internal24InternalRunDeathTestFlagD2Ev
FNF:1
FNH:0
DA:112,0
DA:175,14
DA:184,14
DA:273,0
DA:275,0
DA:277,0
DA:278,0
DA:279,0
DA:281,0
DA:282,0
DA:283,0
DA:284,0
LF:12
LH:2
end_of_record
TN:
SF:/home/runner/work/fakelua/fakelua/build_cov/_deps/googletest-src/googletest/include/gtest/internal/gtest-filepath.h
FN:76,78,_ZN7testing8internal8FilePathC2ENSt7__cxx1112basic_stringIcSt11char_traitsIcESaIcEEE
FNDA:14,_ZN7testing8internal8FilePathC2ENSt7__cxx1112basic_stringIcSt11char_traitsIcESaIcEEE
FNF:1
FNH:1
DA:70,28
DA:72,14
DA:73,0
DA:76,14
DA:77,14
DA:78,14
DA:84,14
DA:85,14
DA:86,14
DA:89,0
DA:91,0
DA:92,0
DA:124,5910
LF:13
LH:9
end_of_record
TN:
SF:/home/runner/work/fakelua/fakelua/build_cov/_deps/googletest-src/googletest/include/gtest/internal/gtest-internal.h
FN:293,293,_ZN7testing8internal13FloatingPointIdEC2Ed
FN:293,293,_ZN7testing8internal13FloatingPointIfEC2Ef
FN:336,342,_ZNK7testing8internal13FloatingPointIdE12AlmostEqualsERKS2_
FN:336,342,_ZNK7testing8internal13FloatingPointIfE12AlmostEqualsERKS2_
FN:448,448,_ZN7testing8internal15TestFactoryImplI13algo_gcd_TestE10CreateTestEv
FN:448,448,_ZN7testing8internal15TestFactoryImplI15algo_sieve_TestE10CreateTestEv
FN:448,448,_ZN7testing8internal15TestFactoryImplI15var_concat_TestE10CreateTestEv
FN:448,448,_ZN7testing8internal15TestFactoryImplI16algo_matrix_TestE10CreateTestEv
FN:448,448,_ZN7testing8internal15TestFactoryImplI16var_bitwise_TestE10CreateTestEv
FN:448,448,_ZN7testing8internal15TestFactoryImplI16var_set_get_TestE10CreateTestEv
FN:448,448,_ZN7testing8internal15TestFactoryImplI17ini_newstate_TestE10CreateTestEv
FN:448,448,_ZN7testing8internal15TestFactoryImplI17var_ToString_TestE10CreateTestEv
FN:448,448,_ZN7testing8internal15TestFactoryImplI17var_VarTable_TestE10CreateTestEv
FN:448,448,_ZN7testing8internal15TestFactoryImplI17var_hash_nil_TestE10CreateTestEv
FN:448,448,_ZN7testing8internal15TestFactoryImplI18algo_fast_pow_TestE10CreateTestEv
FN:448,448,_ZN7testing8internal15TestFactoryImplI18jitter_string_TestE10CreateTestEv
FN:448,448,_ZN7testing8internal15TestFactoryImplI18var_construct_TestE10CreateTestEv
FN:448,448,_ZN7testing8internal15TestFactoryImplI18var_table_get_TestE10CreateTestEv
FN:448,448,_ZN7testing8internal15TestFactoryImplI19algo_fibonacci_TestE10CreateTestEv
FN:448,448,_ZN7testing8internal15TestFactoryImplI19common_ToFloat_TestE10CreateTestEv
FN:448,448,_ZN7testing8internal15TestFactoryImplI19common_logging_TestE10CreateTestEv
FN:448,448,_ZN7testing8internal15TestFactoryImplI19common_vi_sort_TestE10CreateTestEv
FN:448,448,_ZN7testing8internal15TestFactoryImplI19jitter_test_if_TestE10CreateTestEv
FN:448,448,_ZN7testing8internal15TestFactoryImplI19syntax_tree_if_TestE10CreateTestEv
FN:448,448,_ZN7testing8internal15TestFactoryImplI19var_arithmetic_TestE10CreateTestEv
FN:448,448,_ZN7testing8internal15TestFactoryImplI19var_comparison_TestE10CreateTestEv
FN:448,448,_ZN7testing8internal15TestFactoryImplI19var_hash_table_TestE10CreateTestEv
FN:448,448,_ZN7testing8internal15TestFactoryImplI19var_table_size_TestE10CreateTestEv
FN:448,448,_ZN7testing8internal15TestFactoryImplI20common_IsNumber_TestE10CreateTestEv
FN:448,448,_ZN7testing8internal15TestFactoryImplI20syntax_tree_var_TestE10CreateTestEv
FN:448,448,_ZN7testing8internal15TestFactoryImplI20var_equal_table_TestE10CreateTestEv
FN:448,448,_ZN7testing8internal15TestFactoryImplI21algo_bubble_sort_TestE10CreateTestEv
FN:448,448,_ZN7testing8internal15TestFactoryImplI21common_IsInteger_TestE10CreateTestEv
FN:448,448,_ZN7testing8internal15TestFactoryImplI21common_ToInteger_TestE10CreateTestEv
FN:448,448,_ZN7testing8internal15TestFactoryImplI21var_equal_string_TestE10CreateTestEv
FN:448,448,_ZN7testing8internal15TestFactoryImplI21var_table_rehash_TestE10CreateTestEv
FN:448,448,_ZN7testing8internal15TestFactoryImplI22exception_ToFloat_TestE10CreateTestEv
FN:448,448,_ZN7testing8internal15TestFactoryImplI22jitter_empty_file_TestE10CreateTestEv
FN:448,448,_ZN7testing8internal15TestFactoryImplI22jitter_empty_func_TestE10CreateTestEv
FN:448,448,_ZN7testing8internal15TestFactoryImplI22jitter_multi_name_TestE10CreateTestEv
FN:448,448,_ZN7testing8internal15TestFactoryImplI22jitter_test_while_TestE10CreateTestEv
FN:448,448,_ZN7testing8internal15TestFactoryImplI22syntax_tree_binop_TestE10CreateTestEv
FN:448,448,_ZN7testing8internal15TestFactoryImplI22syntax_tree_break_TestE10CreateTestEv
FN:448,448,_ZN7testing8internal15TestFactoryImplI22syntax_tree_label_TestE10CreateTestEv
FN:448,448,_ZN7testing8internal15TestFactoryImplI22syntax_tree_while_TestE10CreateTestEv
FN:448,448,_ZN7testing8internal15TestFactoryImplI22var_SetTempString_TestE10CreateTestEv
FN:448,448,_ZN7testing8internal15TestFactoryImplI22var_is_calculable_TestE10CreateTestEv
FN:448,448,_ZN7testing8internal15TestFactoryImplI22var_logical_unary_TestE10CreateTestEv
FN:448,448,_ZN7testing8internal15TestFactoryImplI23algo_binary_search_TestE10CreateTestEv
FN:448,448,_ZN7testing8internal15TestFactoryImplI23jitter_test_assign_TestE10CreateTestEv
FN:448,448,_ZN7testing8internal15TestFactoryImplI23jitter_test_for_in_TestE10CreateTestEv
FN:448,448,_ZN7testing8internal15TestFactoryImplI23jitter_test_repeat_TestE10CreateTestEv
FN:448,448,_ZN7testing8internal15TestFactoryImplI23syntax_tree_assign_TestE10CreateTestEv
FN:448,448,_ZN7testing8internal15TestFactoryImplI23syntax_tree_do_end_TestE10CreateTestEv
FN:448,448,_ZN7testing8internal15TestFactoryImplI23syntax_tree_for_in_TestE10CreateTestEv
FN:448,448,_ZN7testing8internal15TestFactoryImplI23syntax_tree_number_TestE10CreateTestEv
FN:448,448,_ZN7testing8internal15TestFactoryImplI23syntax_tree_repeat_TestE10CreateTestEv
FN:448,448,_ZN7testing8internal15TestFactoryImplI23syntax_tree_string_TestE10CreateTestEv
FN:448,448,_ZN7testing8internal15TestFactoryImplI23var_equal_stringid_TestE10CreateTestEv
FN:448,448,_ZN7testing8internal15TestFactoryImplI23var_hash_int_float_TestE10CreateTestEv
FN:448,448,_ZN7testing8internal15TestFactoryImplI23var_mod_type_error_TestE10CreateTestEv
FN:448,448,_ZN7testing8internal15TestFactoryImplI23var_pow_type_error_TestE10CreateTestEv
FN:448,448,_ZN7testing8internal15TestFactoryImplI23var_var_table_keys_TestE10CreateTestEv
FN:448,448,_ZN7testing8internal15TestFactoryImplI23var_var_table_size_TestE10CreateTestEv
FN:448,448,_ZN7testing8internal15TestFactoryImplI23var_xor_type_error_TestE10CreateTestEv
FN:448,448,_ZN7testing8internal15TestFactoryImplI24algo_insertion_sort_TestE10CreateTestEv
FN:448,448,_ZN7testing8internal15TestFactoryImplI24exception_ToInteger_TestE10CreateTestEv
FN:448,448,_ZN7testing8internal15TestFactoryImplI24infer_test_spec_fib_TestE10CreateTestEv
FN:448,448,_ZN7testing8internal15TestFactoryImplI24jitter_const_define_TestE10CreateTestEv
FN:448,448,_ZN7testing8internal15TestFactoryImplI24jitter_local_define_TestE10CreateTestEv
FN:448,448,_ZN7testing8internal15TestFactoryImplI24jitter_multi_return_TestE10CreateTestEv
FN:448,448,_ZN7testing8internal15TestFactoryImplI24jitter_test_if_else_TestE10CreateTestEv
FN:448,448,_ZN7testing8internal15TestFactoryImplI24syntax_tree_for_num_TestE10CreateTestEv
FN:448,448,_ZN7testing8internal15TestFactoryImplI24var_equal_float_nan_TestE10CreateTestEv
FN:448,448,_ZN7testing8internal15TestFactoryImplI24var_less_type_error_TestE10CreateTestEv
FN:448,448,_ZN7testing8internal15TestFactoryImplI24var_more_type_error_TestE10CreateTestEv
FN:448,448,_ZN7testing8internal15TestFactoryImplI24var_plus_type_error_TestE10CreateTestEv
FN:448,448,_ZN7testing8internal15TestFactoryImplI24var_star_type_error_TestE10CreateTestEv
FN:448,448,_ZN7testing8internal15TestFactoryImplI25jitter_test_binop_or_TestE10CreateTestEv
FN:448,448,_ZN7testing8internal15TestFactoryImplI25jitter_test_do_block_TestE10CreateTestEv
FN:448,448,_ZN7testing8internal15TestFactoryImplI25jitter_test_for_loop_TestE10CreateTestEv
FN:448,448,_ZN7testing8internal15TestFactoryImplI25jitter_test_unop_len_TestE10CreateTestEv
FN:448,448,_ZN7testing8internal15TestFactoryImplI25jitter_test_unop_not_TestE10CreateTestEv
FN:448,448,_ZN7testing8internal15TestFactoryImplI25jitter_variadic_func_TestE10CreateTestEv
FN:448,448,_ZN7testing8internal15TestFactoryImplI25syntax_tree_continue_TestE10CreateTestEv
FN:448,448,_ZN7testing8internal15TestFactoryImplI25syntax_tree_function_TestE10CreateTestEv
FN:448,448,_ZN7testing8internal15TestFactoryImplI25syntax_tree_var_attr_TestE10CreateTestEv
FN:448,448,_ZN7testing8internal15TestFactoryImplI25var_bitor_type_error_TestE10CreateTestEv
FN:448,448,_ZN7testing8internal15TestFactoryImplI25var_minus_type_error_TestE10CreateTestEv
FN:448,448,_ZN7testing8internal15TestFactoryImplI25var_mod_float_result_TestE10CreateTestEv
FN:448,448,_ZN7testing8internal15TestFactoryImplI25var_slash_type_error_TestE10CreateTestEv
FN:448,448,_ZN7testing8internal15TestFactoryImplI26common_escapse_string_TestE10CreateTestEv
FN:448,448,_ZN7testing8internal15TestFactoryImplI26jitter_multi_col_name_TestE10CreateTestEv
FN:448,448,_ZN7testing8internal15TestFactoryImplI26jitter_test_binop_and_TestE10CreateTestEv
FN:448,448,_ZN7testing8internal15TestFactoryImplI26jitter_test_binop_mod_TestE10CreateTestEv
FN:448,448,_ZN7testing8internal15TestFactoryImplI26jitter_test_binop_pow_TestE10CreateTestEv
FN:448,448,_ZN7testing8internal15TestFactoryImplI26jitter_test_binop_xor_TestE10CreateTestEv
FN:448,448,_ZN7testing8internal15TestFactoryImplI26jitter_test_if_elseif_TestE10CreateTestEv
FN:448,448,_ZN7testing8internal15TestFactoryImplI26jitter_test_if_simple_TestE10CreateTestEv
FN:448,448,_ZN7testing8internal15TestFactoryImplI26var_bitand_type_error_TestE10CreateTestEv
FN:448,448,_ZN7testing8internal15TestFactoryImplI26var_equal_with_result_TestE10CreateTestEv
FN:448,448,_ZN7testing8internal15TestFactoryImplI26var_hash_string_types_TestE10CreateTestEv
FN:448,448,_ZN7testing8internal15TestFactoryImplI26var_less_float_result_TestE10CreateTestEv
FN:448,448,_ZN7testing8internal15TestFactoryImplI26var_more_float_result_TestE10CreateTestEv
FN:448,448,_ZN7testing8internal15TestFactoryImplI26var_plus_float_result_TestE10CreateTestEv
FN:448,448,_ZN7testing8internal15TestFactoryImplI26var_star_float_result_TestE10CreateTestEv
FN:448,448,_ZN7testing8internal15TestFactoryImplI26var_tostring_stringid_TestE10CreateTestEv
FN:448,448,_ZN7testing8internal15TestFactoryImplI27common_flag_bit_macros_TestE10CreateTestEv
FN:448,448,_ZN7testing8internal15TestFactoryImplI27exception_compile_fail_TestE10CreateTestEv
FN:448,448,_ZN7testing8internal15TestFactoryImplI27exception_debug_assert_TestE10CreateTestEv
FN:448,448,_ZN7testing8internal15TestFactoryImplI27jitter_test_binop_less_TestE10CreateTestEv
FN:448,448,_ZN7testing8internal15TestFactoryImplI27jitter_test_binop_more_TestE10CreateTestEv
FN:448,448,_ZN7testing8internal15TestFactoryImplI27jitter_test_binop_plus_TestE10CreateTestEv
FN:448,448,_ZN7testing8internal15TestFactoryImplI27jitter_test_binop_star_TestE10CreateTestEv
FN:448,448,_ZN7testing8internal15TestFactoryImplI27jitter_test_unop_minus_TestE10CreateTestEv
FN:448,448,_ZN7testing8internal15TestFactoryImplI27syntax_tree_test_empty_TestE10CreateTestEv
FN:448,448,_ZN7testing8internal15TestFactoryImplI27var_var_table_nan_keys_TestE10CreateTestEv
FN:448,448,_ZN7testing8internal15TestFactoryImplI27var_vartable_get_empty_TestE10CreateTestEv
FN:448,448,_ZN7testing8internal15TestFactoryImplI28common_JoinString_empty_TestE10CreateTestEv
FN:448,448,_ZN7testing8internal15TestFactoryImplI28jitter_empty_local_func_TestE10CreateTestEv
FN:448,448,_ZN7testing8internal15TestFactoryImplI28jitter_multi_return_sub_TestE10CreateTestEv
FN:448,448,_ZN7testing8internal15TestFactoryImplI28jitter_test_binop_bitor_TestE10CreateTestEv
FN:448,448,_ZN7testing8internal15TestFactoryImplI28jitter_test_binop_equal_TestE10CreateTestEv
FN:448,448,_ZN7testing8internal15TestFactoryImplI28jitter_test_binop_minus_TestE10CreateTestEv
FN:448,448,_ZN7testing8internal15TestFactoryImplI28jitter_test_binop_slash_TestE10CreateTestEv
FN:448,448,_ZN7testing8internal15TestFactoryImplI28jitter_test_const_table_TestE10CreateTestEv
FN:448,448,_ZN7testing8internal15TestFactoryImplI28jitter_test_local_table_TestE10CreateTestEv
FN:448,448,_ZN7testing8internal15TestFactoryImplI28jitter_test_unop_bitnot_TestE10CreateTestEv
FN:448,448,_ZN7testing8internal15TestFactoryImplI28jitter_test_while_break_TestE10CreateTestEv
FN:448,448,_ZN7testing8internal15TestFactoryImplI28syntax_tree_constructor_TestE10CreateTestEv
FN:448,448,_ZN7testing8internal15TestFactoryImplI28var_hash_default_branch_TestE10CreateTestEv
FN:448,448,_ZN7testing8internal15TestFactoryImplI29common_ToFloat_hex_large_TestE10CreateTestEv
FN:448,448,_ZN7testing8internal15TestFactoryImplI29jitter_multi_return_call_TestE10CreateTestEv
FN:448,448,_ZN7testing8internal15TestFactoryImplI29jitter_test_binop_and_or_TestE10CreateTestEv
FN:448,448,_ZN7testing8internal15TestFactoryImplI29jitter_test_binop_bitand_TestE10CreateTestEv
FN:448,448,_ZN7testing8internal15TestFactoryImplI29jitter_test_binop_concat_TestE10CreateTestEv
FN:448,448,_ZN7testing8internal15TestFactoryImplI29jitter_test_empty_return_TestE10CreateTestEv
FN:448,448,_ZN7testing8internal15TestFactoryImplI29jitter_test_for_in_break_TestE10CreateTestEv
FN:448,448,_ZN7testing8internal15TestFactoryImplI29jitter_test_repeat_break_TestE10CreateTestEv
FN:448,448,_ZN7testing8internal15TestFactoryImplI29jitter_test_while_double_TestE10CreateTestEv
FN:448,448,_ZN7testing8internal15TestFactoryImplI29jitter_test_while_return_TestE10CreateTestEv
FN:448,448,_ZN7testing8internal15TestFactoryImplI29syntax_tree_function_exp_TestE10CreateTestEv
FN:448,448,_ZN7testing8internal15TestFactoryImplI29var_equal_default_branch_TestE10CreateTestEv
FN:448,448,_ZN7testing8internal15TestFactoryImplI29var_leftshift_over_width_TestE10CreateTestEv
FN:448,448,_ZN7testing8internal15TestFactoryImplI29var_leftshift_type_error_TestE10CreateTestEv
FN:448,448,_ZN7testing8internal15TestFactoryImplI29var_mod_division_by_zero_TestE10CreateTestEv
FN:448,448,_ZN7testing8internal15TestFactoryImplI29var_table_get_type_error_TestE10CreateTestEv
FN:448,448,_ZN7testing8internal15TestFactoryImplI29var_table_set_type_error_TestE10CreateTestEv
FN:448,448,_ZN7testing8internal15TestFactoryImplI29var_vartable_large_scale_TestE10CreateTestEv
FN:448,448,_ZN7testing8internal15TestFactoryImplI29var_vartable_stress_test_TestE10CreateTestEv
FN:448,448,_ZN7testing8internal15TestFactoryImplI29var_vartable_string_keys_TestE10CreateTestEv
FN:448,448,_ZN7testing8internal15TestFactoryImplI30common_ToFloat_hex_errors_TestE10CreateTestEv
FN:448,448,_ZN7testing8internal15TestFactoryImplI30exception_DebugAssertFail_TestE10CreateTestEv
FN:448,448,_ZN7testing8internal15TestFactoryImplI30exception_compile_no_file_TestE10CreateTestEv
FN:448,448,_ZN7testing8internal15TestFactoryImplI30infer_test_infer_mutation_TestE10CreateTestEv
FN:448,448,_ZN7testing8internal15TestFactoryImplI30jitter_multi_const_define_TestE10CreateTestEv
FN:448,448,_ZN7testing8internal15TestFactoryImplI30jitter_multi_return_multi_TestE10CreateTestEv
FN:448,448,_ZN7testing8internal15TestFactoryImplI30jitter_test_for_in_double_TestE10CreateTestEv
FN:448,448,_ZN7testing8internal15TestFactoryImplI30jitter_test_for_in_return_TestE10CreateTestEv
FN:448,448,_ZN7testing8internal15TestFactoryImplI30jitter_test_repeat_double_TestE10CreateTestEv
FN:448,448,_ZN7testing8internal15TestFactoryImplI30jitter_test_repeat_return_TestE10CreateTestEv
FN:448,448,_ZN7testing8internal15TestFactoryImplI30jitter_test_table_get_set_TestE10CreateTestEv
FN:448,448,_ZN7testing8internal15TestFactoryImplI30jitter_test_var_func_call_TestE10CreateTestEv
FN:448,448,_ZN7testing8internal15TestFactoryImplI30syntax_tree_CompileString_TestE10CreateTestEv
FN:448,448,_ZN7testing8internal15TestFactoryImplI30syntax_tree_assign_simple_TestE10CreateTestEv
FN:448,448,_ZN7testing8internal15TestFactoryImplI30syntax_tree_function_call_TestE10CreateTestEv
FN:448,448,_ZN7testing8internal15TestFactoryImplI30var_equal_string_stringid_TestE10CreateTestEv
FN:448,448,_ZN7testing8internal15TestFactoryImplI30var_is_calculable_integer_TestE10CreateTestEv
FN:448,448,_ZN7testing8internal15TestFactoryImplI30var_less_equal_type_error_TestE10CreateTestEv
FN:448,448,_ZN7testing8internal15TestFactoryImplI30var_more_equal_type_error_TestE10CreateTestEv
FN:448,448,_ZN7testing8internal15TestFactoryImplI30var_rightshift_over_width_TestE10CreateTestEv
FN:448,448,_ZN7testing8internal15TestFactoryImplI30var_rightshift_type_error_TestE10CreateTestEv
FN:448,448,_ZN7testing8internal15TestFactoryImplI30var_table_size_type_error_TestE10CreateTestEv
FN:448,448,_ZN7testing8internal15TestFactoryImplI30var_unop_minus_type_error_TestE10CreateTestEv
FN:448,448,_ZN7testing8internal15TestFactoryImplI30var_vartable_delete_empty_TestE10CreateTestEv
FN:448,448,_ZN7testing8internal15TestFactoryImplI31exception_test_break_error_TestE10CreateTestEv
FN:448,448,_ZN7testing8internal15TestFactoryImplI31infer_test_infer_bottom_up_TestE10CreateTestEv
FN:448,448,_ZN7testing8internal15TestFactoryImplI31infer_test_infer_paren_exp_TestE10CreateTestEv
FN:448,448,_ZN7testing8internal15TestFactoryImplI31infer_test_infer_shadowing_TestE10CreateTestEv
FN:448,448,_ZN7testing8internal15TestFactoryImplI31jitter_test_binop_and_bool_TestE10CreateTestEv
FN:448,448,_ZN7testing8internal15TestFactoryImplI31jitter_test_const_binop_or_TestE10CreateTestEv
FN:448,448,_ZN7testing8internal15TestFactoryImplI31jitter_test_const_unop_len_TestE10CreateTestEv
FN:448,448,_ZN7testing8internal15TestFactoryImplI31jitter_test_const_unop_not_TestE10CreateTestEv
FN:448,448,_ZN7testing8internal15TestFactoryImplI31jitter_test_for_loop_break_TestE10CreateTestEv
FN:448,448,_ZN7testing8internal15TestFactoryImplI31var_doubleslash_type_error_TestE10CreateTestEv
FN:448,448,_ZN7testing8internal15TestFactoryImplI31var_get_string_string_type_TestE10CreateTestEv
FN:448,448,_ZN7testing8internal15TestFactoryImplI31var_unop_bitnot_type_error_TestE10CreateTestEv
FN:448,448,_ZN7testing8internal15TestFactoryImplI31var_vartable_rehash_expand_TestE10CreateTestEv
FN:448,448,_ZN7testing8internal15TestFactoryImplI32infer_test_spec_forin_param_TestE10CreateTestEv
FN:448,448,_ZN7testing8internal15TestFactoryImplI32infer_test_spec_multi_param_TestE10CreateTestEv
FN:448,448,_ZN7testing8internal15TestFactoryImplI32infer_test_spec_wrapper_var_TestE10CreateTestEv
FN:448,448,_ZN7testing8internal15TestFactoryImplI32jitter_compile_empty_string_TestE10CreateTestEv
FN:448,448,_ZN7testing8internal15TestFactoryImplI32jitter_multi_return_call_ex_TestE10CreateTestEv
FN:448,448,_ZN7testing8internal15TestFactoryImplI32jitter_test_binop_not_equal_TestE10CreateTestEv
FN:448,448,_ZN7testing8internal15TestFactoryImplI32jitter_test_const_binop_and_TestE10CreateTestEv
FN:448,448,_ZN7testing8internal15TestFactoryImplI32jitter_test_const_binop_mod_TestE10CreateTestEv
FN:448,448,_ZN7testing8internal15TestFactoryImplI32jitter_test_const_binop_pow_TestE10CreateTestEv
FN:448,448,_ZN7testing8internal15TestFactoryImplI32jitter_test_const_binop_xor_TestE10CreateTestEv
FN:448,448,_ZN7testing8internal15TestFactoryImplI32jitter_test_empty_func_call_TestE10CreateTestEv
FN:448,448,_ZN7testing8internal15TestFactoryImplI32jitter_test_for_loop_double_TestE10CreateTestEv
FN:448,448,_ZN7testing8internal15TestFactoryImplI32jitter_test_for_loop_return_TestE10CreateTestEv
FN:448,448,_ZN7testing8internal15TestFactoryImplI32jitter_test_local_func_call_TestE10CreateTestEv
FN:448,448,_ZN7testing8internal15TestFactoryImplI32jitter_test_other_func_call_TestE10CreateTestEv
FN:448,448,_ZN7testing8internal15TestFactoryImplI32jitter_test_table_empty_get_TestE10CreateTestEv
FN:448,448,_ZN7testing8internal15TestFactoryImplI32jitter_test_while_if_return_TestE10CreateTestEv
FN:448,448,_ZN7testing8internal15TestFactoryImplI32runtime_exec_returns_output_TestE10CreateTestEv
FN:448,448,_ZN7testing8internal15TestFactoryImplI32var_less_equal_float_result_TestE10CreateTestEv
FN:448,448,_ZN7testing8internal15TestFactoryImplI32var_more_equal_float_result_TestE10CreateTestEv
FN:448,448,_ZN7testing8internal15TestFactoryImplI32var_unop_minus_float_result_TestE10CreateTestEv
FN:448,448,_ZN7testing8internal15TestFactoryImplI33exception_ReplaceEscapeChars_TestE10CreateTestEv
FN:448,448,_ZN7testing8internal15TestFactoryImplI33exception_stmt_support_error_TestE10CreateTestEv
FN:448,448,_ZN7testing8internal15TestFactoryImplI33infer_test_spec_elseif_param_TestE10CreateTestEv
FN:448,448,_ZN7testing8internal15TestFactoryImplI33jitter_multi_return_multi_ex_TestE10CreateTestEv
FN:448,448,_ZN7testing8internal15TestFactoryImplI33jitter_test_assign_not_match_TestE10CreateTestEv
FN:448,448,_ZN7testing8internal15TestFactoryImplI33jitter_test_assign_table_var_TestE10CreateTestEv
FN:448,448,_ZN7testing8internal15TestFactoryImplI33jitter_test_binop_left_shift_TestE10CreateTestEv
FN:448,448,_ZN7testing8internal15TestFactoryImplI33jitter_test_binop_less_equal_TestE10CreateTestEv
FN:448,448,_ZN7testing8internal15TestFactoryImplI33jitter_test_binop_more_equal_TestE10CreateTestEv
FN:448,448,_ZN7testing8internal15TestFactoryImplI33jitter_test_const_binop_less_TestE10CreateTestEv
FN:448,448,_ZN7testing8internal15TestFactoryImplI33jitter_test_const_binop_more_TestE10CreateTestEv
FN:448,448,_ZN7testing8internal15TestFactoryImplI33jitter_test_const_binop_plus_TestE10CreateTestEv
FN:448,448,_ZN7testing8internal15TestFactoryImplI33jitter_test_const_binop_star_TestE10CreateTestEv
FN:448,448,_ZN7testing8internal15TestFactoryImplI33jitter_test_const_unop_minus_TestE10CreateTestEv
FN:448,448,_ZN7testing8internal15TestFactoryImplI33jitter_test_for_in_if_return_TestE10CreateTestEv
FN:448,448,_ZN7testing8internal15TestFactoryImplI33jitter_test_for_loop_default_TestE10CreateTestEv
FN:448,448,_ZN7testing8internal15TestFactoryImplI33jitter_test_global_func_call_TestE10CreateTestEv
FN:448,448,_ZN7testing8internal15TestFactoryImplI33jitter_test_if_elseif_normal_TestE10CreateTestEv
FN:448,448,_ZN7testing8internal15TestFactoryImplI33jitter_test_if_elseif_return_TestE10CreateTestEv
FN:448,448,_ZN7testing8internal15TestFactoryImplI33jitter_test_repeat_if_return_TestE10CreateTestEv
FN:448,448,_ZN7testing8internal15TestFactoryImplI33jitter_test_while_just_break_TestE10CreateTestEv
FN:448,448,_ZN7testing8internal15TestFactoryImplI33var_doubleslash_float_result_TestE10CreateTestEv
FN:448,448,_ZN7testing8internal15TestFactoryImplI33var_get_string_stringid_type_TestE10CreateTestEv
FN:448,448,_ZN7testing8internal15TestFactoryImplI33var_leftshift_negative_shift_TestE10CreateTestEv
FN:448,448,_ZN7testing8internal15TestFactoryImplI33var_var_table_int_float_keys_TestE10CreateTestEv
FN:448,448,_ZN7testing8internal15TestFactoryImplI34exception_label_support_error_TestE10CreateTestEv
FN:448,448,_ZN7testing8internal15TestFactoryImplI34infer_test_infer_for_step_int_TestE10CreateTestEv
FN:448,448,_ZN7testing8internal15TestFactoryImplI34jitter_empty_func_with_params_TestE10CreateTestEv
FN:448,448,_ZN7testing8internal15TestFactoryImplI34jitter_test_assign_simple_var_TestE10CreateTestEv
FN:448,448,_ZN7testing8internal15TestFactoryImplI34jitter_test_binop_right_shift_TestE10CreateTestEv
FN:448,448,_ZN7testing8internal15TestFactoryImplI34jitter_test_const_binop_bitor_TestE10CreateTestEv
FN:448,448,_ZN7testing8internal15TestFactoryImplI34jitter_test_const_binop_equal_TestE10CreateTestEv
FN:448,448,_ZN7testing8internal15TestFactoryImplI34jitter_test_const_binop_minus_TestE10CreateTestEv
FN:448,448,_ZN7testing8internal15TestFactoryImplI34jitter_test_const_binop_slash_TestE10CreateTestEv
FN:448,448,_ZN7testing8internal15TestFactoryImplI34jitter_test_const_unop_bitnot_TestE10CreateTestEv
FN:448,448,_ZN7testing8internal15TestFactoryImplI34jitter_test_for_in_just_break_TestE10CreateTestEv
FN:448,448,_ZN7testing8internal15TestFactoryImplI34jitter_test_repeat_just_break_TestE10CreateTestEv
FN:448,448,_ZN7testing8internal15TestFactoryImplI34syntax_tree_test_binop_order1_TestE10CreateTestEv
FN:448,448,_ZN7testing8internal15TestFactoryImplI34syntax_tree_test_binop_order2_TestE10CreateTestEv
FN:448,448,_ZN7testing8internal15TestFactoryImplI34syntax_tree_test_binop_order3_TestE10CreateTestEv
FN:448,448,_ZN7testing8internal15TestFactoryImplI34syntax_tree_test_binop_order4_TestE10CreateTestEv
FN:448,448,_ZN7testing8internal15TestFactoryImplI34syntax_tree_test_binop_order5_TestE10CreateTestEv
FN:448,448,_ZN7testing8internal15TestFactoryImplI34syntax_tree_test_binop_order6_TestE10CreateTestEv
FN:448,448,_ZN7testing8internal15TestFactoryImplI34var_VarTypeToString_all_types_TestE10CreateTestEv
FN:448,448,_ZN7testing8internal15TestFactoryImplI34var_rightshift_negative_shift_TestE10CreateTestEv
FN:448,448,_ZN7testing8internal15TestFactoryImplI34var_unop_number_sign_stringid_TestE10CreateTestEv
FN:448,448,_ZN7testing8internal15TestFactoryImplI34var_vartable_insert_raw_chain_TestE10CreateTestEv
FN:448,448,_ZN7testing8internal15TestFactoryImplI35common_ToInteger_hex_int64_min_TestE10CreateTestEv
FN:448,448,_ZN7testing8internal15TestFactoryImplI35infer_test_infer_degrade_param_TestE10CreateTestEv
FN:448,448,_ZN7testing8internal15TestFactoryImplI35infer_test_infer_typed_int_for_TestE10CreateTestEv
FN:448,448,_ZN7testing8internal15TestFactoryImplI35infer_test_infer_typed_int_mod_TestE10CreateTestEv
FN:448,448,_ZN7testing8internal15TestFactoryImplI35jitter_test_binop_double_slash_TestE10CreateTestEv
FN:448,448,_ZN7testing8internal15TestFactoryImplI35jitter_test_const_binop_bitand_TestE10CreateTestEv
FN:448,448,_ZN7testing8internal15TestFactoryImplI35jitter_test_const_binop_concat_TestE10CreateTestEv
FN:448,448,_ZN7testing8internal15TestFactoryImplI35jitter_test_const_nested_table_TestE10CreateTestEv
FN:448,448,_ZN7testing8internal15TestFactoryImplI35jitter_test_for_loop_if_return_TestE10CreateTestEv
FN:448,448,_ZN7testing8internal15TestFactoryImplI35jitter_test_local_nested_table_TestE10CreateTestEv
FN:448,448,_ZN7testing8internal15TestFactoryImplI35jitter_test_table_quick_delete_TestE10CreateTestEv
FN:448,448,_ZN7testing8internal15TestFactoryImplI35runtime_state_config_is_stored_TestE10CreateTestEv
FN:448,448,_ZN7testing8internal15TestFactoryImplI35syntax_tree_function_call_args_TestE10CreateTestEv
FN:448,448,_ZN7testing8internal15TestFactoryImplI35var_equal_int_float_cross_type_TestE10CreateTestEv
FN:448,448,_ZN7testing8internal15TestFactoryImplI35var_table_hash_collision_chain_TestE10CreateTestEv
FN:448,448,_ZN7testing8internal15TestFactoryImplI35var_unop_numbersign_type_error_TestE10CreateTestEv
FN:448,448,_ZN7testing8internal15TestFactoryImplI35var_vartable_find_key_in_chain_TestE10CreateTestEv
FN:448,448,_ZN7testing8internal15TestFactoryImplI36common_ToInteger_neg_hex_errors_TestE10CreateTestEv
FN:448,448,_ZN7testing8internal15TestFactoryImplI36exception_const_define_no_match_TestE10CreateTestEv
FN:448,448,_ZN7testing8internal15TestFactoryImplI36exception_const_define_variadic_TestE10CreateTestEv
FN:448,448,_ZN7testing8internal15TestFactoryImplI36exception_const_func_call_error_TestE10CreateTestEv
FN:448,448,_ZN7testing8internal15TestFactoryImplI36exception_return_type_error_int_TestE10CreateTestEv
FN:448,448,_ZN7testing8internal15TestFactoryImplI36exception_test_for_in_exp_error_TestE10CreateTestEv
FN:448,448,_ZN7testing8internal15TestFactoryImplI36infer_test_infer_type_pollution_TestE10CreateTestEv
FN:448,448,_ZN7testing8internal15TestFactoryImplI36infer_test_infer_typed_int_star_TestE10CreateTestEv
FN:448,448,_ZN7testing8internal15TestFactoryImplI36jitter_local_define_with_values_TestE10CreateTestEv
FN:448,448,_ZN7testing8internal15TestFactoryImplI36jitter_test_for_loop_just_break_TestE10CreateTestEv
FN:448,448,_ZN7testing8internal15TestFactoryImplI36jitter_test_table_var_func_call_TestE10CreateTestEv
FN:448,448,_ZN7testing8internal15TestFactoryImplI37exception_const_define_duplicate_TestE10CreateTestEv
FN:448,448,_ZN7testing8internal15TestFactoryImplI37exception_no_define_lvalue_error_TestE10CreateTestEv
FN:448,448,_ZN7testing8internal15TestFactoryImplI37exception_return_type_error_bool_TestE10CreateTestEv
FN:448,448,_ZN7testing8internal15TestFactoryImplI37exception_return_type_error_char_TestE10CreateTestEv
FN:448,448,_ZN7testing8internal15TestFactoryImplI37exception_return_type_error_long_TestE10CreateTestEv
FN:448,448,_ZN7testing8internal15TestFactoryImplI37exception_return_type_error_uint_TestE10CreateTestEv
FN:448,448,_ZN7testing8internal15TestFactoryImplI37exception_test_for_in_func_error_TestE10CreateTestEv
FN:448,448,_ZN7testing8internal15TestFactoryImplI37infer_test_infer_reassign_stable_TestE10CreateTestEv
FN:448,448,_ZN7testing8internal15TestFactoryImplI37infer_test_infer_typed_float_for_TestE10CreateTestEv
FN:448,448,_ZN7testing8internal15TestFactoryImplI37infer_test_infer_typed_float_mod_TestE10CreateTestEv
FN:448,448,_ZN7testing8internal15TestFactoryImplI37infer_test_infer_typed_float_pow_TestE10CreateTestEv
FN:448,448,_ZN7testing8internal15TestFactoryImplI37infer_test_infer_typed_int_bitor_TestE10CreateTestEv
FN:448,448,_ZN7testing8internal15TestFactoryImplI37infer_test_infer_typed_int_minus_TestE10CreateTestEv
FN:448,448,_ZN7testing8internal15TestFactoryImplI37jitter_test_empty_func_no_return_TestE10CreateTestEv
FN:448,448,_ZN7testing8internal15TestFactoryImplI37jitter_variadic_func_with_params_TestE10CreateTestEv
FN:448,448,_ZN7testing8internal15TestFactoryImplI37syntax_tree_parse_failure_throws_TestE10CreateTestEv
FN:448,448,_ZN7testing8internal15TestFactoryImplI37var_doubleslash_division_by_zero_TestE10CreateTestEv
FN:448,448,_ZN7testing8internal15TestFactoryImplI37var_vartable_update_after_rehash_TestE10CreateTestEv
FN:448,448,_ZN7testing8internal15TestFactoryImplI38exception_function_call_exception_TestE10CreateTestEv
FN:448,448,_ZN7testing8internal15TestFactoryImplI38exception_return_type_error_float_TestE10CreateTestEv
FN:448,448,_ZN7testing8internal15TestFactoryImplI38exception_return_type_error_short_TestE10CreateTestEv
FN:448,448,_ZN7testing8internal15TestFactoryImplI38exception_return_type_error_uchar_TestE10CreateTestEv
FN:448,448,_ZN7testing8internal15TestFactoryImplI38exception_return_type_error_ulong_TestE10CreateTestEv
FN:448,448,_ZN7testing8internal15TestFactoryImplI38exception_test_for_in_pairs_error_TestE10CreateTestEv
FN:448,448,_ZN7testing8internal15TestFactoryImplI38infer_test_infer_for_shadow_case1_TestE10CreateTestEv
FN:448,448,_ZN7testing8internal15TestFactoryImplI38infer_test_infer_for_shadow_case2_TestE10CreateTestEv
FN:448,448,_ZN7testing8internal15TestFactoryImplI38infer_test_infer_for_shadow_case3_TestE10CreateTestEv
FN:448,448,_ZN7testing8internal15TestFactoryImplI38infer_test_infer_for_shadow_case4_TestE10CreateTestEv
FN:448,448,_ZN7testing8internal15TestFactoryImplI38infer_test_infer_for_step_dynamic_TestE10CreateTestEv
FN:448,448,_ZN7testing8internal15TestFactoryImplI38infer_test_infer_if_scope_degrade_TestE10CreateTestEv
FN:448,448,_ZN7testing8internal15TestFactoryImplI38infer_test_infer_typed_float_star_TestE10CreateTestEv
FN:448,448,_ZN7testing8internal15TestFactoryImplI38infer_test_infer_typed_int_bitand_TestE10CreateTestEv
FN:448,448,_ZN7testing8internal15TestFactoryImplI38infer_test_infer_typed_int_bitnot_TestE10CreateTestEv
FN:448,448,_ZN7testing8internal15TestFactoryImplI38infer_test_infer_typed_int_bitxor_TestE10CreateTestEv
FN:448,448,_ZN7testing8internal15TestFactoryImplI38jitter_test_assign_variadic_empty_TestE10CreateTestEv
FN:448,448,_ZN7testing8internal15TestFactoryImplI38jitter_test_assign_variadic_match_TestE10CreateTestEv
FN:448,448,_ZN7testing8internal15TestFactoryImplI38jitter_test_binop_equal_int_float_TestE10CreateTestEv
FN:448,448,_ZN7testing8internal15TestFactoryImplI38jitter_test_const_binop_not_equal_TestE10CreateTestEv
FN:448,448,_ZN7testing8internal15TestFactoryImplI39exception_function_param_duplicate_TestE10CreateTestEv
FN:448,448,_ZN7testing8internal15TestFactoryImplI39exception_function_too_many_params_TestE10CreateTestEv
FN:448,448,_ZN7testing8internal15TestFactoryImplI39exception_return_type_error_double_TestE10CreateTestEv
FN:448,448,_ZN7testing8internal15TestFactoryImplI39exception_return_type_error_string_TestE10CreateTestEv
FN:448,448,_ZN7testing8internal15TestFactoryImplI39exception_return_type_error_ushort_TestE10CreateTestEv
FN:448,448,_ZN7testing8internal15TestFactoryImplI39exception_test_for_in_prefix_error_TestE10CreateTestEv
FN:448,448,_ZN7testing8internal15TestFactoryImplI39infer_test_infer_degrade_func_call_TestE10CreateTestEv
FN:448,448,_ZN7testing8internal15TestFactoryImplI39infer_test_infer_return_stale_type_TestE10CreateTestEv
FN:448,448,_ZN7testing8internal15TestFactoryImplI39infer_test_infer_typed_float_local_TestE10CreateTestEv
FN:448,448,_ZN7testing8internal15TestFactoryImplI39infer_test_infer_typed_float_minus_TestE10CreateTestEv
FN:448,448,_ZN7testing8internal15TestFactoryImplI39infer_test_infer_typed_float_slash_TestE10CreateTestEv
FN:448,448,_ZN7testing8internal15TestFactoryImplI39jitter_test_assign_same_line_multi_TestE10CreateTestEv
FN:448,448,_ZN7testing8internal15TestFactoryImplI39jitter_test_const_binop_left_shift_TestE10CreateTestEv
FN:448,448,_ZN7testing8internal15TestFactoryImplI39jitter_test_const_binop_less_equal_TestE10CreateTestEv
FN:448,448,_ZN7testing8internal15TestFactoryImplI39jitter_test_const_binop_more_equal_TestE10CreateTestEv
FN:448,448,_ZN7testing8internal15TestFactoryImplI39jitter_test_for_in_return_fallback_TestE10CreateTestEv
FN:448,448,_ZN7testing8internal15TestFactoryImplI39jitter_test_local_func_call_string_TestE10CreateTestEv
FN:448,448,_ZN7testing8internal15TestFactoryImplI39jitter_test_table_hash_delete_head_TestE10CreateTestEv
FN:448,448,_ZN7testing8internal15TestFactoryImplI39var_get_calculable_number_from_int_TestE10CreateTestEv
FN:448,448,_ZN7testing8internal15TestFactoryImplI39var_vartable_delete_with_collision_TestE10CreateTestEv
FN:448,448,_ZN7testing8internal15TestFactoryImplI39var_vartable_get_nil_key_exception_TestE10CreateTestEv
FN:448,448,_ZN7testing8internal15TestFactoryImplI39var_vartable_rehash_from_hash_mode_TestE10CreateTestEv
FN:448,448,_ZN7testing8internal15TestFactoryImplI39var_vartable_set_nil_key_exception_TestE10CreateTestEv
FN:448,448,_ZN7testing8internal15TestFactoryImplI40exception_test_const_unop_len_error_TestE10CreateTestEv
FN:448,448,_ZN7testing8internal15TestFactoryImplI40exception_test_for_in_explist_error_TestE10CreateTestEv
FN:448,448,_ZN7testing8internal15TestFactoryImplI40infer_test_infer_typed_int_for_star_TestE10CreateTestEv
FN:448,448,_ZN7testing8internal15TestFactoryImplI40jitter_test_const_binop_right_shift_TestE10CreateTestEv
FN:448,448,_ZN7testing8internal15TestFactoryImplI40jitter_test_const_define_simple_var_TestE10CreateTestEv
FN:448,448,_ZN7testing8internal15TestFactoryImplI40jitter_test_table_hash_delete_chain_TestE10CreateTestEv
FN:448,448,_ZN7testing8internal15TestFactoryImplI40runtime_vm_call_by_name_error_cases_TestE10CreateTestEv
FN:448,448,_ZN7testing8internal15TestFactoryImplI40var_vartable_delete_hash_mode_found_TestE10CreateTestEv
FN:448,448,_ZN7testing8internal15TestFactoryImplI41exception_test_const_binop_mod_error_TestE10CreateTestEv
FN:448,448,_ZN7testing8internal15TestFactoryImplI41exception_test_const_binop_pow_error_TestE10CreateTestEv
FN:448,448,_ZN7testing8internal15TestFactoryImplI41exception_test_const_binop_xor_error_TestE10CreateTestEv
FN:448,448,_ZN7testing8internal15TestFactoryImplI41exception_test_for_in_namelist_error_TestE10CreateTestEv
FN:448,448,_ZN7testing8internal15TestFactoryImplI41infer_test_infer_assign_degraded_var_TestE10CreateTestEv
FN:448,448,_ZN7testing8internal15TestFactoryImplI41infer_test_infer_int_float_promotion_TestE10CreateTestEv
FN:448,448,_ZN7testing8internal15TestFactoryImplI41infer_test_infer_typed_int_leftshift_TestE10CreateTestEv
FN:448,448,_ZN7testing8internal15TestFactoryImplI41infer_test_infer_while_scope_degrade_TestE10CreateTestEv
FN:448,448,_ZN7testing8internal15TestFactoryImplI41jitter_test_assign_variadic_no_match_TestE10CreateTestEv
FN:448,448,_ZN7testing8internal15TestFactoryImplI41jitter_test_const_binop_double_slash_TestE10CreateTestEv
FN:448,448,_ZN7testing8internal15TestFactoryImplI41var_vartable_get_hash_mode_not_found_TestE10CreateTestEv
FN:448,448,_ZN7testing8internal15TestFactoryImplI42exception_return_type_error_long_long_TestE10CreateTestEv
FN:448,448,_ZN7testing8internal15TestFactoryImplI42exception_test_const_binop_less_error_TestE10CreateTestEv
FN:448,448,_ZN7testing8internal15TestFactoryImplI42exception_test_const_binop_more_error_TestE10CreateTestEv
FN:448,448,_ZN7testing8internal15TestFactoryImplI42exception_test_const_binop_plus_error_TestE10CreateTestEv
FN:448,448,_ZN7testing8internal15TestFactoryImplI42exception_test_const_binop_star_error_TestE10CreateTestEv
FN:448,448,_ZN7testing8internal15TestFactoryImplI42exception_test_for_in_func_args_error_TestE10CreateTestEv
FN:448,448,_ZN7testing8internal15TestFactoryImplI42infer_test_infer_typed_float_for_step_TestE10CreateTestEv
FN:448,448,_ZN7testing8internal15TestFactoryImplI42infer_test_infer_typed_int_rightshift_TestE10CreateTestEv
FN:448,448,_ZN7testing8internal15TestFactoryImplI42jitter_test_binop_left_shift_overflow_TestE10CreateTestEv
FN:448,448,_ZN7testing8internal15TestFactoryImplI42jitter_test_local_table_with_variadic_TestE10CreateTestEv
FN:448,448,_ZN7testing8internal15TestFactoryImplI42runtime_inter_native_scalar_roundtrip_TestE10CreateTestEv
FN:448,448,_ZN7testing8internal15TestFactoryImplI42runtime_vm_call_by_name_success_cases_TestE10CreateTestEv
FN:448,448,_ZN7testing8internal15TestFactoryImplI42var_vartable_get_with_chain_traversal_TestE10CreateTestEv
FN:448,448,_ZN7testing8internal15TestFactoryImplI43exception_return_type_error_stringview_TestE10CreateTestEv
FN:448,448,_ZN7testing8internal15TestFactoryImplI43exception_return_type_error_ulong_long_TestE10CreateTestEv
FN:448,448,_ZN7testing8internal15TestFactoryImplI43exception_test_const_binop_bitor_error_TestE10CreateTestEv
FN:448,448,_ZN7testing8internal15TestFactoryImplI43exception_test_const_binop_minus_error_TestE10CreateTestEv
FN:448,448,_ZN7testing8internal15TestFactoryImplI43exception_test_const_binop_slash_error_TestE10CreateTestEv
FN:448,448,_ZN7testing8internal15TestFactoryImplI43exception_test_const_unop_bitnot_error_TestE10CreateTestEv
FN:448,448,_ZN7testing8internal15TestFactoryImplI43infer_test_infer_reassign_int_to_float_TestE10CreateTestEv
FN:448,448,_ZN7testing8internal15TestFactoryImplI43infer_test_infer_typed_float_for_mixed_TestE10CreateTestEv
FN:448,448,_ZN7testing8internal15TestFactoryImplI43infer_test_infer_typed_int_unary_minus_TestE10CreateTestEv
FN:448,448,_ZN7testing8internal15TestFactoryImplI43infer_test_infer_unary_minus_for_bound_TestE10CreateTestEv
FN:448,448,_ZN7testing8internal15TestFactoryImplI43jitter_test_binop_right_shift_overflow_TestE10CreateTestEv
FN:448,448,_ZN7testing8internal15TestFactoryImplI43jitter_test_table_stringid_dynamic_get_TestE10CreateTestEv
FN:448,448,_ZN7testing8internal15TestFactoryImplI43jitter_test_table_stringid_dynamic_set_TestE10CreateTestEv
FN:448,448,_ZN7testing8internal15TestFactoryImplI43var_table_float_key_out_of_int64_range_TestE10CreateTestEv
FN:448,448,_ZN7testing8internal15TestFactoryImplI44exception_global_duplicate_lvalue_error_TestE10CreateTestEv
FN:448,448,_ZN7testing8internal15TestFactoryImplI44exception_test_const_binop_bitand_error_TestE10CreateTestEv
FN:448,448,_ZN7testing8internal15TestFactoryImplI44exception_test_for_in_prefix_func_error_TestE10CreateTestEv
FN:448,448,_ZN7testing8internal15TestFactoryImplI44infer_test_infer_typed_int_double_slash_TestE10CreateTestEv
FN:448,448,_ZN7testing8internal15TestFactoryImplI44infer_test_infer_typed_int_negative_mod_TestE10CreateTestEv
FN:448,448,_ZN7testing8internal15TestFactoryImplI44var_vartable_delete_hash_mode_not_found_TestE10CreateTestEv
FN:448,448,_ZN7testing8internal15TestFactoryImplI45infer_test_infer_typed_float_unary_minus_TestE10CreateTestEv
FN:448,448,_ZN7testing8internal15TestFactoryImplI45var_vartable_delete_from_full_quick_data_TestE10CreateTestEv
FN:448,448,_ZN7testing8internal15TestFactoryImplI45var_vartable_delete_hash_mode_chain_node_TestE10CreateTestEv
FN:448,448,_ZN7testing8internal15TestFactoryImplI46infer_test_infer_typed_float_double_slash_TestE10CreateTestEv
FN:448,448,_ZN7testing8internal15TestFactoryImplI46jitter_test_table_float_int_key_alias_get_TestE10CreateTestEv
FN:448,448,_ZN7testing8internal15TestFactoryImplI46jitter_test_table_float_int_key_alias_set_TestE10CreateTestEv
FN:448,448,_ZN7testing8internal15TestFactoryImplI46runtime_generate_tmp_filename_creates_dir_TestE10CreateTestEv
FN:448,448,_ZN7testing8internal15TestFactoryImplI46runtime_heap_allocator_boundary_and_reset_TestE10CreateTestEv
FN:448,448,_ZN7testing8internal15TestFactoryImplI46var_vartable_delete_quick_data_swap_paths_TestE10CreateTestEv
FN:448,448,_ZN7testing8internal15TestFactoryImplI46var_vartable_get_quick_data_all_positions_TestE10CreateTestEv
FN:448,448,_ZN7testing8internal15TestFactoryImplI46var_vartable_update_existing_in_hash_mode_TestE10CreateTestEv
FN:448,448,_ZN7testing8internal15TestFactoryImplI47runtime_inter_object_conversion_and_errors_TestE10CreateTestEv
FN:448,448,_ZN7testing8internal15TestFactoryImplI47var_vartable_get_empty_bucket_in_hash_mode_TestE10CreateTestEv
FN:448,448,_ZN7testing8internal15TestFactoryImplI47var_vartable_get_hash_mode_chain_traversal_TestE10CreateTestEv
FN:448,448,_ZN7testing8internal15TestFactoryImplI48exception_const_define_func_param_duplicate_TestE10CreateTestEv
FN:448,448,_ZN7testing8internal15TestFactoryImplI48exception_test_const_binop_left_shift_error_TestE10CreateTestEv
FN:448,448,_ZN7testing8internal15TestFactoryImplI48exception_test_const_binop_less_equal_error_TestE10CreateTestEv
FN:448,448,_ZN7testing8internal15TestFactoryImplI48exception_test_const_binop_more_equal_error_TestE10CreateTestEv
FN:448,448,_ZN7testing8internal15TestFactoryImplI48jitter_test_local_func_call_table_construct_TestE10CreateTestEv
FN:448,448,_ZN7testing8internal15TestFactoryImplI48runtime_vm_helper_functions_throw_and_alloc_TestE10CreateTestEv
FN:448,448,_ZN7testing8internal15TestFactoryImplI48var_vartable_delete_quick_data_position_4_7_TestE10CreateTestEv
FN:448,448,_ZN7testing8internal15TestFactoryImplI49exception_test_const_binop_right_shift_error_TestE10CreateTestEv
FN:448,448,_ZN7testing8internal15TestFactoryImplI49jitter_test_local_table_with_variadic_no_end_TestE10CreateTestEv
FN:448,448,_ZN7testing8internal15TestFactoryImplI49syntax_tree_preprocess_assign_count_mismatch_TestE10CreateTestEv
FN:448,448,_ZN7testing8internal15TestFactoryImplI49var_vartable_delete_quick_data_all_positions_TestE10CreateTestEv
FN:448,448,_ZN7testing8internal15TestFactoryImplI49var_vartable_update_quick_data_all_positions_TestE10CreateTestEv
FN:448,448,_ZN7testing8internal15TestFactoryImplI50exception_test_const_binop_double_slash_error_TestE10CreateTestEv
FN:448,448,_ZN7testing8internal15TestFactoryImplI50infer_test_infer_do_shadow_typed_over_dynamic_TestE10CreateTestEv
FN:448,448,_ZN7testing8internal15TestFactoryImplI50infer_test_infer_typed_int_negative_floor_div_TestE10CreateTestEv
FN:448,448,_ZN7testing8internal15TestFactoryImplI50var_vartable_delete_empty_bucket_in_hash_mode_TestE10CreateTestEv
FN:448,448,_ZN7testing8internal15TestFactoryImplI51runtime_heap_allocator_large_alloc_after_small_TestE10CreateTestEv
FN:448,448,_ZN7testing8internal15TestFactoryImplI51var_vartable_delete_nonexistent_from_hash_mode_TestE10CreateTestEv
FN:448,448,_ZN7testing8internal15TestFactoryImplI52syntax_tree_preprocess_colon_method_unsupported_TestE10CreateTestEv
FN:448,448,_ZN7testing8internal15TestFactoryImplI56var_vartable_delete_hash_mode_main_bucket_with_next_TestE10CreateTestEv
FN:448,448,_ZN7testing8internal15TestFactoryImplI57jitter_test_local_table_with_variadic_no_end_replace_TestE10CreateTestEv
FN:448,448,_ZN7testing8internal15TestFactoryImplI58syntax_tree_preprocess_multipart_funcname_unsupported_TestE10CreateTestEv
FN:497,516,_ZN7testing8internal16SuiteApiResolverINS0_12_GLOBAL__N_111FailureTestEE19GetSetUpCaseOrSuiteEPKci
FN:497,516,_ZN7testing8internal16SuiteApiResolverINS_4TestEE19GetSetUpCaseOrSuiteEPKci
FN:518,537,_ZN7testing8internal16SuiteApiResolverINS0_12_GLOBAL__N_111FailureTestEE22GetTearDownCaseOrSuiteEPKci
FN:518,537,_ZN7testing8internal16SuiteApiResolverINS_4TestEE22GetTearDownCaseOrSuiteEPKci
FN:627,635,_ZN7testing8internal9SkipCommaEPKc
FN:639,642,_ZN7testing8internal19GetPrefixUntilCommaB5cxx11EPKc
FNDA:82,_ZN7testing8internal13FloatingPointIdEC2Ed
FNDA:16,_ZN7testing8internal13FloatingPointIfEC2Ef
FNDA:41,_ZNK7testing8internal13FloatingPointIdE12AlmostEqualsERKS2_
FNDA:8,_ZNK7testing8internal13FloatingPointIfE12AlmostEqualsERKS2_
FNDA:4,_ZN7testing8internal15TestFactoryImplI13algo_gcd_TestE10CreateTestEv
FNDA:4,_ZN7testing8internal15TestFactoryImplI15algo_sieve_TestE10CreateTestEv
FNDA:3,_ZN7testing8internal15TestFactoryImplI15var_concat_TestE10CreateTestEv
FNDA:4,_ZN7testing8internal15TestFactoryImplI16algo_matrix_TestE10CreateTestEv
FNDA:3,_ZN7testing8internal15TestFactoryImplI16var_bitwise_TestE10CreateTestEv
FNDA:3,_ZN7testing8internal15TestFactoryImplI16var_set_get_TestE10CreateTestEv
FNDA:4,_ZN7testing8internal15TestFactoryImplI17ini_newstate_TestE10CreateTestEv
FNDA:3,_ZN7testing8internal15TestFactoryImplI17var_ToString_TestE10CreateTestEv
FNDA:3,_ZN7testing8internal15TestFactoryImplI17var_VarTable_TestE10CreateTestEv
FNDA:3,_ZN7testing8internal15TestFactoryImplI17var_hash_nil_TestE10CreateTestEv
FNDA:4,_ZN7testing8internal15TestFactoryImplI18algo_fast_pow_TestE10CreateTestEv
FNDA:4,_ZN7testing8internal15TestFactoryImplI18jitter_string_TestE10CreateTestEv
FNDA:3,_ZN7testing8internal15TestFactoryImplI18var_construct_TestE10CreateTestEv
FNDA:3,_ZN7testing8internal15TestFactoryImplI18var_table_get_TestE10CreateTestEv
FNDA:4,_ZN7testing8internal15TestFactoryImplI19algo_fibonacci_TestE10CreateTestEv
FNDA:3,_ZN7testing8internal15TestFactoryImplI19common_ToFloat_TestE10CreateTestEv
FNDA:3,_ZN7testing8internal15TestFactoryImplI19common_logging_TestE10CreateTestEv
FNDA:3,_ZN7testing8internal15TestFactoryImplI19common_vi_sort_TestE10CreateTestEv
FNDA:4,_ZN7testing8internal15TestFactoryImplI19jitter_test_if_TestE10CreateTestEv
FNDA:3,_ZN7testing8internal15TestFactoryImplI19syntax_tree_if_TestE10CreateTestEv
FNDA:3,_ZN7testing8internal15TestFactoryImplI19var_arithmetic_TestE10CreateTestEv
FNDA:3,_ZN7testing8internal15TestFactoryImplI19var_comparison_TestE10CreateTestEv
FNDA:3,_ZN7testing8internal15TestFactoryImplI19var_hash_table_TestE10CreateTestEv
FNDA:3,_ZN7testing8internal15TestFactoryImplI19var_table_size_TestE10CreateTestEv
FNDA:3,_ZN7testing8internal15TestFactoryImplI20common_IsNumber_TestE10CreateTestEv
FNDA:3,_ZN7testing8internal15TestFactoryImplI20syntax_tree_var_TestE10CreateTestEv
FNDA:3,_ZN7testing8internal15TestFactoryImplI20var_equal_table_TestE10CreateTestEv
FNDA:4,_ZN7testing8internal15TestFactoryImplI21algo_bubble_sort_TestE10CreateTestEv
FNDA:3,_ZN7testing8internal15TestFactoryImplI21common_IsInteger_TestE10CreateTestEv
FNDA:3,_ZN7testing8internal15TestFactoryImplI21common_ToInteger_TestE10CreateTestEv
FNDA:3,_ZN7testing8internal15TestFactoryImplI21var_equal_string_TestE10CreateTestEv
FNDA:3,_ZN7testing8internal15TestFactoryImplI21var_table_rehash_TestE10CreateTestEv
FNDA:4,_ZN7testing8internal15TestFactoryImplI22exception_ToFloat_TestE10CreateTestEv
FNDA:4,_ZN7testing8internal15TestFactoryImplI22jitter_empty_file_TestE10CreateTestEv
FNDA:4,_ZN7testing8internal15TestFactoryImplI22jitter_empty_func_TestE10CreateTestEv
FNDA:4,_ZN7testing8internal15TestFactoryImplI22jitter_multi_name_TestE10CreateTestEv
FNDA:4,_ZN7testing8internal15TestFactoryImplI22jitter_test_while_TestE10CreateTestEv
FNDA:3,_ZN7testing8internal15TestFactoryImplI22syntax_tree_binop_TestE10CreateTestEv
FNDA:3,_ZN7testing8internal15TestFactoryImplI22syntax_tree_break_TestE10CreateTestEv
FNDA:3,_ZN7testing8internal15TestFactoryImplI22syntax_tree_label_TestE10CreateTestEv
FNDA:3,_ZN7testing8internal15TestFactoryImplI22syntax_tree_while_TestE10CreateTestEv
FNDA:3,_ZN7testing8internal15TestFactoryImplI22var_SetTempString_TestE10CreateTestEv
FNDA:3,_ZN7testing8internal15TestFactoryImplI22var_is_calculable_TestE10CreateTestEv
FNDA:3,_ZN7testing8internal15TestFactoryImplI22var_logical_unary_TestE10CreateTestEv
FNDA:4,_ZN7testing8internal15TestFactoryImplI23algo_binary_search_TestE10CreateTestEv
FNDA:4,_ZN7testing8internal15TestFactoryImplI23jitter_test_assign_TestE10CreateTestEv
FNDA:4,_ZN7testing8internal15TestFactoryImplI23jitter_test_for_in_TestE10CreateTestEv
FNDA:4,_ZN7testing8internal15TestFactoryImplI23jitter_test_repeat_TestE10CreateTestEv
FNDA:3,_ZN7testing8internal15TestFactoryImplI23syntax_tree_assign_TestE10CreateTestEv
FNDA:3,_ZN7testing8internal15TestFactoryImplI23syntax_tree_do_end_TestE10CreateTestEv
FNDA:3,_ZN7testing8internal15TestFactoryImplI23syntax_tree_for_in_TestE10CreateTestEv
FNDA:3,_ZN7testing8internal15TestFactoryImplI23syntax_tree_number_TestE10CreateTestEv
FNDA:3,_ZN7testing8internal15TestFactoryImplI23syntax_tree_repeat_TestE10CreateTestEv
FNDA:3,_ZN7testing8internal15TestFactoryImplI23syntax_tree_string_TestE10CreateTestEv
FNDA:3,_ZN7testing8internal15TestFactoryImplI23var_equal_stringid_TestE10CreateTestEv
FNDA:3,_ZN7testing8internal15TestFactoryImplI23var_hash_int_float_TestE10CreateTestEv
FNDA:3,_ZN7testing8internal15TestFactoryImplI23var_mod_type_error_TestE10CreateTestEv
FNDA:3,_ZN7testing8internal15TestFactoryImplI23var_pow_type_error_TestE10CreateTestEv
FNDA:3,_ZN7testing8internal15TestFactoryImplI23var_var_table_keys_TestE10CreateTestEv
FNDA:3,_ZN7testing8internal15TestFactoryImplI23var_var_table_size_TestE10CreateTestEv
FNDA:3,_ZN7testing8internal15TestFactoryImplI23var_xor_type_error_TestE10CreateTestEv
FNDA:4,_ZN7testing8internal15TestFactoryImplI24algo_insertion_sort_TestE10CreateTestEv
FNDA:4,_ZN7testing8internal15TestFactoryImplI24exception_ToInteger_TestE10CreateTestEv
FNDA:3,_ZN7testing8internal15TestFactoryImplI24infer_test_spec_fib_TestE10CreateTestEv
FNDA:4,_ZN7testing8internal15TestFactoryImplI24jitter_const_define_TestE10CreateTestEv
FNDA:4,_ZN7testing8internal15TestFactoryImplI24jitter_local_define_TestE10CreateTestEv
FNDA:4,_ZN7testing8internal15TestFactoryImplI24jitter_multi_return_TestE10CreateTestEv
FNDA:4,_ZN7testing8internal15TestFactoryImplI24jitter_test_if_else_TestE10CreateTestEv
FNDA:3,_ZN7testing8internal15TestFactoryImplI24syntax_tree_for_num_TestE10CreateTestEv
FNDA:3,_ZN7testing8internal15TestFactoryImplI24var_equal_float_nan_TestE10CreateTestEv
FNDA:3,_ZN7testing8internal15TestFactoryImplI24var_less_type_error_TestE10CreateTestEv
FNDA:3,_ZN7testing8internal15TestFactoryImplI24var_more_type_error_TestE10CreateTestEv
FNDA:3,_ZN7testing8internal15TestFactoryImplI24var_plus_type_error_TestE10CreateTestEv
FNDA:3,_ZN7testing8internal15TestFactoryImplI24var_star_type_error_TestE10CreateTestEv
FNDA:4,_ZN7testing8internal15TestFactoryImplI25jitter_test_binop_or_TestE10CreateTestEv
FNDA:4,_ZN7testing8internal15TestFactoryImplI25jitter_test_do_block_TestE10CreateTestEv
FNDA:4,_ZN7testing8internal15TestFactoryImplI25jitter_test_for_loop_TestE10CreateTestEv
FNDA:4,_ZN7testing8internal15TestFactoryImplI25jitter_test_unop_len_TestE10CreateTestEv
FNDA:4,_ZN7testing8internal15TestFactoryImplI25jitter_test_unop_not_TestE10CreateTestEv
FNDA:4,_ZN7testing8internal15TestFactoryImplI25jitter_variadic_func_TestE10CreateTestEv
FNDA:3,_ZN7testing8internal15TestFactoryImplI25syntax_tree_continue_TestE10CreateTestEv
FNDA:3,_ZN7testing8internal15TestFactoryImplI25syntax_tree_function_TestE10CreateTestEv
FNDA:3,_ZN7testing8internal15TestFactoryImplI25syntax_tree_var_attr_TestE10CreateTestEv
FNDA:3,_ZN7testing8internal15TestFactoryImplI25var_bitor_type_error_TestE10CreateTestEv
FNDA:3,_ZN7testing8internal15TestFactoryImplI25var_minus_type_error_TestE10CreateTestEv
FNDA:3,_ZN7testing8internal15TestFactoryImplI25var_mod_float_result_TestE10CreateTestEv
FNDA:3,_ZN7testing8internal15TestFactoryImplI25var_slash_type_error_TestE10CreateTestEv
FNDA:3,_ZN7testing8internal15TestFactoryImplI26common_escapse_string_TestE10CreateTestEv
FNDA:4,_ZN7testing8internal15TestFactoryImplI26jitter_multi_col_name_TestE10CreateTestEv
FNDA:4,_ZN7testing8internal15TestFactoryImplI26jitter_test_binop_and_TestE10CreateTestEv
FNDA:4,_ZN7testing8internal15TestFactoryImplI26jitter_test_binop_mod_TestE10CreateTestEv
FNDA:4,_ZN7testing8internal15TestFactoryImplI26jitter_test_binop_pow_TestE10CreateTestEv
FNDA:4,_ZN7testing8internal15TestFactoryImplI26jitter_test_binop_xor_TestE10CreateTestEv
FNDA:4,_ZN7testing8internal15TestFactoryImplI26jitter_test_if_elseif_TestE10CreateTestEv
FNDA:4,_ZN7testing8internal15TestFactoryImplI26jitter_test_if_simple_TestE10CreateTestEv
FNDA:3,_ZN7testing8internal15TestFactoryImplI26var_bitand_type_error_TestE10CreateTestEv
FNDA:3,_ZN7testing8internal15TestFactoryImplI26var_equal_with_result_TestE10CreateTestEv
FNDA:3,_ZN7testing8internal15TestFactoryImplI26var_hash_string_types_TestE10CreateTestEv
FNDA:3,_ZN7testing8internal15TestFactoryImplI26var_less_float_result_TestE10CreateTestEv
FNDA:3,_ZN7testing8internal15TestFactoryImplI26var_more_float_result_TestE10CreateTestEv
FNDA:3,_ZN7testing8internal15TestFactoryImplI26var_plus_float_result_TestE10CreateTestEv
FNDA:3,_ZN7testing8internal15TestFactoryImplI26var_star_float_result_TestE10CreateTestEv
FNDA:3,_ZN7testing8internal15TestFactoryImplI26var_tostring_stringid_TestE10CreateTestEv
FNDA:3,_ZN7testing8internal15TestFactoryImplI27common_flag_bit_macros_TestE10CreateTestEv
FNDA:4,_ZN7testing8internal15TestFactoryImplI27exception_compile_fail_TestE10CreateTestEv
FNDA:4,_ZN7testing8internal15TestFactoryImplI27exception_debug_assert_TestE10CreateTestEv
FNDA:4,_ZN7testing8internal15TestFactoryImplI27jitter_test_binop_less_TestE10CreateTestEv
FNDA:4,_ZN7testing8internal15TestFactoryImplI27jitter_test_binop_more_TestE10CreateTestEv
FNDA:4,_ZN7testing8internal15TestFactoryImplI27jitter_test_binop_plus_TestE10CreateTestEv
FNDA:4,_ZN7testing8internal15TestFactoryImplI27jitter_test_binop_star_TestE10CreateTestEv
FNDA:4,_ZN7testing8internal15TestFactoryImplI27jitter_test_unop_minus_TestE10CreateTestEv
FNDA:3,_ZN7testing8internal15TestFactoryImplI27syntax_tree_test_empty_TestE10CreateTestEv
FNDA:3,_ZN7testing8internal15TestFactoryImplI27var_var_table_nan_keys_TestE10CreateTestEv
FNDA:3,_ZN7testing8internal15TestFactoryImplI27var_vartable_get_empty_TestE10CreateTestEv
FNDA:3,_ZN7testing8internal15TestFactoryImplI28common_JoinString_empty_TestE10CreateTestEv
FNDA:4,_ZN7testing8internal15TestFactoryImplI28jitter_empty_local_func_TestE10CreateTestEv
FNDA:4,_ZN7testing8internal15TestFactoryImplI28jitter_multi_return_sub_TestE10CreateTestEv
FNDA:4,_ZN7testing8internal15TestFactoryImplI28jitter_test_binop_bitor_TestE10CreateTestEv
FNDA:4,_ZN7testing8internal15TestFactoryImplI28jitter_test_binop_equal_TestE10CreateTestEv
FNDA:4,_ZN7testing8internal15TestFactoryImplI28jitter_test_binop_minus_TestE10CreateTestEv
FNDA:4,_ZN7testing8internal15TestFactoryImplI28jitter_test_binop_slash_TestE10CreateTestEv
FNDA:4,_ZN7testing8internal15TestFactoryImplI28jitter_test_const_table_TestE10CreateTestEv
FNDA:4,_ZN7testing8internal15TestFactoryImplI28jitter_test_local_table_TestE10CreateTestEv
FNDA:4,_ZN7testing8internal15TestFactoryImplI28jitter_test_unop_bitnot_TestE10CreateTestEv
FNDA:4,_ZN7testing8internal15TestFactoryImplI28jitter_test_while_break_TestE10CreateTestEv
FNDA:3,_ZN7testing8internal15TestFactoryImplI28syntax_tree_constructor_TestE10CreateTestEv
FNDA:3,_ZN7testing8internal15TestFactoryImplI28var_hash_default_branch_TestE10CreateTestEv
FNDA:3,_ZN7testing8internal15TestFactoryImplI29common_ToFloat_hex_large_TestE10CreateTestEv
FNDA:4,_ZN7testing8internal15TestFactoryImplI29jitter_multi_return_call_TestE10CreateTestEv
FNDA:4,_ZN7testing8internal15TestFactoryImplI29jitter_test_binop_and_or_TestE10CreateTestEv
FNDA:4,_ZN7testing8internal15TestFactoryImplI29jitter_test_binop_bitand_TestE10CreateTestEv
FNDA:4,_ZN7testing8internal15TestFactoryImplI29jitter_test_binop_concat_TestE10CreateTestEv
FNDA:4,_ZN7testing8internal15TestFactoryImplI29jitter_test_empty_return_TestE10CreateTestEv
FNDA:4,_ZN7testing8internal15TestFactoryImplI29jitter_test_for_in_break_TestE10CreateTestEv
FNDA:4,_ZN7testing8internal15TestFactoryImplI29jitter_test_repeat_break_TestE10CreateTestEv
FNDA:4,_ZN7testing8internal15TestFactoryImplI29jitter_test_while_double_TestE10CreateTestEv
FNDA:4,_ZN7testing8internal15TestFactoryImplI29jitter_test_while_return_TestE10CreateTestEv
FNDA:3,_ZN7testing8internal15TestFactoryImplI29syntax_tree_function_exp_TestE10CreateTestEv
FNDA:3,_ZN7testing8internal15TestFactoryImplI29var_equal_default_branch_TestE10CreateTestEv
FNDA:3,_ZN7testing8internal15TestFactoryImplI29var_leftshift_over_width_TestE10CreateTestEv
FNDA:3,_ZN7testing8internal15TestFactoryImplI29var_leftshift_type_error_TestE10CreateTestEv
FNDA:3,_ZN7testing8internal15TestFactoryImplI29var_mod_division_by_zero_TestE10CreateTestEv
FNDA:3,_ZN7testing8internal15TestFactoryImplI29var_table_get_type_error_TestE10CreateTestEv
FNDA:3,_ZN7testing8internal15TestFactoryImplI29var_table_set_type_error_TestE10CreateTestEv
FNDA:3,_ZN7testing8internal15TestFactoryImplI29var_vartable_large_scale_TestE10CreateTestEv
FNDA:3,_ZN7testing8internal15TestFactoryImplI29var_vartable_stress_test_TestE10CreateTestEv
FNDA:3,_ZN7testing8internal15TestFactoryImplI29var_vartable_string_keys_TestE10CreateTestEv
FNDA:3,_ZN7testing8internal15TestFactoryImplI30common_ToFloat_hex_errors_TestE10CreateTestEv
FNDA:4,_ZN7testing8internal15TestFactoryImplI30exception_DebugAssertFail_TestE10CreateTestEv
FNDA:4,_ZN7testing8internal15TestFactoryImplI30exception_compile_no_file_TestE10CreateTestEv
FNDA:3,_ZN7testing8internal15TestFactoryImplI30infer_test_infer_mutation_TestE10CreateTestEv
FNDA:4,_ZN7testing8internal15TestFactoryImplI30jitter_multi_const_define_TestE10CreateTestEv
FNDA:4,_ZN7testing8internal15TestFactoryImplI30jitter_multi_return_multi_TestE10CreateTestEv
FNDA:4,_ZN7testing8internal15TestFactoryImplI30jitter_test_for_in_double_TestE10CreateTestEv
FNDA:4,_ZN7testing8internal15TestFactoryImplI30jitter_test_for_in_return_TestE10CreateTestEv
FNDA:4,_ZN7testing8internal15TestFactoryImplI30jitter_test_repeat_double_TestE10CreateTestEv
FNDA:4,_ZN7testing8internal15TestFactoryImplI30jitter_test_repeat_return_TestE10CreateTestEv
FNDA:4,_ZN7testing8internal15TestFactoryImplI30jitter_test_table_get_set_TestE10CreateTestEv
FNDA:4,_ZN7testing8internal15TestFactoryImplI30jitter_test_var_func_call_TestE10CreateTestEv
FNDA:3,_ZN7testing8internal15TestFactoryImplI30syntax_tree_CompileString_TestE10CreateTestEv
FNDA:3,_ZN7testing8internal15TestFactoryImplI30syntax_tree_assign_simple_TestE10CreateTestEv
FNDA:3,_ZN7testing8internal15TestFactoryImplI30syntax_tree_function_call_TestE10CreateTestEv
FNDA:3,_ZN7testing8internal15TestFactoryImplI30var_equal_string_stringid_TestE10CreateTestEv
FNDA:3,_ZN7testing8internal15TestFactoryImplI30var_is_calculable_integer_TestE10CreateTestEv
FNDA:3,_ZN7testing8internal15TestFactoryImplI30var_less_equal_type_error_TestE10CreateTestEv
FNDA:3,_ZN7testing8internal15TestFactoryImplI30var_more_equal_type_error_TestE10CreateTestEv
FNDA:3,_ZN7testing8internal15TestFactoryImplI30var_rightshift_over_width_TestE10CreateTestEv
FNDA:3,_ZN7testing8internal15TestFactoryImplI30var_rightshift_type_error_TestE10CreateTestEv
FNDA:3,_ZN7testing8internal15TestFactoryImplI30var_table_size_type_error_TestE10CreateTestEv
FNDA:3,_ZN7testing8internal15TestFactoryImplI30var_unop_minus_type_error_TestE10CreateTestEv
FNDA:3,_ZN7testing8internal15TestFactoryImplI30var_vartable_delete_empty_TestE10CreateTestEv
FNDA:4,_ZN7testing8internal15TestFactoryImplI31exception_test_break_error_TestE10CreateTestEv
FNDA:3,_ZN7testing8internal15TestFactoryImplI31infer_test_infer_bottom_up_TestE10CreateTestEv
FNDA:3,_ZN7testing8internal15TestFactoryImplI31infer_test_infer_paren_exp_TestE10CreateTestEv
FNDA:3,_ZN7testing8internal15TestFactoryImplI31infer_test_infer_shadowing_TestE10CreateTestEv
FNDA:4,_ZN7testing8internal15TestFactoryImplI31jitter_test_binop_and_bool_TestE10CreateTestEv
FNDA:4,_ZN7testing8internal15TestFactoryImplI31jitter_test_const_binop_or_TestE10CreateTestEv
FNDA:4,_ZN7testing8internal15TestFactoryImplI31jitter_test_const_unop_len_TestE10CreateTestEv
FNDA:4,_ZN7testing8internal15TestFactoryImplI31jitter_test_const_unop_not_TestE10CreateTestEv
FNDA:4,_ZN7testing8internal15TestFactoryImplI31jitter_test_for_loop_break_TestE10CreateTestEv
FNDA:3,_ZN7testing8internal15TestFactoryImplI31var_doubleslash_type_error_TestE10CreateTestEv
FNDA:3,_ZN7testing8internal15TestFactoryImplI31var_get_string_string_type_TestE10CreateTestEv
FNDA:3,_ZN7testing8internal15TestFactoryImplI31var_unop_bitnot_type_error_TestE10CreateTestEv
FNDA:3,_ZN7testing8internal15TestFactoryImplI31var_vartable_rehash_expand_TestE10CreateTestEv
FNDA:4,_ZN7testing8internal15TestFactoryImplI32infer_test_spec_forin_param_TestE10CreateTestEv
FNDA:3,_ZN7testing8internal15TestFactoryImplI32infer_test_spec_multi_param_TestE10CreateTestEv
FNDA:3,_ZN7testing8internal15TestFactoryImplI32infer_test_spec_wrapper_var_TestE10CreateTestEv
FNDA:4,_ZN7testing8internal15TestFactoryImplI32jitter_compile_empty_string_TestE10CreateTestEv
FNDA:4,_ZN7testing8internal15TestFactoryImplI32jitter_multi_return_call_ex_TestE10CreateTestEv
FNDA:4,_ZN7testing8internal15TestFactoryImplI32jitter_test_binop_not_equal_TestE10CreateTestEv
FNDA:4,_ZN7testing8internal15TestFactoryImplI32jitter_test_const_binop_and_TestE10CreateTestEv
FNDA:4,_ZN7testing8internal15TestFactoryImplI32jitter_test_const_binop_mod_TestE10CreateTestEv
FNDA:4,_ZN7testing8internal15TestFactoryImplI32jitter_test_const_binop_pow_TestE10CreateTestEv
FNDA:4,_ZN7testing8internal15TestFactoryImplI32jitter_test_const_binop_xor_TestE10CreateTestEv
FNDA:4,_ZN7testing8internal15TestFactoryImplI32jitter_test_empty_func_call_TestE10CreateTestEv
FNDA:4,_ZN7testing8internal15TestFactoryImplI32jitter_test_for_loop_double_TestE10CreateTestEv
FNDA:4,_ZN7testing8internal15TestFactoryImplI32jitter_test_for_loop_return_TestE10CreateTestEv
FNDA:4,_ZN7testing8internal15TestFactoryImplI32jitter_test_local_func_call_TestE10CreateTestEv
FNDA:4,_ZN7testing8internal15TestFactoryImplI32jitter_test_other_func_call_TestE10CreateTestEv
FNDA:4,_ZN7testing8internal15TestFactoryImplI32jitter_test_table_empty_get_TestE10CreateTestEv
FNDA:4,_ZN7testing8internal15TestFactoryImplI32jitter_test_while_if_return_TestE10CreateTestEv
FNDA:4,_ZN7testing8internal15TestFactoryImplI32runtime_exec_returns_output_TestE10CreateTestEv
FNDA:3,_ZN7testing8internal15TestFactoryImplI32var_less_equal_float_result_TestE10CreateTestEv
FNDA:3,_ZN7testing8internal15TestFactoryImplI32var_more_equal_float_result_TestE10CreateTestEv
FNDA:3,_ZN7testing8internal15TestFactoryImplI32var_unop_minus_float_result_TestE10CreateTestEv
FNDA:4,_ZN7testing8internal15TestFactoryImplI33exception_ReplaceEscapeChars_TestE10CreateTestEv
FNDA:4,_ZN7testing8internal15TestFactoryImplI33exception_stmt_support_error_TestE10CreateTestEv
FNDA:3,_ZN7testing8internal15TestFactoryImplI33infer_test_spec_elseif_param_TestE10CreateTestEv
FNDA:4,_ZN7testing8internal15TestFactoryImplI33jitter_multi_return_multi_ex_TestE10CreateTestEv
FNDA:4,_ZN7testing8internal15TestFactoryImplI33jitter_test_assign_not_match_TestE10CreateTestEv
FNDA:4,_ZN7testing8internal15TestFactoryImplI33jitter_test_assign_table_var_TestE10CreateTestEv
FNDA:4,_ZN7testing8internal15TestFactoryImplI33jitter_test_binop_left_shift_TestE10CreateTestEv
FNDA:4,_ZN7testing8internal15TestFactoryImplI33jitter_test_binop_less_equal_TestE10CreateTestEv
FNDA:4,_ZN7testing8internal15TestFactoryImplI33jitter_test_binop_more_equal_TestE10CreateTestEv
FNDA:4,_ZN7testing8internal15TestFactoryImplI33jitter_test_const_binop_less_TestE10CreateTestEv
FNDA:4,_ZN7testing8internal15TestFactoryImplI33jitter_test_const_binop_more_TestE10CreateTestEv
FNDA:4,_ZN7testing8internal15TestFactoryImplI33jitter_test_const_binop_plus_TestE10CreateTestEv
FNDA:4,_ZN7testing8internal15TestFactoryImplI33jitter_test_const_binop_star_TestE10CreateTestEv
FNDA:4,_ZN7testing8internal15TestFactoryImplI33jitter_test_const_unop_minus_TestE10CreateTestEv
FNDA:4,_ZN7testing8internal15TestFactoryImplI33jitter_test_for_in_if_return_TestE10CreateTestEv
FNDA:4,_ZN7testing8internal15TestFactoryImplI33jitter_test_for_loop_default_TestE10CreateTestEv
FNDA:4,_ZN7testing8internal15TestFactoryImplI33jitter_test_global_func_call_TestE10CreateTestEv
FNDA:4,_ZN7testing8internal15TestFactoryImplI33jitter_test_if_elseif_normal_TestE10CreateTestEv
FNDA:4,_ZN7testing8internal15TestFactoryImplI33jitter_test_if_elseif_return_TestE10CreateTestEv
FNDA:4,_ZN7testing8internal15TestFactoryImplI33jitter_test_repeat_if_return_TestE10CreateTestEv
FNDA:4,_ZN7testing8internal15TestFactoryImplI33jitter_test_while_just_break_TestE10CreateTestEv
FNDA:3,_ZN7testing8internal15TestFactoryImplI33var_doubleslash_float_result_TestE10CreateTestEv
FNDA:3,_ZN7testing8internal15TestFactoryImplI33var_get_string_stringid_type_TestE10CreateTestEv
FNDA:3,_ZN7testing8internal15TestFactoryImplI33var_leftshift_negative_shift_TestE10CreateTestEv
FNDA:3,_ZN7testing8internal15TestFactoryImplI33var_var_table_int_float_keys_TestE10CreateTestEv
FNDA:4,_ZN7testing8internal15TestFactoryImplI34exception_label_support_error_TestE10CreateTestEv
FNDA:3,_ZN7testing8internal15TestFactoryImplI34infer_test_infer_for_step_int_TestE10CreateTestEv
FNDA:4,_ZN7testing8internal15TestFactoryImplI34jitter_empty_func_with_params_TestE10CreateTestEv
FNDA:4,_ZN7testing8internal15TestFactoryImplI34jitter_test_assign_simple_var_TestE10CreateTestEv
FNDA:4,_ZN7testing8internal15TestFactoryImplI34jitter_test_binop_right_shift_TestE10CreateTestEv
FNDA:4,_ZN7testing8internal15TestFactoryImplI34jitter_test_const_binop_bitor_TestE10CreateTestEv
FNDA:4,_ZN7testing8internal15TestFactoryImplI34jitter_test_const_binop_equal_TestE10CreateTestEv
FNDA:4,_ZN7testing8internal15TestFactoryImplI34jitter_test_const_binop_minus_TestE10CreateTestEv
FNDA:4,_ZN7testing8internal15TestFactoryImplI34jitter_test_const_binop_slash_TestE10CreateTestEv
FNDA:4,_ZN7testing8internal15TestFactoryImplI34jitter_test_const_unop_bitnot_TestE10CreateTestEv
FNDA:4,_ZN7testing8internal15TestFactoryImplI34jitter_test_for_in_just_break_TestE10CreateTestEv
FNDA:4,_ZN7testing8internal15TestFactoryImplI34jitter_test_repeat_just_break_TestE10CreateTestEv
FNDA:3,_ZN7testing8internal15TestFactoryImplI34syntax_tree_test_binop_order1_TestE10CreateTestEv
FNDA:3,_ZN7testing8internal15TestFactoryImplI34syntax_tree_test_binop_order2_TestE10CreateTestEv
FNDA:3,_ZN7testing8internal15TestFactoryImplI34syntax_tree_test_binop_order3_TestE10CreateTestEv
FNDA:3,_ZN7testing8internal15TestFactoryImplI34syntax_tree_test_binop_order4_TestE10CreateTestEv
FNDA:3,_ZN7testing8internal15TestFactoryImplI34syntax_tree_test_binop_order5_TestE10CreateTestEv
FNDA:3,_ZN7testing8internal15TestFactoryImplI34syntax_tree_test_binop_order6_TestE10CreateTestEv
FNDA:3,_ZN7testing8internal15TestFactoryImplI34var_VarTypeToString_all_types_TestE10CreateTestEv
FNDA:3,_ZN7testing8internal15TestFactoryImplI34var_rightshift_negative_shift_TestE10CreateTestEv
FNDA:3,_ZN7testing8internal15TestFactoryImplI34var_unop_number_sign_stringid_TestE10CreateTestEv
FNDA:3,_ZN7testing8internal15TestFactoryImplI34var_vartable_insert_raw_chain_TestE10CreateTestEv
FNDA:3,_ZN7testing8internal15TestFactoryImplI35common_ToInteger_hex_int64_min_TestE10CreateTestEv
FNDA:3,_ZN7testing8internal15TestFactoryImplI35infer_test_infer_degrade_param_TestE10CreateTestEv
FNDA:3,_ZN7testing8internal15TestFactoryImplI35infer_test_infer_typed_int_for_TestE10CreateTestEv
FNDA:3,_ZN7testing8internal15TestFactoryImplI35infer_test_infer_typed_int_mod_TestE10CreateTestEv
FNDA:4,_ZN7testing8internal15TestFactoryImplI35jitter_test_binop_double_slash_TestE10CreateTestEv
FNDA:4,_ZN7testing8internal15TestFactoryImplI35jitter_test_const_binop_bitand_TestE10CreateTestEv
FNDA:4,_ZN7testing8internal15TestFactoryImplI35jitter_test_const_binop_concat_TestE10CreateTestEv
FNDA:4,_ZN7testing8internal15TestFactoryImplI35jitter_test_const_nested_table_TestE10CreateTestEv
FNDA:4,_ZN7testing8internal15TestFactoryImplI35jitter_test_for_loop_if_return_TestE10CreateTestEv
FNDA:4,_ZN7testing8internal15TestFactoryImplI35jitter_test_local_nested_table_TestE10CreateTestEv
FNDA:4,_ZN7testing8internal15TestFactoryImplI35jitter_test_table_quick_delete_TestE10CreateTestEv
FNDA:4,_ZN7testing8internal15TestFactoryImplI35runtime_state_config_is_stored_TestE10CreateTestEv
FNDA:3,_ZN7testing8internal15TestFactoryImplI35syntax_tree_function_call_args_TestE10CreateTestEv
FNDA:3,_ZN7testing8internal15TestFactoryImplI35var_equal_int_float_cross_type_TestE10CreateTestEv
FNDA:3,_ZN7testing8internal15TestFactoryImplI35var_table_hash_collision_chain_TestE10CreateTestEv
FNDA:3,_ZN7testing8internal15TestFactoryImplI35var_unop_numbersign_type_error_TestE10CreateTestEv
FNDA:3,_ZN7testing8internal15TestFactoryImplI35var_vartable_find_key_in_chain_TestE10CreateTestEv
FNDA:3,_ZN7testing8internal15TestFactoryImplI36common_ToInteger_neg_hex_errors_TestE10CreateTestEv
FNDA:4,_ZN7testing8internal15TestFactoryImplI36exception_const_define_no_match_TestE10CreateTestEv
FNDA:4,_ZN7testing8internal15TestFactoryImplI36exception_const_define_variadic_TestE10CreateTestEv
FNDA:4,_ZN7testing8internal15TestFactoryImplI36exception_const_func_call_error_TestE10CreateTestEv
FNDA:4,_ZN7testing8internal15TestFactoryImplI36exception_return_type_error_int_TestE10CreateTestEv
FNDA:4,_ZN7testing8internal15TestFactoryImplI36exception_test_for_in_exp_error_TestE10CreateTestEv
FNDA:3,_ZN7testing8internal15TestFactoryImplI36infer_test_infer_type_pollution_TestE10CreateTestEv
FNDA:3,_ZN7testing8internal15TestFactoryImplI36infer_test_infer_typed_int_star_TestE10CreateTestEv
FNDA:4,_ZN7testing8internal15TestFactoryImplI36jitter_local_define_with_values_TestE10CreateTestEv
FNDA:4,_ZN7testing8internal15TestFactoryImplI36jitter_test_for_loop_just_break_TestE10CreateTestEv
FNDA:4,_ZN7testing8internal15TestFactoryImplI36jitter_test_table_var_func_call_TestE10CreateTestEv
FNDA:4,_ZN7testing8internal15TestFactoryImplI37exception_const_define_duplicate_TestE10CreateTestEv
FNDA:4,_ZN7testing8internal15TestFactoryImplI37exception_no_define_lvalue_error_TestE10CreateTestEv
FNDA:4,_ZN7testing8internal15TestFactoryImplI37exception_return_type_error_bool_TestE10CreateTestEv
FNDA:4,_ZN7testing8internal15TestFactoryImplI37exception_return_type_error_char_TestE10CreateTestEv
FNDA:4,_ZN7testing8internal15TestFactoryImplI37exception_return_type_error_long_TestE10CreateTestEv
FNDA:4,_ZN7testing8internal15TestFactoryImplI37exception_return_type_error_uint_TestE10CreateTestEv
FNDA:4,_ZN7testing8internal15TestFactoryImplI37exception_test_for_in_func_error_TestE10CreateTestEv
FNDA:3,_ZN7testing8internal15TestFactoryImplI37infer_test_infer_reassign_stable_TestE10CreateTestEv
FNDA:3,_ZN7testing8internal15TestFactoryImplI37infer_test_infer_typed_float_for_TestE10CreateTestEv
FNDA:3,_ZN7testing8internal15TestFactoryImplI37infer_test_infer_typed_float_mod_TestE10CreateTestEv
FNDA:3,_ZN7testing8internal15TestFactoryImplI37infer_test_infer_typed_float_pow_TestE10CreateTestEv
FNDA:3,_ZN7testing8internal15TestFactoryImplI37infer_test_infer_typed_int_bitor_TestE10CreateTestEv
FNDA:3,_ZN7testing8internal15TestFactoryImplI37infer_test_infer_typed_int_minus_TestE10CreateTestEv
FNDA:4,_ZN7testing8internal15TestFactoryImplI37jitter_test_empty_func_no_return_TestE10CreateTestEv
FNDA:4,_ZN7testing8internal15TestFactoryImplI37jitter_variadic_func_with_params_TestE10CreateTestEv
FNDA:3,_ZN7testing8internal15TestFactoryImplI37syntax_tree_parse_failure_throws_TestE10CreateTestEv
FNDA:3,_ZN7testing8internal15TestFactoryImplI37var_doubleslash_division_by_zero_TestE10CreateTestEv
FNDA:3,_ZN7testing8internal15TestFactoryImplI37var_vartable_update_after_rehash_TestE10CreateTestEv
FNDA:4,_ZN7testing8internal15TestFactoryImplI38exception_function_call_exception_TestE10CreateTestEv
FNDA:4,_ZN7testing8internal15TestFactoryImplI38exception_return_type_error_float_TestE10CreateTestEv
FNDA:4,_ZN7testing8internal15TestFactoryImplI38exception_return_type_error_short_TestE10CreateTestEv
FNDA:4,_ZN7testing8internal15TestFactoryImplI38exception_return_type_error_uchar_TestE10CreateTestEv
FNDA:4,_ZN7testing8internal15TestFactoryImplI38exception_return_type_error_ulong_TestE10CreateTestEv
FNDA:4,_ZN7testing8internal15TestFactoryImplI38exception_test_for_in_pairs_error_TestE10CreateTestEv
FNDA:3,_ZN7testing8internal15TestFactoryImplI38infer_test_infer_for_shadow_case1_TestE10CreateTestEv
FNDA:3,_ZN7testing8internal15TestFactoryImplI38infer_test_infer_for_shadow_case2_TestE10CreateTestEv
FNDA:3,_ZN7testing8internal15TestFactoryImplI38infer_test_infer_for_shadow_case3_TestE10CreateTestEv
FNDA:3,_ZN7testing8internal15TestFactoryImplI38infer_test_infer_for_shadow_case4_TestE10CreateTestEv
FNDA:3,_ZN7testing8internal15TestFactoryImplI38infer_test_infer_for_step_dynamic_TestE10CreateTestEv
FNDA:3,_ZN7testing8internal15TestFactoryImplI38infer_test_infer_if_scope_degrade_TestE10CreateTestEv
FNDA:3,_ZN7testing8internal15TestFactoryImplI38infer_test_infer_typed_float_star_TestE10CreateTestEv
FNDA:3,_ZN7testing8internal15TestFactoryImplI38infer_test_infer_typed_int_bitand_TestE10CreateTestEv
FNDA:3,_ZN7testing8internal15TestFactoryImplI38infer_test_infer_typed_int_bitnot_TestE10CreateTestEv
FNDA:3,_ZN7testing8internal15TestFactoryImplI38infer_test_infer_typed_int_bitxor_TestE10CreateTestEv
FNDA:4,_ZN7testing8internal15TestFactoryImplI38jitter_test_assign_variadic_empty_TestE10CreateTestEv
FNDA:4,_ZN7testing8internal15TestFactoryImplI38jitter_test_assign_variadic_match_TestE10CreateTestEv
FNDA:4,_ZN7testing8internal15TestFactoryImplI38jitter_test_binop_equal_int_float_TestE10CreateTestEv
FNDA:4,_ZN7testing8internal15TestFactoryImplI38jitter_test_const_binop_not_equal_TestE10CreateTestEv
FNDA:4,_ZN7testing8internal15TestFactoryImplI39exception_function_param_duplicate_TestE10CreateTestEv
FNDA:4,_ZN7testing8internal15TestFactoryImplI39exception_function_too_many_params_TestE10CreateTestEv
FNDA:4,_ZN7testing8internal15TestFactoryImplI39exception_return_type_error_double_TestE10CreateTestEv
FNDA:4,_ZN7testing8internal15TestFactoryImplI39exception_return_type_error_string_TestE10CreateTestEv
FNDA:4,_ZN7testing8internal15TestFactoryImplI39exception_return_type_error_ushort_TestE10CreateTestEv
FNDA:4,_ZN7testing8internal15TestFactoryImplI39exception_test_for_in_prefix_error_TestE10CreateTestEv
FNDA:3,_ZN7testing8internal15TestFactoryImplI39infer_test_infer_degrade_func_call_TestE10CreateTestEv
FNDA:3,_ZN7testing8internal15TestFactoryImplI39infer_test_infer_return_stale_type_TestE10CreateTestEv
FNDA:3,_ZN7testing8internal15TestFactoryImplI39infer_test_infer_typed_float_local_TestE10CreateTestEv
FNDA:3,_ZN7testing8internal15TestFactoryImplI39infer_test_infer_typed_float_minus_TestE10CreateTestEv
FNDA:3,_ZN7testing8internal15TestFactoryImplI39infer_test_infer_typed_float_slash_TestE10CreateTestEv
FNDA:4,_ZN7testing8internal15TestFactoryImplI39jitter_test_assign_same_line_multi_TestE10CreateTestEv
FNDA:4,_ZN7testing8internal15TestFactoryImplI39jitter_test_const_binop_left_shift_TestE10CreateTestEv
FNDA:4,_ZN7testing8internal15TestFactoryImplI39jitter_test_const_binop_less_equal_TestE10CreateTestEv
FNDA:4,_ZN7testing8internal15TestFactoryImplI39jitter_test_const_binop_more_equal_TestE10CreateTestEv
FNDA:4,_ZN7testing8internal15TestFactoryImplI39jitter_test_for_in_return_fallback_TestE10CreateTestEv
FNDA:4,_ZN7testing8internal15TestFactoryImplI39jitter_test_local_func_call_string_TestE10CreateTestEv
FNDA:4,_ZN7testing8internal15TestFactoryImplI39jitter_test_table_hash_delete_head_TestE10CreateTestEv
FNDA:3,_ZN7testing8internal15TestFactoryImplI39var_get_calculable_number_from_int_TestE10CreateTestEv
FNDA:3,_ZN7testing8internal15TestFactoryImplI39var_vartable_delete_with_collision_TestE10CreateTestEv
FNDA:3,_ZN7testing8internal15TestFactoryImplI39var_vartable_get_nil_key_exception_TestE10CreateTestEv
FNDA:3,_ZN7testing8internal15TestFactoryImplI39var_vartable_rehash_from_hash_mode_TestE10CreateTestEv
FNDA:3,_ZN7testing8internal15TestFactoryImplI39var_vartable_set_nil_key_exception_TestE10CreateTestEv
FNDA:4,_ZN7testing8internal15TestFactoryImplI40exception_test_const_unop_len_error_TestE10CreateTestEv
FNDA:4,_ZN7testing8internal15TestFactoryImplI40exception_test_for_in_explist_error_TestE10CreateTestEv
FNDA:3,_ZN7testing8internal15TestFactoryImplI40infer_test_infer_typed_int_for_star_TestE10CreateTestEv
FNDA:4,_ZN7testing8internal15TestFactoryImplI40jitter_test_const_binop_right_shift_TestE10CreateTestEv
FNDA:4,_ZN7testing8internal15TestFactoryImplI40jitter_test_const_define_simple_var_TestE10CreateTestEv
FNDA:4,_ZN7testing8internal15TestFactoryImplI40jitter_test_table_hash_delete_chain_TestE10CreateTestEv
FNDA:4,_ZN7testing8internal15TestFactoryImplI40runtime_vm_call_by_name_error_cases_TestE10CreateTestEv
FNDA:3,_ZN7testing8internal15TestFactoryImplI40var_vartable_delete_hash_mode_found_TestE10CreateTestEv
FNDA:4,_ZN7testing8internal15TestFactoryImplI41exception_test_const_binop_mod_error_TestE10CreateTestEv
FNDA:4,_ZN7testing8internal15TestFactoryImplI41exception_test_const_binop_pow_error_TestE10CreateTestEv
FNDA:4,_ZN7testing8internal15TestFactoryImplI41exception_test_const_binop_xor_error_TestE10CreateTestEv
FNDA:4,_ZN7testing8internal15TestFactoryImplI41exception_test_for_in_namelist_error_TestE10CreateTestEv
FNDA:3,_ZN7testing8internal15TestFactoryImplI41infer_test_infer_assign_degraded_var_TestE10CreateTestEv
FNDA:3,_ZN7testing8internal15TestFactoryImplI41infer_test_infer_int_float_promotion_TestE10CreateTestEv
FNDA:3,_ZN7testing8internal15TestFactoryImplI41infer_test_infer_typed_int_leftshift_TestE10CreateTestEv
FNDA:3,_ZN7testing8internal15TestFactoryImplI41infer_test_infer_while_scope_degrade_TestE10CreateTestEv
FNDA:4,_ZN7testing8internal15TestFactoryImplI41jitter_test_assign_variadic_no_match_TestE10CreateTestEv
FNDA:4,_ZN7testing8internal15TestFactoryImplI41jitter_test_const_binop_double_slash_TestE10CreateTestEv
FNDA:3,_ZN7testing8internal15TestFactoryImplI41var_vartable_get_hash_mode_not_found_TestE10CreateTestEv
FNDA:4,_ZN7testing8internal15TestFactoryImplI42exception_return_type_error_long_long_TestE10CreateTestEv
FNDA:4,_ZN7testing8internal15TestFactoryImplI42exception_test_const_binop_less_error_TestE10CreateTestEv
FNDA:4,_ZN7testing8internal15TestFactoryImplI42exception_test_const_binop_more_error_TestE10CreateTestEv
FNDA:4,_ZN7testing8internal15TestFactoryImplI42exception_test_const_binop_plus_error_TestE10CreateTestEv
FNDA:4,_ZN7testing8internal15TestFactoryImplI42exception_test_const_binop_star_error_TestE10CreateTestEv
FNDA:4,_ZN7testing8internal15TestFactoryImplI42exception_test_for_in_func_args_error_TestE10CreateTestEv
FNDA:3,_ZN7testing8internal15TestFactoryImplI42infer_test_infer_typed_float_for_step_TestE10CreateTestEv
FNDA:3,_ZN7testing8internal15TestFactoryImplI42infer_test_infer_typed_int_rightshift_TestE10CreateTestEv
FNDA:4,_ZN7testing8internal15TestFactoryImplI42jitter_test_binop_left_shift_overflow_TestE10CreateTestEv
FNDA:4,_ZN7testing8internal15TestFactoryImplI42jitter_test_local_table_with_variadic_TestE10CreateTestEv
FNDA:4,_ZN7testing8internal15TestFactoryImplI42runtime_inter_native_scalar_roundtrip_TestE10CreateTestEv
FNDA:4,_ZN7testing8internal15TestFactoryImplI42runtime_vm_call_by_name_success_cases_TestE10CreateTestEv
FNDA:3,_ZN7testing8internal15TestFactoryImplI42var_vartable_get_with_chain_traversal_TestE10CreateTestEv
FNDA:4,_ZN7testing8internal15TestFactoryImplI43exception_return_type_error_stringview_TestE10CreateTestEv
FNDA:4,_ZN7testing8internal15TestFactoryImplI43exception_return_type_error_ulong_long_TestE10CreateTestEv
FNDA:4,_ZN7testing8internal15TestFactoryImplI43exception_test_const_binop_bitor_error_TestE10CreateTestEv
FNDA:4,_ZN7testing8internal15TestFactoryImplI43exception_test_const_binop_minus_error_TestE10CreateTestEv
FNDA:4,_ZN7testing8internal15TestFactoryImplI43exception_test_const_binop_slash_error_TestE10CreateTestEv
FNDA:4,_ZN7testing8internal15TestFactoryImplI43exception_test_const_unop_bitnot_error_TestE10CreateTestEv
FNDA:3,_ZN7testing8internal15TestFactoryImplI43infer_test_infer_reassign_int_to_float_TestE10CreateTestEv
FNDA:3,_ZN7testing8internal15TestFactoryImplI43infer_test_infer_typed_float_for_mixed_TestE10CreateTestEv
FNDA:3,_ZN7testing8internal15TestFactoryImplI43infer_test_infer_typed_int_unary_minus_TestE10CreateTestEv
FNDA:3,_ZN7testing8internal15TestFactoryImplI43infer_test_infer_unary_minus_for_bound_TestE10CreateTestEv
FNDA:4,_ZN7testing8internal15TestFactoryImplI43jitter_test_binop_right_shift_overflow_TestE10CreateTestEv
FNDA:4,_ZN7testing8internal15TestFactoryImplI43jitter_test_table_stringid_dynamic_get_TestE10CreateTestEv
FNDA:4,_ZN7testing8internal15TestFactoryImplI43jitter_test_table_stringid_dynamic_set_TestE10CreateTestEv
FNDA:3,_ZN7testing8internal15TestFactoryImplI43var_table_float_key_out_of_int64_range_TestE10CreateTestEv
FNDA:4,_ZN7testing8internal15TestFactoryImplI44exception_global_duplicate_lvalue_error_TestE10CreateTestEv
FNDA:4,_ZN7testing8internal15TestFactoryImplI44exception_test_const_binop_bitand_error_TestE10CreateTestEv
FNDA:4,_ZN7testing8internal15TestFactoryImplI44exception_test_for_in_prefix_func_error_TestE10CreateTestEv
FNDA:3,_ZN7testing8internal15TestFactoryImplI44infer_test_infer_typed_int_double_slash_TestE10CreateTestEv
FNDA:3,_ZN7testing8internal15TestFactoryImplI44infer_test_infer_typed_int_negative_mod_TestE10CreateTestEv
FNDA:3,_ZN7testing8internal15TestFactoryImplI44var_vartable_delete_hash_mode_not_found_TestE10CreateTestEv
FNDA:3,_ZN7testing8internal15TestFactoryImplI45infer_test_infer_typed_float_unary_minus_TestE10CreateTestEv
FNDA:3,_ZN7testing8internal15TestFactoryImplI45var_vartable_delete_from_full_quick_data_TestE10CreateTestEv
FNDA:3,_ZN7testing8internal15TestFactoryImplI45var_vartable_delete_hash_mode_chain_node_TestE10CreateTestEv
FNDA:3,_ZN7testing8internal15TestFactoryImplI46infer_test_infer_typed_float_double_slash_TestE10CreateTestEv
FNDA:4,_ZN7testing8internal15TestFactoryImplI46jitter_test_table_float_int_key_alias_get_TestE10CreateTestEv
FNDA:4,_ZN7testing8internal15TestFactoryImplI46jitter_test_table_float_int_key_alias_set_TestE10CreateTestEv
FNDA:4,_ZN7testing8internal15TestFactoryImplI46runtime_generate_tmp_filename_creates_dir_TestE10CreateTestEv
FNDA:4,_ZN7testing8internal15TestFactoryImplI46runtime_heap_allocator_boundary_and_reset_TestE10CreateTestEv
FNDA:3,_ZN7testing8internal15TestFactoryImplI46var_vartable_delete_quick_data_swap_paths_TestE10CreateTestEv
FNDA:3,_ZN7testing8internal15TestFactoryImplI46var_vartable_get_quick_data_all_positions_TestE10CreateTestEv
FNDA:3,_ZN7testing8internal15TestFactoryImplI46var_vartable_update_existing_in_hash_mode_TestE10CreateTestEv
FNDA:4,_ZN7testing8internal15TestFactoryImplI47runtime_inter_object_conversion_and_errors_TestE10CreateTestEv
FNDA:3,_ZN7testing8internal15TestFactoryImplI47var_vartable_get_empty_bucket_in_hash_mode_TestE10CreateTestEv
FNDA:3,_ZN7testing8internal15TestFactoryImplI47var_vartable_get_hash_mode_chain_traversal_TestE10CreateTestEv
FNDA:4,_ZN7testing8internal15TestFactoryImplI48exception_const_define_func_param_duplicate_TestE10CreateTestEv
FNDA:4,_ZN7testing8internal15TestFactoryImplI48exception_test_const_binop_left_shift_error_TestE10CreateTestEv
FNDA:4,_ZN7testing8internal15TestFactoryImplI48exception_test_const_binop_less_equal_error_TestE10CreateTestEv
FNDA:4,_ZN7testing8internal15TestFactoryImplI48exception_test_const_binop_more_equal_error_TestE10CreateTestEv
FNDA:4,_ZN7testing8internal15TestFactoryImplI48jitter_test_local_func_call_table_construct_TestE10CreateTestEv
FNDA:4,_ZN7testing8internal15TestFactoryImplI48runtime_vm_helper_functions_throw_and_alloc_TestE10CreateTestEv
FNDA:3,_ZN7testing8internal15TestFactoryImplI48var_vartable_delete_quick_data_position_4_7_TestE10CreateTestEv
FNDA:4,_ZN7testing8internal15TestFactoryImplI49exception_test_const_binop_right_shift_error_TestE10CreateTestEv
FNDA:4,_ZN7testing8internal15TestFactoryImplI49jitter_test_local_table_with_variadic_no_end_TestE10CreateTestEv
FNDA:3,_ZN7testing8internal15TestFactoryImplI49syntax_tree_preprocess_assign_count_mismatch_TestE10CreateTestEv
FNDA:3,_ZN7testing8internal15TestFactoryImplI49var_vartable_delete_quick_data_all_positions_TestE10CreateTestEv
FNDA:3,_ZN7testing8internal15TestFactoryImplI49var_vartable_update_quick_data_all_positions_TestE10CreateTestEv
FNDA:4,_ZN7testing8internal15TestFactoryImplI50exception_test_const_binop_double_slash_error_TestE10CreateTestEv
FNDA:3,_ZN7testing8internal15TestFactoryImplI50infer_test_infer_do_shadow_typed_over_dynamic_TestE10CreateTestEv
FNDA:3,_ZN7testing8internal15TestFactoryImplI50infer_test_infer_typed_int_negative_floor_div_TestE10CreateTestEv
FNDA:3,_ZN7testing8internal15TestFactoryImplI50var_vartable_delete_empty_bucket_in_hash_mode_TestE10CreateTestEv
FNDA:4,_ZN7testing8internal15TestFactoryImplI51runtime_heap_allocator_large_alloc_after_small_TestE10CreateTestEv
FNDA:3,_ZN7testing8internal15TestFactoryImplI51var_vartable_delete_nonexistent_from_hash_mode_TestE10CreateTestEv
FNDA:3,_ZN7testing8internal15TestFactoryImplI52syntax_tree_preprocess_colon_method_unsupported_TestE10CreateTestEv
FNDA:3,_ZN7testing8internal15TestFactoryImplI56var_vartable_delete_hash_mode_main_bucket_with_next_TestE10CreateTestEv
FNDA:4,_ZN7testing8internal15TestFactoryImplI57jitter_test_local_table_with_variadic_no_end_replace_TestE10CreateTestEv
FNDA:3,_ZN7testing8internal15TestFactoryImplI58syntax_tree_preprocess_multipart_funcname_unsupported_TestE10CreateTestEv
FNDA:0,_ZN7testing8internal16SuiteApiResolverINS0_12_GLOBAL__N_111FailureTestEE19GetSetUpCaseOrSuiteEPKci
FNDA:5896,_ZN7testing8internal16SuiteApiResolverINS_4TestEE19GetSetUpCaseOrSuiteEPKci
FNDA:0,_ZN7testing8internal16SuiteApiResolverINS0_12_GLOBAL__N_111FailureTestEE22GetTearDownCaseOrSuiteEPKci
FNDA:5896,_ZN7testing8internal16SuiteApiResolverINS_4TestEE22GetTearDownCaseOrSuiteEPKci
FNDA:0,_ZN7testing8internal9SkipCommaEPKc
FNDA:0,_ZN7testing8internal19GetPrefixUntilCommaB5cxx11EPKc
FNF:439
FNH:435
DA:293,98
DA:315,98
DA:318,0
DA:324,98
DA:327,0
DA:336,49
DA:339,49
DA:341,49
DA:360,98
DA:361,98
DA:363,10
DA:366,88
DA:372,49
DA:373,49
DA:374,49
DA:375,49
DA:410,0
DA:436,0
DA:448,1511
DA:468,23584
DA:469,0
DA:470,0
DA:497,5896
DA:501,5896
DA:503,5896
DA:505,5896
DA:508,0
DA:510,5896
DA:518,5896
DA:522,5896
DA:524,5896
DA:526,5896
DA:529,0
DA:531,5896
DA:627,0
DA:628,0
DA:629,0
DA:632,0
DA:639,0
DA:640,0
DA:641,0
DA:815,0
DA:828,318
DA:829,318
DA:845,14
DA:847,0
DA:1322,0
DA:1323,0
LF:48
LH:29
end_of_record
TN:
SF:/home/runner/work/fakelua/fakelua/build_cov/_deps/googletest-src/googletest/include/gtest/internal/gtest-param-util.h
FN:304,304,_ZN7testing8internal30ValuesInIteratorRangeGeneratorIbED0Ev
FN:304,304,_ZN7testing8internal30ValuesInIteratorRangeGeneratorIbED2Ev
FN:306,308,_ZNK7testing8internal30ValuesInIteratorRangeGeneratorIbE5BeginEv
FN:309,311,_ZNK7testing8internal30ValuesInIteratorRangeGeneratorIbE3EndEv
FN:321,321,_ZN7testing8internal30ValuesInIteratorRangeGeneratorIbE8IteratorD0Ev
FN:321,321,_ZN7testing8internal30ValuesInIteratorRangeGeneratorIbE8IteratorD2Ev
FN:323,325,_ZNK7testing8internal30ValuesInIteratorRangeGeneratorIbE8Iterator13BaseGeneratorEv
FN:326,329,_ZN7testing8internal30ValuesInIteratorRangeGeneratorIbE8Iterator7AdvanceEv
FN:330,332,_ZNK7testing8internal30ValuesInIteratorRangeGeneratorIbE8Iterator5CloneEv
FN:340,343,_ZNK7testing8internal30ValuesInIteratorRangeGeneratorIbE8Iterator7CurrentEv
FN:344,352,_ZNK7testing8internal30ValuesInIteratorRangeGeneratorIbE8Iterator6EqualsERKNS0_22ParamIteratorInterfaceIbEE
FN:694,698,_ZN7testing8internal30ParameterizedTestSuiteRegistryD2Ev
FNDA:0,_ZN7testing8internal30ValuesInIteratorRangeGeneratorIbED0Ev
FNDA:0,_ZN7testing8internal30ValuesInIteratorRangeGeneratorIbED2Ev
FNDA:0,_ZNK7testing8internal30ValuesInIteratorRangeGeneratorIbE5BeginEv
FNDA:0,_ZNK7testing8internal30ValuesInIteratorRangeGeneratorIbE3EndEv
FNDA:0,_ZN7testing8internal30ValuesInIteratorRangeGeneratorIbE8IteratorD0Ev
FNDA:0,_ZN7testing8internal30ValuesInIteratorRangeGeneratorIbE8IteratorD2Ev
FNDA:0,_ZNK7testing8internal30ValuesInIteratorRangeGeneratorIbE8Iterator13BaseGeneratorEv
FNDA:0,_ZN7testing8internal30ValuesInIteratorRangeGeneratorIbE8Iterator7AdvanceEv
FNDA:0,_ZNK7testing8internal30ValuesInIteratorRangeGeneratorIbE8Iterator5CloneEv
FNDA:0,_ZNK7testing8internal30ValuesInIteratorRangeGeneratorIbE8Iterator7CurrentEv
FNDA:0,_ZNK7testing8internal30ValuesInIteratorRangeGeneratorIbE8Iterator6EqualsERKNS0_22ParamIteratorInterfaceIbEE
FNDA:14,_ZN7testing8internal30ParameterizedTestSuiteRegistryD2Ev
FNF:12
FNH:1
DA:100,0
DA:102,0
DA:176,0
DA:304,0
DA:306,0
DA:307,0
DA:309,0
DA:310,0
DA:318,0
DA:320,0
DA:321,0
DA:323,0
DA:324,0
DA:326,0
DA:327,0
DA:328,0
DA:329,0
DA:330,0
DA:331,0
DA:340,0
DA:341,0
DA:342,0
DA:344,0
DA:347,0
DA:349,0
DA:350,0
DA:351,0
DA:355,0
DA:359,0
DA:360,0
DA:693,14
DA:694,14
DA:695,14
DA:696,0
DA:698,14
DA:734,14
DA:735,14
DA:736,0
DA:765,28
DA:779,0
DA:780,0
DA:781,0
LF:42
LH:7
end_of_record
TN:
SF:/home/runner/work/fakelua/fakelua/build_cov/_deps/googletest-src/googletest/include/gtest/internal/gtest-port.h
FN:1158,1165,_ZN7testing8internal27CheckedDowncastToActualTypeIKNS0_30ValuesInIteratorRangeGeneratorIbE8IteratorEKNS0_22ParamIteratorInterfaceIbEEEEPT_PT0_
FN:1158,1165,_ZN7testing8internal27CheckedDowncastToActualTypeINS0_11ThreadLocalIPNS_31TestPartResultReporterInterfaceEE11ValueHolderENS0_26ThreadLocalValueHolderBaseEEEPT_PT0_
FN:1158,1165,_ZN7testing8internal27CheckedDowncastToActualTypeINS0_11ThreadLocalISt6vectorINS0_9TraceInfoESaIS4_EEE11ValueHolderENS0_26ThreadLocalValueHolderBaseEEEPT_PT0_
FN:1657,1661,_ZN7testing8internal9MutexBase4LockEv
FN:1664,1671,_ZN7testing8internal9MutexBase6UnlockEv
FN:1714,1717,_ZN7testing8internal5MutexC2Ev
FN:1718,1718,_ZN7testing8internal5MutexD2Ev
FN:1753,1753,_ZN7testing8internal26ThreadLocalValueHolderBaseD0Ev
FN:1753,1753,_ZN7testing8internal26ThreadLocalValueHolderBaseD2Ev
FN:1758,1760,DeleteThreadLocalValue
FN:1766,1767,_ZN7testing8internal11ThreadLocalISt6vectorINS0_9TraceInfoESaIS3_EEEC2Ev
FN:1768,1770,_ZN7testing8internal11ThreadLocalIPNS_31TestPartResultReporterInterfaceEEC2ERKS3_
FN:1772,1779,_ZN7testing8internal11ThreadLocalIPNS_31TestPartResultReporterInterfaceEED2Ev
FN:1772,1779,_ZN7testing8internal11ThreadLocalISt6vectorINS0_9TraceInfoESaIS3_EEED2Ev
FN:1801,1808,_ZN7testing8internal11ThreadLocalIPNS_31TestPartResultReporterInterfaceEE9CreateKeyEv
FN:1801,1808,_ZN7testing8internal11ThreadLocalISt6vectorINS0_9TraceInfoESaIS3_EEE9CreateKeyEv
FN:1810,1821,_ZNK7testing8internal11ThreadLocalIPNS_31TestPartResultReporterInterfaceEE16GetOrCreateValueEv
FN:1810,1821,_ZNK7testing8internal11ThreadLocalISt6vectorINS0_9TraceInfoESaIS3_EEE16GetOrCreateValueEv
FN:1837,1837,_ZNK7testing8internal11ThreadLocalISt6vectorINS0_9TraceInfoESaIS3_EEE25DefaultValueHolderFactory13MakeNewHolderEv
FN:1848,1850,_ZNK7testing8internal11ThreadLocalIPNS_31TestPartResultReporterInterfaceEE26InstanceValueHolderFactory13MakeNewHolderEv
FN:1983,1987,_ZN7testing8internal19StripTrailingSpacesENSt7__cxx1112basic_stringIcSt11char_traitsIcESaIcEEE
FN:2124,2126,_ZN7testing8internal5posix4ReadEiPvj
FNDA:0,_ZN7testing8internal27CheckedDowncastToActualTypeIKNS0_30ValuesInIteratorRangeGeneratorIbE8IteratorEKNS0_22ParamIteratorInterfaceIbEEEEPT_PT0_
FNDA:2,_ZN7testing8internal27CheckedDowncastToActualTypeINS0_11ThreadLocalIPNS_31TestPartResultReporterInterfaceEE11ValueHolderENS0_26ThreadLocalValueHolderBaseEEEPT_PT0_
FNDA:2,_ZN7testing8internal27CheckedDowncastToActualTypeINS0_11ThreadLocalISt6vectorINS0_9TraceInfoESaIS4_EEE11ValueHolderENS0_26ThreadLocalValueHolderBaseEEEPT_PT0_
FNDA:3928,_ZN7testing8internal9MutexBase4LockEv
FNDA:3928,_ZN7testing8internal9MutexBase6UnlockEv
FNDA:6064,_ZN7testing8internal5MutexC2Ev
FNDA:6064,_ZN7testing8internal5MutexD2Ev
FNDA:0,_ZN7testing8internal26ThreadLocalValueHolderBaseD0Ev
FNDA:0,_ZN7testing8internal26ThreadLocalValueHolderBaseD2Ev
FNDA:0,DeleteThreadLocalValue
FNDA:14,_ZN7testing8internal11ThreadLocalISt6vectorINS0_9TraceInfoESaIS3_EEEC2Ev
FNDA:14,_ZN7testing8internal11ThreadLocalIPNS_31TestPartResultReporterInterfaceEEC2ERKS3_
FNDA:14,_ZN7testing8internal11ThreadLocalIPNS_31TestPartResultReporterInterfaceEED2Ev
FNDA:14,_ZN7testing8internal11ThreadLocalISt6vectorINS0_9TraceInfoESaIS3_EEED2Ev
FNDA:14,_ZN7testing8internal11ThreadLocalIPNS_31TestPartResultReporterInterfaceEE9CreateKeyEv
FNDA:14,_ZN7testing8internal11ThreadLocalISt6vectorINS0_9TraceInfoESaIS3_EEE9CreateKeyEv
FNDA:6,_ZNK7testing8internal11ThreadLocalIPNS_31TestPartResultReporterInterfaceEE16GetOrCreateValueEv
FNDA:6,_ZNK7testing8internal11ThreadLocalISt6vectorINS0_9TraceInfoESaIS3_EEE16GetOrCreateValueEv
FNDA:4,_ZNK7testing8internal11ThreadLocalISt6vectorINS0_9TraceInfoESaIS3_EEE25DefaultValueHolderFactory13MakeNewHolderEv
FNDA:4,_ZNK7testing8internal11ThreadLocalIPNS_31TestPartResultReporterInterfaceEE26InstanceValueHolderFactory13MakeNewHolderEv
FNDA:0,_ZN7testing8internal19StripTrailingSpacesENSt7__cxx1112basic_stringIcSt11char_traitsIcESaIcEEE
FNDA:0,_ZN7testing8internal5posix4ReadEiPvj
FNF:22
FNH:16
DA:1050,0
DA:1067,0
DA:1158,4
DA:1162,8
DA:1164,4
DA:1657,3928
DA:1658,3928
DA:1659,3928
DA:1660,3928
DA:1661,3928
DA:1664,3928
DA:1669,3928
DA:1670,3928
DA:1671,3928
DA:1714,6064
DA:1715,6064
DA:1716,6064
DA:1717,6064
DA:1718,6064
DA:1732,3928
DA:1734,3928
DA:1751,8
DA:1753,0
DA:1758,28
DA:1759,8
DA:1760,0
DA:1766,14
DA:1767,14
DA:1768,14
DA:1769,14
DA:1770,14
DA:1772,28
DA:1774,28
DA:1778,28
DA:1779,28
DA:1781,6
DA:1782,6
DA:1783,6
DA:1784,0
DA:1790,4
DA:1791,4
DA:1793,12
DA:1801,28
DA:1805,28
DA:1807,28
DA:1810,12
DA:1812,12
DA:1813,12
DA:1814,4
DA:1817,8
DA:1818,8
DA:1819,8
DA:1820,8
DA:1825,28
DA:1836,14
DA:1837,4
DA:1847,14
DA:1848,4
DA:1849,4
DA:1943,0
DA:1944,0
DA:1949,0
DA:1950,0
DA:1955,0
DA:1956,0
DA:1959,0
DA:1960,0
DA:1963,0
DA:1964,0
DA:1965,0
DA:1967,0
DA:1968,0
DA:1969,0
DA:1971,0
DA:1972,0
DA:1973,0
DA:1979,6188
DA:1980,6188
DA:1983,0
DA:1984,0
DA:1985,0
DA:1986,0
DA:1987,0
DA:2035,14
DA:2037,0
DA:2044,0
DA:2073,14
DA:2074,14
DA:2075,14
DA:2080,14
DA:2084,14
DA:2085,14
DA:2086,14
DA:2088,14
DA:2105,0
DA:2113,0
DA:2120,0
DA:2122,0
DA:2124,0
DA:2125,0
DA:2127,0
DA:2128,0
DA:2130,0
DA:2135,0
DA:2138,435
DA:2151,435
DA:2163,0
LF:107
LH:67
end_of_record
TN:
SF:/home/runner/work/fakelua/fakelua/build_cov/_deps/googletest-src/googletest/include/gtest/internal/gtest-type-util.h
FN:61,87,_ZN7testing8internal31CanonicalizeForStdLibVersioningENSt7__cxx1112basic_stringIcSt11char_traitsIcESaIcEEE
FN:91,121,_ZN7testing8internal11GetTypeNameB5cxx11ERKSt9type_info
FNDA:0,_ZN7testing8internal31CanonicalizeForStdLibVersioningENSt7__cxx1112basic_stringIcSt11char_traitsIcESaIcEEE
FNDA:0,_ZN7testing8internal11GetTypeNameB5cxx11ERKSt9type_info
FNF:2
FNH:0
DA:61,0
DA:62,0
DA:63,0
DA:64,0
DA:65,0
DA:67,0
DA:76,0
DA:78,0
DA:79,0
DA:83,0
DA:84,0
DA:86,0
DA:91,0
DA:92,0
DA:94,0
DA:98,0
DA:100,0
DA:101,0
DA:102,0
DA:103,0
DA:121,0
LF:21
LH:0
end_of_record
TN:
SF:/home/runner/work/fakelua/fakelua/build_cov/_deps/googletest-src/googletest/src/gtest-assertion-result.cc
FN:45,49,_ZN7testing15AssertionResultC2ERKS0_
FN:52,56,_ZN7testing15AssertionResult4swapERS0_
FN:59,63,_ZNK7testing15AssertionResultntEv
FN:66,66,_ZN7testing16AssertionSuccessEv
FN:69,69,_ZN7testing16AssertionFailureEv
FN:73,75,_ZN7testing16AssertionFailureERKNS_7MessageE
FNDA:0,_ZN7testing15AssertionResultC2ERKS0_
FNDA:0,_ZN7testing15AssertionResult4swapERS0_
FNDA:0,_ZNK7testing15AssertionResultntEv
FNDA:20849,_ZN7testing16AssertionSuccessEv
FNDA:0,_ZN7testing16AssertionFailureEv
FNDA:0,_ZN7testing16AssertionFailureERKNS_7MessageE
FNF:6
FNH:1
DA:45,0
DA:46,0
DA:47,0
DA:48,0
DA:49,0
DA:52,0
DA:53,0
DA:54,0
DA:55,0
DA:56,0
DA:59,0
DA:60,0
DA:61,0
DA:62,0
DA:63,0
DA:66,20849
DA:69,0
DA:73,0
DA:74,0
LF:19
LH:1
end_of_record
TN:
SF:/home/runner/work/fakelua/fakelua/build_cov/_deps/googletest-src/googletest/src/gtest-death-test.cc
FN:1072,1074,_ZN7testing8internal16ForkingDeathTestC2EPKcNS_7MatcherIRKNSt7__cxx1112basic_stringIcSt11char_traitsIcESaIcEEEEE
FN:1079,1088,_ZN7testing8internal16ForkingDeathTest4WaitEv
FN:1094,1095,_ZN7testing8internal15NoExecDeathTestC2EPKcNS_7MatcherIRKNSt7__cxx1112basic_stringIcSt11char_traitsIcESaIcEEEEE
FN:1101,1142,_ZN7testing8internal15NoExecDeathTest10AssumeRoleEv
FN:1149,1153,_ZN7testing8internal13ExecDeathTestC2EPKcNS_7MatcherIRKNSt7__cxx1112basic_stringIcSt11char_traitsIcESaIcEEEEES3_i
FN:1185,1210,_ZN7testing8internalL22ExecDeathTestChildMainEPv
FN:1233,1236,_ZN7testing8internalL21StackLowerThanAddressEPKvPb
FN:1256,1348,_ZN7testing8internalL23ExecDeathTestSpawnChildEPKPci
FN:1354,1398,_ZN7testing8internal13ExecDeathTest10AssumeRoleEv
FN:1407,1465,_ZN7testing8internal23DefaultDeathTestFactory6CreateEPKcNS_7MatcherIRKNSt7__cxx1112basic_stringIcSt11char_traitsIcESaIcEEEEES3_iPPNS0_9DeathTestE
FN:1533,1581,_ZN7testing8internal29ParseInternalRunDeathTestFlagEv
FN:155,169,_ZN7testing8internal16InDeathTestChildEv
FN:174,174,_ZN7testing14ExitedWithCodeC2Ei
FN:177,187,_ZNK7testing14ExitedWithCodeclEi
FN:191,191,_ZN7testing14KilledBySignalC2Ei
FN:194,204,_ZNK7testing14KilledBySignalclEi
FN:213,235,_ZN7testing8internalL11ExitSummaryEi
FN:239,241,_ZN7testing8internal20ExitedUnsuccessfullyEi
FN:248,263,_ZN7testing8internalL22DeathTestThreadWarningEm
FN:293,310,_ZN7testing8internalL14DeathTestAbortERKNSt7__cxx1112basic_stringIcSt11char_traitsIcESaIcEEE
FN:346,348,_ZN7testing8internal23GetLastErrnoDescriptionB5cxx11Ev
FN:354,373,_ZN7testing8internalL21FailFromInternalErrorEi
FN:377,384,_ZN7testing8internal9DeathTestC2Ev
FN:388,393,_ZN7testing8internal9DeathTest6CreateEPKcNS_7MatcherIRKNSt7__cxx1112basic_stringIcSt11char_traitsIcESaIcEEEEES3_iPPS1_
FN:395,397,_ZN7testing8internal9DeathTest11LastMessageEv
FN:399,401,_ZN7testing8internal9DeathTest27set_last_death_test_messageERKNSt7__cxx1112basic_stringIcSt11char_traitsIcESaIcEEE
FN:418,418,_ZN7testing8internal13DeathTestImplD0Ev
FN:418,418,_ZN7testing8internal13DeathTestImplD2Ev
FN:470,509,_ZN7testing8internal13DeathTestImpl26ReadAndInterpretStatusByteEv
FN:511,511,_ZN7testing8internal13DeathTestImpl12GetErrorLogsB5cxx11Ev
FN:517,535,_ZN7testing8internal13DeathTestImpl5AbortENS0_9DeathTest11AbortReasonE
FN:540,553,_ZN7testing8internalL21FormatDeathTestOutputERKNSt7__cxx1112basic_stringIcSt11char_traitsIcESaIcEEE
FN:576,628,_ZN7testing8internal13DeathTestImpl6PassedEb
FN:633,641,_ZN7testing8internalL18CreateArgvFromArgsERSt6vectorINSt7__cxx1112basic_stringIcSt11char_traitsIcESaIcEEESaIS7_EE
FNDA:0,_ZN7testing8internal16ForkingDeathTestC2EPKcNS_7MatcherIRKNSt7__cxx1112basic_stringIcSt11char_traitsIcESaIcEEEEE
FNDA:0,_ZN7testing8internal16ForkingDeathTest4WaitEv
FNDA:0,_ZN7testing8internal15NoExecDeathTestC2EPKcNS_7MatcherIRKNSt7__cxx1112basic_stringIcSt11char_traitsIcESaIcEEEEE
FNDA:0,_ZN7testing8internal15NoExecDeathTest10AssumeRoleEv
FNDA:0,_ZN7testing8internal13ExecDeathTestC2EPKcNS_7MatcherIRKNSt7__cxx1112basic_stringIcSt11char_traitsIcESaIcEEEEES3_i
FNDA:0,_ZN7testing8internalL22ExecDeathTestChildMainEPv
FNDA:0,_ZN7testing8internalL21StackLowerThanAddressEPKvPb
FNDA:0,_ZN7testing8internalL23ExecDeathTestSpawnChildEPKPci
FNDA:0,_ZN7testing8internal13ExecDeathTest10AssumeRoleEv
FNDA:0,_ZN7testing8internal23DefaultDeathTestFactory6CreateEPKcNS_7MatcherIRKNSt7__cxx1112basic_stringIcSt11char_traitsIcESaIcEEEEES3_iPPNS0_9DeathTestE
FNDA:14,_ZN7testing8internal29ParseInternalRunDeathTestFlagEv
FNDA:0,_ZN7testing8internal16InDeathTestChildEv
FNDA:0,_ZN7testing14ExitedWithCodeC2Ei
FNDA:0,_ZNK7testing14ExitedWithCodeclEi
FNDA:0,_ZN7testing14KilledBySignalC2Ei
FNDA:0,_ZNK7testing14KilledBySignalclEi
FNDA:0,_ZN7testing8internalL11ExitSummaryEi
FNDA:0,_ZN7testing8internal20ExitedUnsuccessfullyEi
FNDA:0,_ZN7testing8internalL22DeathTestThreadWarningEm
FNDA:0,_ZN7testing8internalL14DeathTestAbortERKNSt7__cxx1112basic_stringIcSt11char_traitsIcESaIcEEE
FNDA:0,_ZN7testing8internal23GetLastErrnoDescriptionB5cxx11Ev
FNDA:0,_ZN7testing8internalL21FailFromInternalErrorEi
FNDA:0,_ZN7testing8internal9DeathTestC2Ev
FNDA:0,_ZN7testing8internal9DeathTest6CreateEPKcNS_7MatcherIRKNSt7__cxx1112basic_stringIcSt11char_traitsIcESaIcEEEEES3_iPPS1_
FNDA:0,_ZN7testing8internal9DeathTest11LastMessageEv
FNDA:0,_ZN7testing8internal9DeathTest27set_last_death_test_messageERKNSt7__cxx1112basic_stringIcSt11char_traitsIcESaIcEEE
FNDA:0,_ZN7testing8internal13DeathTestImplD0Ev
FNDA:0,_ZN7testing8internal13DeathTestImplD2Ev
FNDA:0,_ZN7testing8internal13DeathTestImpl26ReadAndInterpretStatusByteEv
FNDA:0,_ZN7testing8internal13DeathTestImpl12GetErrorLogsB5cxx11Ev
FNDA:0,_ZN7testing8internal13DeathTestImpl5AbortENS0_9DeathTest11AbortReasonE
FNDA:0,_ZN7testing8internalL21FormatDeathTestOutputERKNSt7__cxx1112basic_stringIcSt11char_traitsIcESaIcEEE
FNDA:0,_ZN7testing8internal13DeathTestImpl6PassedEb
FNDA:0,_ZN7testing8internalL18CreateArgvFromArgsERSt6vectorINSt7__cxx1112basic_stringIcSt11char_traitsIcESaIcEEESaIS7_EE
FNF:34
FNH:1
DA:155,0
DA:164,0
DA:165,0
DA:167,0
DA:174,0
DA:177,0
DA:184,0
DA:191,0
DA:194,0
DA:203,0
DA:213,0
DA:214,0
DA:222,0
DA:223,0
DA:224,0
DA:225,0
DA:228,0
DA:229,0
DA:234,0
DA:235,0
DA:239,0
DA:240,0
DA:248,0
DA:249,0
DA:250,0
DA:251,0
DA:252,0
DA:253,0
DA:255,0
DA:257,0
DA:259,0
DA:260,0
DA:261,0
DA:262,0
DA:263,0
DA:293,0
DA:297,0
DA:298,0
DA:299,0
DA:300,0
DA:301,0
DA:302,0
DA:303,0
DA:304,0
DA:306,0
DA:307,0
DA:308,0
DA:346,0
DA:347,0
DA:354,0
DA:355,0
DA:360,0
DA:361,0
DA:362,0
DA:364,0
DA:366,0
DA:367,0
DA:369,0
DA:370,0
DA:371,0
DA:373,0
DA:377,0
DA:378,0
DA:379,0
DA:380,0
DA:384,0
DA:388,0
DA:391,0
DA:392,0
DA:395,0
DA:396,0
DA:399,0
DA:400,0
DA:401,0
DA:408,0
DA:409,0
DA:410,0
DA:411,0
DA:412,0
DA:413,0
DA:414,0
DA:415,0
DA:418,0
DA:423,0
DA:424,0
DA:425,0
DA:426,0
DA:427,0
DA:428,0
DA:429,0
DA:430,0
DA:431,0
DA:432,0
DA:433,0
DA:470,0
DA:471,0
DA:472,0
DA:478,0
DA:479,0
DA:480,0
DA:482,0
DA:483,0
DA:484,0
DA:485,0
DA:486,0
DA:487,0
DA:488,0
DA:489,0
DA:490,0
DA:491,0
DA:492,0
DA:493,0
DA:494,0
DA:495,0
DA:496,0
DA:498,0
DA:499,0
DA:500,0
DA:501,0
DA:504,0
DA:505,0
DA:507,0
DA:508,0
DA:509,0
DA:511,0
DA:517,0
DA:521,0
DA:525,0
DA:534,0
DA:540,0
DA:541,0
DA:542,0
DA:543,0
DA:544,0
DA:545,0
DA:546,0
DA:547,0
DA:549,0
DA:550,0
DA:551,0
DA:552,0
DA:553,0
DA:576,0
DA:577,0
DA:579,0
DA:581,0
DA:582,0
DA:584,0
DA:585,0
DA:586,0
DA:587,0
DA:588,0
DA:589,0
DA:590,0
DA:591,0
DA:592,0
DA:593,0
DA:594,0
DA:595,0
DA:596,0
DA:597,0
DA:598,0
DA:599,0
DA:600,0
DA:601,0
DA:602,0
DA:603,0
DA:606,0
DA:607,0
DA:608,0
DA:609,0
DA:610,0
DA:611,0
DA:612,0
DA:614,0
DA:615,0
DA:616,0
DA:617,0
DA:620,0
DA:621,0
DA:622,0
DA:623,0
DA:626,0
DA:627,0
DA:628,0
DA:633,0
DA:634,0
DA:635,0
DA:636,0
DA:637,0
DA:639,0
DA:640,0
DA:641,0
DA:1064,0
DA:1072,0
DA:1073,0
DA:1074,0
DA:1079,0
DA:1080,0
DA:1082,0
DA:1084,0
DA:1085,0
DA:1086,0
DA:1087,0
DA:1094,0
DA:1095,0
DA:1101,0
DA:1102,0
DA:1103,0
DA:1104,0
DA:1107,0
DA:1108,0
DA:1110,0
DA:1111,0
DA:1119,0
DA:1121,0
DA:1122,0
DA:1123,0
DA:1124,0
DA:1125,0
DA:1126,0
DA:1130,0
DA:1133,0
DA:1134,0
DA:1135,0
DA:1137,0
DA:1138,0
DA:1139,0
DA:1140,0
DA:1149,0
DA:1151,0
DA:1152,0
DA:1153,0
DA:1157,0
DA:1158,0
DA:1164,0
DA:1185,0
DA:1186,0
DA:1187,0
DA:1192,0
DA:1193,0
DA:1195,0
DA:1196,0
DA:1197,0
DA:1206,0
DA:1207,0
DA:1208,0
DA:1233,0
DA:1234,0
DA:1235,0
DA:1236,0
DA:1241,0
DA:1242,0
DA:1243,0
DA:1244,0
DA:1245,0
DA:1256,0
DA:1257,0
DA:1258,0
DA:1295,0
DA:1296,0
DA:1297,0
DA:1298,0
DA:1299,0
DA:1300,0
DA:1305,0
DA:1307,0
DA:1308,0
DA:1309,0
DA:1311,0
DA:1313,0
DA:1321,0
DA:1322,0
DA:1323,0
DA:1324,0
DA:1325,0
DA:1329,0
DA:1331,0
DA:1337,0
DA:1338,0
DA:1342,0
DA:1346,0
DA:1347,0
DA:1354,0
DA:1355,0
DA:1356,0
DA:1357,0
DA:1358,0
DA:1359,0
DA:1361,0
DA:1362,0
DA:1363,0
DA:1366,0
DA:1367,0
DA:1370,0
DA:1372,0
DA:1373,0
DA:1374,0
DA:1375,0
DA:1376,0
DA:1377,0
DA:1378,0
DA:1379,0
DA:1380,0
DA:1381,0
DA:1382,0
DA:1384,0
DA:1386,0
DA:1389,0
DA:1391,0
DA:1392,0
DA:1393,0
DA:1394,0
DA:1395,0
DA:1396,0
DA:1397,0
DA:1398,0
DA:1407,0
DA:1411,0
DA:1412,0
DA:1413,0
DA:1414,0
DA:1415,0
DA:1417,0
DA:1418,0
DA:1419,0
DA:1420,0
DA:1421,0
DA:1422,0
DA:1423,0
DA:1426,0
DA:1427,0
DA:1428,0
DA:1429,0
DA:1449,0
DA:1450,0
DA:1451,0
DA:1452,0
DA:1458,0
DA:1459,0
DA:1461,0
DA:1533,14
DA:1534,14
DA:1538,0
DA:1539,0
DA:1540,0
DA:1541,0
DA:1542,0
DA:1571,0
DA:1572,0
DA:1573,0
DA:1574,0
DA:1580,0
DA:1581,0
LF:354
LH:2
end_of_record
TN:
SF:/home/runner/work/fakelua/fakelua/build_cov/_deps/googletest-src/googletest/src/gtest-filepath.cc
FN:101,124,_ZN7testing8internal8FilePath13GetCurrentDirEv
FN:130,137,_ZNK7testing8internal8FilePath15RemoveExtensionEPKc
FN:142,153,_ZNK7testing8internal8FilePath21FindLastPathSeparatorEv
FN:155,191,_ZNK7testing8internal8FilePath19CalculateRootLengthEv
FN:199,202,_ZNK7testing8internal8FilePath19RemoveDirectoryNameEv
FN:210,219,_ZNK7testing8internal8FilePath14RemoveFileNameEv
FN:227,238,_ZN7testing8internal8FilePath12MakeFileNameERKS1_S3_iPKc
FN:242,247,_ZN7testing8internal8FilePath11ConcatPathsERKS1_S3_
FN:251,261,_ZNK7testing8internal8FilePath21FileOrDirectoryExistsEv
FN:265,291,_ZNK7testing8internal8FilePath15DirectoryExistsEv
FN:295,299,_ZNK7testing8internal8FilePath15IsRootDirectoryEv
FN:302,302,_ZNK7testing8internal8FilePath14IsAbsolutePathEv
FN:312,321,_ZN7testing8internal8FilePath22GenerateUniqueFileNameERKS1_S3_PKc
FN:326,329,_ZNK7testing8internal8FilePath11IsDirectoryEv
FN:334,345,_ZNK7testing8internal8FilePath28CreateDirectoriesRecursivelyEv
FN:351,372,_ZNK7testing8internal8FilePath12CreateFolderEv
FN:377,380,_ZNK7testing8internal8FilePath27RemoveTrailingPathSeparatorEv
FN:386,409,_ZN7testing8internal8FilePath9NormalizeEv
FNDA:14,_ZN7testing8internal8FilePath13GetCurrentDirEv
FNDA:0,_ZNK7testing8internal8FilePath15RemoveExtensionEPKc
FNDA:0,_ZNK7testing8internal8FilePath21FindLastPathSeparatorEv
FNDA:0,_ZNK7testing8internal8FilePath19CalculateRootLengthEv
FNDA:0,_ZNK7testing8internal8FilePath19RemoveDirectoryNameEv
FNDA:0,_ZNK7testing8internal8FilePath14RemoveFileNameEv
FNDA:0,_ZN7testing8internal8FilePath12MakeFileNameERKS1_S3_iPKc
FNDA:0,_ZN7testing8internal8FilePath11ConcatPathsERKS1_S3_
FNDA:0,_ZNK7testing8internal8FilePath21FileOrDirectoryExistsEv
FNDA:0,_ZNK7testing8internal8FilePath15DirectoryExistsEv
FNDA:0,_ZNK7testing8internal8FilePath15IsRootDirectoryEv
FNDA:0,_ZNK7testing8internal8FilePath14IsAbsolutePathEv
FNDA:0,_ZN7testing8internal8FilePath22GenerateUniqueFileNameERKS1_S3_PKc
FNDA:0,_ZNK7testing8internal8FilePath11IsDirectoryEv
FNDA:0,_ZNK7testing8internal8FilePath28CreateDirectoriesRecursivelyEv
FNDA:0,_ZNK7testing8internal8FilePath12CreateFolderEv
FNDA:0,_ZNK7testing8internal8FilePath27RemoveTrailingPathSeparatorEv
FNDA:14,_ZN7testing8internal8FilePath9NormalizeEv
FNF:18
FNH:2
DA:101,14
DA:114,14
DA:115,14
DA:122,28
DA:130,0
DA:131,0
DA:132,0
DA:133,0
DA:134,0
DA:136,0
DA:137,0
DA:142,0
DA:143,0
DA:152,0
DA:155,0
DA:156,0
DA:157,0
DA:158,0
DA:186,0
DA:187,0
DA:190,0
DA:199,0
DA:200,0
DA:201,0
DA:210,0
DA:211,0
DA:212,0
DA:213,0
DA:214,0
DA:216,0
DA:218,0
DA:219,0
DA:227,0
DA:230,0
DA:231,0
DA:232,0
DA:234,0
DA:235,0
DA:237,0
DA:238,0
DA:242,0
DA:244,0
DA:245,0
DA:246,0
DA:247,0
DA:251,0
DA:258,0
DA:259,0
DA:265,0
DA:266,0
DA:273,0
DA:285,0
DA:286,0
DA:287,0
DA:290,0
DA:295,0
DA:296,0
DA:297,0
DA:298,0
DA:302,0
DA:312,0
DA:315,0
DA:316,0
DA:317,0
DA:318,0
DA:319,0
DA:320,0
DA:321,0
DA:326,0
DA:327,0
DA:328,0
DA:334,0
DA:335,0
DA:339,0
DA:340,0
DA:343,0
DA:344,0
DA:345,0
DA:351,0
DA:365,0
DA:368,0
DA:369,0
DA:377,0
DA:378,0
DA:379,0
DA:386,14
DA:387,14
DA:389,14
DA:398,607
DA:399,593
DA:400,593
DA:401,503
DA:402,166
DA:403,90
DA:405,593
DA:408,14
DA:409,14
LF:97
LH:16
end_of_record
TN:
SF:/home/runner/work/fakelua/fakelua/build_cov/_deps/googletest-src/googletest/src/gtest-internal-inl.h
FN:1023,1048,_ZN7testing8internal18ParseNaturalNumberIiEEbRKNSt7__cxx1112basic_stringIcSt11char_traitsIcESaIcEEEPT_
FN:1089,1089,_ZN7testing8internal17StreamingListener20AbstractSocketWriter15CloseConnectionEv
FN:1092,1092,_ZN7testing8internal17StreamingListener20AbstractSocketWriter6SendLnERKNSt7__cxx1112basic_stringIcSt11char_traitsIcESaIcEEE
FN:1098,1101,_ZN7testing8internal17StreamingListener12SocketWriterC2ERKNSt7__cxx1112basic_stringIcSt11char_traitsIcESaIcEEESA_
FN:1103,1105,_ZN7testing8internal17StreamingListener12SocketWriterD0Ev
FN:1103,1105,_ZN7testing8internal17StreamingListener12SocketWriterD2Ev
FN:1108,1117,_ZN7testing8internal17StreamingListener12SocketWriter4SendERKNSt7__cxx1112basic_stringIcSt11char_traitsIcESaIcEEE
FN:1124,1130,_ZN7testing8internal17StreamingListener12SocketWriter15CloseConnectionEv
FN:1143,1146,_ZN7testing8internal17StreamingListenerC2ERKNSt7__cxx1112basic_stringIcSt11char_traitsIcESaIcEEES9_
FN:1153,1155,_ZN7testing8internal17StreamingListener18OnTestProgramStartERKNS_8UnitTestE
FN:1157,1164,_ZN7testing8internal17StreamingListener16OnTestProgramEndERKNS_8UnitTestE
FN:1166,1170,_ZN7testing8internal17StreamingListener20OnTestIterationStartERKNS_8UnitTestEi
FN:1172,1177,_ZN7testing8internal17StreamingListener18OnTestIterationEndERKNS_8UnitTestEi
FN:1181,1183,_ZN7testing8internal17StreamingListener16OnTestSuiteStartERKNS_9TestSuiteE
FN:1187,1191,_ZN7testing8internal17StreamingListener14OnTestSuiteEndERKNS_9TestSuiteE
FN:1193,1195,_ZN7testing8internal17StreamingListener11OnTestStartERKNS_8TestInfoE
FN:1197,1201,_ZN7testing8internal17StreamingListener9OnTestEndERKNS_8TestInfoE
FN:1203,1209,_ZN7testing8internal17StreamingListener16OnTestPartResultERKNS_14TestPartResultE
FN:1217,1217,_ZN7testing8internal17StreamingListener5StartEv
FN:131,137,_ZN7testing8internal17GetNextRandomSeedEi
FN:144,167,_ZN7testing8internal14GTestFlagSaverC2Ev
FN:170,193,_ZN7testing8internal14GTestFlagSaverD2Ev
FN:305,325,_ZN7testing8internal12ShuffleRangeIiEEvPNS0_6RandomEiiPSt6vectorIT_SaIS5_EE
FN:336,338,_ZN7testing8internalL6DeleteINS_11EnvironmentEEEvPT_
FN:336,338,_ZN7testing8internalL6DeleteINS_17TestEventListenerEEEvPT_
FN:336,338,_ZN7testing8internalL6DeleteINS_8TestInfoEEEvPT_
FN:336,338,_ZN7testing8internalL6DeleteINS_9TestSuiteEEEvPT_
FN:585,587,_ZNK7testing8internal12UnitTestImpl6FailedEv
FN:675,696,_ZN7testing8internal12UnitTestImpl11AddTestInfoEPFvvES3_PNS_8TestInfoE
FNDA:0,_ZN7testing8internal18ParseNaturalNumberIiEEbRKNSt7__cxx1112basic_stringIcSt11char_traitsIcESaIcEEEPT_
FNDA:0,_ZN7testing8internal17StreamingListener20AbstractSocketWriter15CloseConnectionEv
FNDA:0,_ZN7testing8internal17StreamingListener20AbstractSocketWriter6SendLnERKNSt7__cxx1112basic_stringIcSt11char_traitsIcESaIcEEE
FNDA:0,_ZN7testing8internal17StreamingListener12SocketWriterC2ERKNSt7__cxx1112basic_stringIcSt11char_traitsIcESaIcEEESA_
FNDA:0,_ZN7testing8internal17StreamingListener12SocketWriterD0Ev
FNDA:0,_ZN7testing8internal17StreamingListener12SocketWriterD2Ev
FNDA:0,_ZN7testing8internal17StreamingListener12SocketWriter4SendERKNSt7__cxx1112basic_stringIcSt11char_traitsIcESaIcEEE
FNDA:0,_ZN7testing8internal17StreamingListener12SocketWriter15CloseConnectionEv
FNDA:0,_ZN7testing8internal17StreamingListenerC2ERKNSt7__cxx1112basic_stringIcSt11char_traitsIcESaIcEEES9_
FNDA:0,_ZN7testing8internal17StreamingListener18OnTestProgramStartERKNS_8UnitTestE
FNDA:0,_ZN7testing8internal17StreamingListener16OnTestProgramEndERKNS_8UnitTestE
FNDA:0,_ZN7testing8internal17StreamingListener20OnTestIterationStartERKNS_8UnitTestEi
FNDA:0,_ZN7testing8internal17StreamingListener18OnTestIterationEndERKNS_8UnitTestEi
FNDA:0,_ZN7testing8internal17StreamingListener16OnTestSuiteStartERKNS_9TestSuiteE
FNDA:0,_ZN7testing8internal17StreamingListener14OnTestSuiteEndERKNS_9TestSuiteE
FNDA:0,_ZN7testing8internal17StreamingListener11OnTestStartERKNS_8TestInfoE
FNDA:0,_ZN7testing8internal17StreamingListener9OnTestEndERKNS_8TestInfoE
FNDA:0,_ZN7testing8internal17StreamingListener16OnTestPartResultERKNS_14TestPartResultE
FNDA:0,_ZN7testing8internal17StreamingListener5StartEv
FNDA:0,_ZN7testing8internal17GetNextRandomSeedEi
FNDA:1910,_ZN7testing8internal14GTestFlagSaverC2Ev
FNDA:1910,_ZN7testing8internal14GTestFlagSaverD2Ev
FNDA:0,_ZN7testing8internal12ShuffleRangeIiEEvPNS0_6RandomEiiPSt6vectorIT_SaIS5_EE
FNDA:0,_ZN7testing8internalL6DeleteINS_11EnvironmentEEEvPT_
FNDA:14,_ZN7testing8internalL6DeleteINS_17TestEventListenerEEEvPT_
FNDA:5896,_ZN7testing8internalL6DeleteINS_8TestInfoEEEvPT_
FNDA:126,_ZN7testing8internalL6DeleteINS_9TestSuiteEEEvPT_
FNDA:28,_ZNK7testing8internal12UnitTestImpl6FailedEv
FNDA:5896,_ZN7testing8internal12UnitTestImpl11AddTestInfoEPFvvES3_PNS_8TestInfoE
FNF:29
FNH:7
DA:114,14
DA:115,14
DA:116,14
DA:117,14
DA:121,14
DA:122,14
DA:125,14
DA:131,0
DA:132,0
DA:133,0
DA:134,0
DA:135,0
DA:136,0
DA:144,1910
DA:145,1910
DA:146,1910
DA:147,1910
DA:148,1910
DA:149,1910
DA:150,1910
DA:151,1910
DA:152,1910
DA:153,1910
DA:154,1910
DA:155,1910
DA:156,1910
DA:157,1910
DA:158,1910
DA:159,1910
DA:160,1910
DA:161,1910
DA:163,1910
DA:164,1910
DA:165,1910
DA:166,1910
DA:167,1910
DA:170,1910
DA:171,1910
DA:172,1910
DA:173,1910
DA:174,1910
DA:175,1910
DA:176,1910
DA:177,1910
DA:178,1910
DA:179,1910
DA:180,1910
DA:181,1910
DA:182,1910
DA:183,1910
DA:184,1910
DA:185,1910
DA:186,1910
DA:187,1910
DA:189,1910
DA:190,1910
DA:191,1910
DA:192,1910
DA:193,1910
DA:276,14344
DA:279,14344
DA:280,55356
DA:281,41012
DA:288,321
DA:289,516
DA:295,2681
DA:296,2681
DA:297,2681
DA:305,0
DA:307,0
DA:308,0
DA:309,0
DA:310,0
DA:311,0
DA:312,0
DA:313,0
DA:317,0
DA:318,0
DA:319,0
DA:321,0
DA:322,0
DA:323,0
DA:325,0
DA:329,0
DA:330,0
DA:336,6036
DA:337,6036
DA:338,6036
DA:343,0
DA:348,0
DA:351,0
DA:352,0
DA:411,13
DA:440,13
DA:461,0
DA:469,14
DA:488,14
DA:574,0
DA:577,14
DA:581,28
DA:585,28
DA:586,48
DA:591,72
DA:592,72
DA:593,72
DA:598,0
DA:603,117
DA:604,234
DA:605,117
DA:609,34
DA:616,20
DA:675,5896
DA:686,5896
DA:687,14
DA:688,14
DA:689,0
DA:693,5896
DA:695,5896
DA:696,5896
DA:700,0
DA:701,0
DA:704,14
DA:705,14
DA:711,0
DA:712,0
DA:730,14
DA:731,28
DA:756,1910
DA:757,1910
DA:758,0
DA:762,0
DA:765,6
DA:766,6
DA:773,14
DA:774,14
DA:780,0
DA:781,0
DA:785,0
DA:786,0
DA:812,0
DA:815,0
DA:826,9660
DA:843,14
DA:846,96
DA:847,96
DA:853,3820
DA:854,3820
DA:982,27056
DA:983,27056
DA:1023,0
DA:1027,0
DA:1030,0
DA:1037,0
DA:1038,0
DA:1040,0
DA:1042,0
DA:1043,0
DA:1044,0
DA:1045,0
DA:1081,0
DA:1083,0
DA:1089,0
DA:1092,0
DA:1098,0
DA:1099,0
DA:1100,0
DA:1101,0
DA:1103,0
DA:1104,0
DA:1105,0
DA:1108,0
DA:1109,0
DA:1110,0
DA:1112,0
DA:1113,0
DA:1114,0
DA:1115,0
DA:1117,0
DA:1124,0
DA:1125,0
DA:1126,0
DA:1128,0
DA:1129,0
DA:1130,0
DA:1143,0
DA:1144,0
DA:1145,0
DA:1146,0
DA:1153,0
DA:1154,0
DA:1155,0
DA:1157,0
DA:1160,0
DA:1163,0
DA:1164,0
DA:1166,0
DA:1168,0
DA:1169,0
DA:1170,0
DA:1172,0
DA:1174,0
DA:1175,0
DA:1177,0
DA:1181,0
DA:1182,0
DA:1183,0
DA:1187,0
DA:1188,0
DA:1189,0
DA:1191,0
DA:1193,0
DA:1194,0
DA:1195,0
DA:1197,0
DA:1198,0
DA:1199,0
DA:1200,0
DA:1201,0
DA:1203,0
DA:1204,0
DA:1205,0
DA:1206,0
DA:1207,0
DA:1208,0
DA:1209,0
DA:1213,0
DA:1217,0
DA:1219,0
LF:228
LH:106
end_of_record
TN:
SF:/home/runner/work/fakelua/fakelua/build_cov/_deps/googletest-src/googletest/src/gtest-matchers.cc
FN:46,46,_ZN7testing7MatcherIRKNSt7__cxx1112basic_stringIcSt11char_traitsIcESaIcEEEEC2ES8_
FN:50,52,_ZN7testing7MatcherIRKNSt7__cxx1112basic_stringIcSt11char_traitsIcESaIcEEEEC2EPKc
FN:56,56,_ZN7testing7MatcherINSt7__cxx1112basic_stringIcSt11char_traitsIcESaIcEEEEC2ERKS6_
FN:60,60,_ZN7testing7MatcherINSt7__cxx1112basic_stringIcSt11char_traitsIcESaIcEEEEC2EPKc
FN:65,67,_ZN7testing7MatcherIRKSt17basic_string_viewIcSt11char_traitsIcEEEC2ERKNSt7__cxx1112basic_stringIcS3_SaIcEEE
FN:71,73,_ZN7testing7MatcherIRKSt17basic_string_viewIcSt11char_traitsIcEEEC2EPKc
FN:77,79,_ZN7testing7MatcherIRKSt17basic_string_viewIcSt11char_traitsIcEEEC2ES4_
FN:83,83,_ZN7testing7MatcherISt17basic_string_viewIcSt11char_traitsIcEEEC2ERKNSt7__cxx1112basic_stringIcS3_SaIcEEE
FN:87,89,_ZN7testing7MatcherISt17basic_string_viewIcSt11char_traitsIcEEEC2EPKc
FN:93,95,_ZN7testing7MatcherISt17basic_string_viewIcSt11char_traitsIcEEEC2ES4_
FNDA:0,_ZN7testing7MatcherIRKNSt7__cxx1112basic_stringIcSt11char_traitsIcESaIcEEEEC2ES8_
FNDA:0,_ZN7testing7MatcherIRKNSt7__cxx1112basic_stringIcSt11char_traitsIcESaIcEEEEC2EPKc
FNDA:0,_ZN7testing7MatcherINSt7__cxx1112basic_stringIcSt11char_traitsIcESaIcEEEEC2ERKS6_
FNDA:0,_ZN7testing7MatcherINSt7__cxx1112basic_stringIcSt11char_traitsIcESaIcEEEEC2EPKc
FNDA:0,_ZN7testing7MatcherIRKSt17basic_string_viewIcSt11char_traitsIcEEEC2ERKNSt7__cxx1112basic_stringIcS3_SaIcEEE
FNDA:0,_ZN7testing7MatcherIRKSt17basic_string_viewIcSt11char_traitsIcEEEC2EPKc
FNDA:0,_ZN7testing7MatcherIRKSt17basic_string_viewIcSt11char_traitsIcEEEC2ES4_
FNDA:0,_ZN7testing7MatcherISt17basic_string_viewIcSt11char_traitsIcEEEC2ERKNSt7__cxx1112basic_stringIcS3_SaIcEEE
FNDA:0,_ZN7testing7MatcherISt17basic_string_viewIcSt11char_traitsIcEEEC2EPKc
FNDA:0,_ZN7testing7MatcherISt17basic_string_viewIcSt11char_traitsIcEEEC2ES4_
FNF:10
FNH:0
DA:46,0
DA:50,0
DA:51,0
DA:52,0
DA:56,0
DA:60,0
DA:65,0
DA:66,0
DA:67,0
DA:71,0
DA:72,0
DA:73,0
DA:77,0
DA:78,0
DA:79,0
DA:83,0
DA:87,0
DA:88,0
DA:89,0
DA:93,0
DA:94,0
DA:95,0
LF:22
LH:0
end_of_record
TN:
SF:/home/runner/work/fakelua/fakelua/build_cov/_deps/googletest-src/googletest/src/gtest-port.cc
FN:1003,1014,_ZN7testing8internal18FormatFileLocationB5cxx11EPKci
FN:1021,1029,_ZN7testing8internal37FormatCompilerIndependentFileLocationB5cxx11EPKci
FN:103,112,_ZN7testing8internal12_GLOBAL__N_117ReadProcFileFieldImEET_RKNSt7__cxx1112basic_stringIcSt11char_traitsIcESaIcEEEi
FN:1031,1040,_ZN7testing8internal8GTestLogC2ENS0_16GTestLogSeverityEPKci
FN:1043,1049,_ZN7testing8internal8GTestLogD2Ev
FN:1071,1153,_ZN7testing8internal14CapturedStreamC2Ei
FN:1157,1174,_ZN7testing8internal14CapturedStream17GetCapturedStringB5cxx11Ev
FN:116,120,_ZN7testing8internal14GetThreadCountEv
FN:1192,1199,_ZN7testing8internalL13CaptureStreamEiPKcPPNS0_14CapturedStreamE
FN:1202,1209,_ZN7testing8internalL17GetCapturedStreamEPPNS0_14CapturedStreamE
FN:1221,1223,_ZN7testing8internal13CaptureStdoutEv
FN:1226,1228,_ZN7testing8internal13CaptureStderrEv
FN:1231,1233,_ZN7testing8internal17GetCapturedStdoutB5cxx11Ev
FN:1236,1238,_ZN7testing8internal17GetCapturedStderrB5cxx11Ev
FN:1242,1245,_ZN7testing8internal11GetFileSizeEP8_IO_FILE
FN:1247,1268,_ZN7testing8internal14ReadEntireFileB5cxx11EP8_IO_FILE
FN:1274,1279,_ZN7testing8internal18GetInjectableArgvsB5cxx11Ev
FN:1281,1284,_ZN7testing8internal18SetInjectableArgvsEPKSt6vectorINSt7__cxx1112basic_stringIcSt11char_traitsIcESaIcEEESaIS7_EE
FN:1286,1289,_ZN7testing8internal18SetInjectableArgvsERKSt6vectorINSt7__cxx1112basic_stringIcSt11char_traitsIcESaIcEEESaIS7_EE
FN:1291,1294,_ZN7testing8internal20ClearInjectableArgvsEv
FN:1309,1319,_ZN7testing8internalL12FlagToEnvVarEPKc
FN:1324,1360,_ZN7testing8internal10ParseInt32ERKNS_7MessageEPKcPi
FN:1366,1375,_ZN7testing8internal16BoolFromGTestEnvEPKcb
FN:1380,1402,_ZN7testing8internal17Int32FromGTestEnvEPKci
FN:1412,1419,_ZN7testing8internal25OutputFlagAlsoCheckEnvVarB5cxx11Ev
FN:1423,1431,_ZN7testing8internal18StringFromGTestEnvEPKcS2_
FN:683,692,_ZN7testing8internal2RED2Ev
FN:695,700,_ZN7testing8internal2RE9FullMatchEPKcRKS1_
FN:704,709,_ZN7testing8internal2RE12PartialMatchEPKcRKS1_
FN:712,750,_ZN7testing8internal2RE4InitEPKc
FNDA:6,_ZN7testing8internal18FormatFileLocationB5cxx11EPKci
FNDA:0,_ZN7testing8internal37FormatCompilerIndependentFileLocationB5cxx11EPKci
FNDA:0,_ZN7testing8internal12_GLOBAL__N_117ReadProcFileFieldImEET_RKNSt7__cxx1112basic_stringIcSt11char_traitsIcESaIcEEEi
FNDA:0,_ZN7testing8internal8GTestLogC2ENS0_16GTestLogSeverityEPKci
FNDA:0,_ZN7testing8internal8GTestLogD2Ev
FNDA:0,_ZN7testing8internal14CapturedStreamC2Ei
FNDA:0,_ZN7testing8internal14CapturedStream17GetCapturedStringB5cxx11Ev
FNDA:0,_ZN7testing8internal14GetThreadCountEv
FNDA:0,_ZN7testing8internalL13CaptureStreamEiPKcPPNS0_14CapturedStreamE
FNDA:0,_ZN7testing8internalL17GetCapturedStreamEPPNS0_14CapturedStreamE
FNDA:0,_ZN7testing8internal13CaptureStdoutEv
FNDA:0,_ZN7testing8internal13CaptureStderrEv
FNDA:0,_ZN7testing8internal17GetCapturedStdoutB5cxx11Ev
FNDA:0,_ZN7testing8internal17GetCapturedStderrB5cxx11Ev
FNDA:0,_ZN7testing8internal11GetFileSizeEP8_IO_FILE
FNDA:0,_ZN7testing8internal14ReadEntireFileB5cxx11EP8_IO_FILE
FNDA:0,_ZN7testing8internal18GetInjectableArgvsB5cxx11Ev
FNDA:0,_ZN7testing8internal18SetInjectableArgvsEPKSt6vectorINSt7__cxx1112basic_stringIcSt11char_traitsIcESaIcEEESaIS7_EE
FNDA:0,_ZN7testing8internal18SetInjectableArgvsERKSt6vectorINSt7__cxx1112basic_stringIcSt11char_traitsIcESaIcEEESaIS7_EE
FNDA:0,_ZN7testing8internal20ClearInjectableArgvsEv
FNDA:308,_ZN7testing8internalL12FlagToEnvVarEPKc
FNDA:0,_ZN7testing8internal10ParseInt32ERKNS_7MessageEPKcPi
FNDA:182,_ZN7testing8internal16BoolFromGTestEnvEPKcb
FNDA:42,_ZN7testing8internal17Int32FromGTestEnvEPKci
FNDA:14,_ZN7testing8internal25OutputFlagAlsoCheckEnvVarB5cxx11Ev
FNDA:84,_ZN7testing8internal18StringFromGTestEnvEPKcS2_
FNDA:0,_ZN7testing8internal2RED2Ev
FNDA:0,_ZN7testing8internal2RE9FullMatchEPKcRKS1_
FNDA:0,_ZN7testing8internal2RE12PartialMatchEPKcRKS1_
FNDA:0,_ZN7testing8internal2RE4InitEPKc
FNF:30
FNH:6
DA:103,0
DA:104,0
DA:105,0
DA:106,0
DA:107,0
DA:109,0
DA:110,0
DA:111,0
DA:112,0
DA:116,0
DA:117,0
DA:118,0
DA:119,0
DA:120,0
DA:683,0
DA:684,0
DA:689,0
DA:690,0
DA:692,0
DA:695,0
DA:696,0
DA:698,0
DA:699,0
DA:704,0
DA:705,0
DA:707,0
DA:708,0
DA:712,0
DA:713,0
DA:723,0
DA:728,0
DA:729,0
DA:731,0
DA:732,0
DA:741,0
DA:742,0
DA:743,0
DA:745,0
DA:746,0
DA:747,0
DA:749,0
DA:750,0
DA:1003,6
DA:1004,12
DA:1006,6
DA:1007,6
DA:1012,0
DA:1014,6
DA:1021,0
DA:1023,0
DA:1025,0
DA:1026,0
DA:1028,0
DA:1029,0
DA:1031,0
DA:1032,0
DA:1033,0
DA:1037,0
DA:1038,0
DA:1039,0
DA:1040,0
DA:1043,0
DA:1044,0
DA:1045,0
DA:1046,0
DA:1047,0
DA:1049,0
DA:1071,0
DA:1089,0
DA:1132,0
DA:1134,0
DA:1142,0
DA:1143,0
DA:1144,0
DA:1146,0
DA:1148,0
DA:1150,0
DA:1151,0
DA:1152,0
DA:1153,0
DA:1155,0
DA:1157,0
DA:1158,0
DA:1160,0
DA:1161,0
DA:1162,0
DA:1163,0
DA:1166,0
DA:1167,0
DA:1168,0
DA:1169,0
DA:1171,0
DA:1172,0
DA:1173,0
DA:1174,0
DA:1192,0
DA:1194,0
DA:1195,0
DA:1196,0
DA:1198,0
DA:1199,0
DA:1202,0
DA:1203,0
DA:1205,0
DA:1206,0
DA:1208,0
DA:1221,0
DA:1222,0
DA:1223,0
DA:1226,0
DA:1227,0
DA:1228,0
DA:1231,0
DA:1232,0
DA:1236,0
DA:1237,0
DA:1242,0
DA:1243,0
DA:1244,0
DA:1247,0
DA:1248,0
DA:1249,0
DA:1251,0
DA:1252,0
DA:1254,0
DA:1258,0
DA:1259,0
DA:1260,0
DA:1261,0
DA:1262,0
DA:1264,0
DA:1265,0
DA:1267,0
DA:1274,0
DA:1275,0
DA:1276,0
DA:1278,0
DA:1281,0
DA:1282,0
DA:1283,0
DA:1284,0
DA:1286,0
DA:1287,0
DA:1288,0
DA:1289,0
DA:1291,0
DA:1292,0
DA:1293,0
DA:1294,0
DA:1309,308
DA:1310,308
DA:1311,616
DA:1313,308
DA:1314,6496
DA:1315,12376
DA:1318,308
DA:1319,308
DA:1324,0
DA:1326,0
DA:1327,0
DA:1330,0
DA:1332,0
DA:1333,0
DA:1334,0
DA:1335,0
DA:1336,0
DA:1337,0
DA:1338,0
DA:1339,0
DA:1342,0
DA:1343,0
DA:1346,0
DA:1349,0
DA:1350,0
DA:1351,0
DA:1352,0
DA:1353,0
DA:1354,0
DA:1355,0
DA:1356,0
DA:1358,0
DA:1359,0
DA:1366,182
DA:1370,182
DA:1371,182
DA:1372,182
DA:1373,182
DA:1375,182
DA:1380,42
DA:1384,42
DA:1385,42
DA:1386,42
DA:1391,0
DA:1392,0
DA:1394,0
DA:1395,0
DA:1396,0
DA:1400,0
DA:1402,42
DA:1412,14
DA:1413,14
DA:1414,14
DA:1415,14
DA:1416,0
DA:1418,14
DA:1419,0
DA:1423,84
DA:1427,84
DA:1428,84
DA:1429,84
DA:1431,84
LF:211
LH:34
end_of_record
TN:
SF:/home/runner/work/fakelua/fakelua/build_cov/_deps/googletest-src/googletest/src/gtest-printers.cc
FN:130,133,_ZN7testing8internal20PrintBytesInObjectToEPKhmPSo
FN:151,196,_ZN7testing8internalL20PrintAsCharLiteralToIDiEENS0_10CharFormatET_PSo
FN:151,196,_ZN7testing8internalL20PrintAsCharLiteralToIaEENS0_10CharFormatET_PSo
FN:151,196,_ZN7testing8internalL20PrintAsCharLiteralToIhEENS0_10CharFormatET_PSo
FN:151,196,_ZN7testing8internalL20PrintAsCharLiteralToIwEENS0_10CharFormatET_PSo
FN:200,211,_ZN7testing8internalL22PrintAsStringLiteralToEDiPSo
FN:253,274,_ZN7testing8internal18PrintCharAndCodeToIaEEvT_PSo
FN:253,274,_ZN7testing8internal18PrintCharAndCodeToIhEEvT_PSo
FN:253,274,_ZN7testing8internal18PrintCharAndCodeToIwEEvT_PSo
FN:276,276,_ZN7testing8internal7PrintToEhPSo
FN:277,277,_ZN7testing8internal7PrintToEaPSo
FN:281,281,_ZN7testing8internal7PrintToEwPSo
FN:284,287,_ZN7testing8internal7PrintToEDiPSo
FN:291,323,_ZN7testing8internal7PrintToEoPSo
FN:324,331,_ZN7testing8internal7PrintToEnPSo
FN:342,363,_ZN7testing8internalL20PrintCharsAsStringToIDiEENS0_10CharFormatEPKT_mPSo
FN:342,363,_ZN7testing8internalL20PrintCharsAsStringToIDsEENS0_10CharFormatEPKT_mPSo
FN:342,363,_ZN7testing8internalL20PrintCharsAsStringToIDuEENS0_10CharFormatEPKT_mPSo
FN:342,363,_ZN7testing8internalL20PrintCharsAsStringToIcEENS0_10CharFormatEPKT_mPSo
FN:342,363,_ZN7testing8internalL20PrintCharsAsStringToIwEENS0_10CharFormatEPKT_mPSo
FN:371,391,_ZN7testing8internalL23UniversalPrintCharArrayIDiEEvPKT_mPSo
FN:371,391,_ZN7testing8internalL23UniversalPrintCharArrayIDsEEvPKT_mPSo
FN:371,391,_ZN7testing8internalL23UniversalPrintCharArrayIDuEEvPKT_mPSo
FN:371,391,_ZN7testing8internalL23UniversalPrintCharArrayIcEEvPKT_mPSo
FN:371,391,_ZN7testing8internalL23UniversalPrintCharArrayIwEEvPKT_mPSo
FN:394,396,_ZN7testing8internal19UniversalPrintArrayEPKcmPSo
FN:401,403,_ZN7testing8internal19UniversalPrintArrayEPKDumPSo
FN:408,410,_ZN7testing8internal19UniversalPrintArrayEPKDsmPSo
FN:414,416,_ZN7testing8internal19UniversalPrintArrayEPKDimPSo
FN:420,422,_ZN7testing8internal19UniversalPrintArrayEPKwmPSo
FN:428,435,_ZN7testing8internal12_GLOBAL__N_114PrintCStringToIDiEEvPKT_PSo
FN:428,435,_ZN7testing8internal12_GLOBAL__N_114PrintCStringToIDsEEvPKT_PSo
FN:428,435,_ZN7testing8internal12_GLOBAL__N_114PrintCStringToIDuEEvPKT_PSo
FN:428,435,_ZN7testing8internal12_GLOBAL__N_114PrintCStringToIcEEvPKT_PSo
FN:428,435,_ZN7testing8internal12_GLOBAL__N_114PrintCStringToIwEEvPKT_PSo
FN:439,439,_ZN7testing8internal7PrintToEPKcPSo
FN:442,442,_ZN7testing8internal7PrintToEPKDuPSo
FN:445,445,_ZN7testing8internal7PrintToEPKDsPSo
FN:447,447,_ZN7testing8internal7PrintToEPKDiPSo
FN:457,457,_ZN7testing8internal7PrintToEPKwPSo
FN:462,479,_ZN7testing8internal12_GLOBAL__N_131ContainsUnprintableControlCodesEPKcm
FN:483,514,_ZN7testing8internal12_GLOBAL__N_111IsValidUTF8EPKcm
FN:516,521,_ZN7testing8internal12_GLOBAL__N_122ConditionalPrintAsTextEPKcmPSo
FN:525,531,_ZN7testing8internal13PrintStringToERKNSt7__cxx1112basic_stringIcSt11char_traitsIcESaIcEEEPSo
FN:534,536,_ZN7testing8internal15PrintU8StringToERKNSt7__cxx1112basic_stringIDuSt11char_traitsIDuESaIDuEEEPSo
FN:539,541,_ZN7testing8internal16PrintU16StringToERKNSt7__cxx1112basic_stringIDsSt11char_traitsIDsESaIDsEEEPSo
FN:543,545,_ZN7testing8internal16PrintU32StringToERKNSt7__cxx1112basic_stringIDiSt11char_traitsIDiESaIDiEEEPSo
FN:548,550,_ZN7testing8internal17PrintWideStringToERKNSt7__cxx1112basic_stringIwSt11char_traitsIwESaIwEEEPSo
FN:70,86,_ZN7testing12_GLOBAL__N_126PrintByteSegmentInObjectToEPKhmmPSo
FN:89,109,_ZN7testing12_GLOBAL__N_124PrintBytesInObjectToImplEPKhmPSo
FNDA:0,_ZN7testing8internal20PrintBytesInObjectToEPKhmPSo
FNDA:0,_ZN7testing8internalL20PrintAsCharLiteralToIDiEENS0_10CharFormatET_PSo
FNDA:0,_ZN7testing8internalL20PrintAsCharLiteralToIaEENS0_10CharFormatET_PSo
FNDA:0,_ZN7testing8internalL20PrintAsCharLiteralToIhEENS0_10CharFormatET_PSo
FNDA:0,_ZN7testing8internalL20PrintAsCharLiteralToIwEENS0_10CharFormatET_PSo
FNDA:0,_ZN7testing8internalL22PrintAsStringLiteralToEDiPSo
FNDA:0,_ZN7testing8internal18PrintCharAndCodeToIaEEvT_PSo
FNDA:0,_ZN7testing8internal18PrintCharAndCodeToIhEEvT_PSo
FNDA:0,_ZN7testing8internal18PrintCharAndCodeToIwEEvT_PSo
FNDA:0,_ZN7testing8internal7PrintToEhPSo
FNDA:0,_ZN7testing8internal7PrintToEaPSo
FNDA:0,_ZN7testing8internal7PrintToEwPSo
FNDA:0,_ZN7testing8internal7PrintToEDiPSo
FNDA:0,_ZN7testing8internal7PrintToEoPSo
FNDA:0,_ZN7testing8internal7PrintToEnPSo
FNDA:0,_ZN7testing8internalL20PrintCharsAsStringToIDiEENS0_10CharFormatEPKT_mPSo
FNDA:0,_ZN7testing8internalL20PrintCharsAsStringToIDsEENS0_10CharFormatEPKT_mPSo
FNDA:0,_ZN7testing8internalL20PrintCharsAsStringToIDuEENS0_10CharFormatEPKT_mPSo
FNDA:0,_ZN7testing8internalL20PrintCharsAsStringToIcEENS0_10CharFormatEPKT_mPSo
FNDA:0,_ZN7testing8internalL20PrintCharsAsStringToIwEENS0_10CharFormatEPKT_mPSo
FNDA:0,_ZN7testing8internalL23UniversalPrintCharArrayIDiEEvPKT_mPSo
FNDA:0,_ZN7testing8internalL23UniversalPrintCharArrayIDsEEvPKT_mPSo
FNDA:0,_ZN7testing8internalL23UniversalPrintCharArrayIDuEEvPKT_mPSo
FNDA:0,_ZN7testing8internalL23UniversalPrintCharArrayIcEEvPKT_mPSo
FNDA:0,_ZN7testing8internalL23UniversalPrintCharArrayIwEEvPKT_mPSo
FNDA:0,_ZN7testing8internal19UniversalPrintArrayEPKcmPSo
FNDA:0,_ZN7testing8internal19UniversalPrintArrayEPKDumPSo
FNDA:0,_ZN7testing8internal19UniversalPrintArrayEPKDsmPSo
FNDA:0,_ZN7testing8internal19UniversalPrintArrayEPKDimPSo
FNDA:0,_ZN7testing8internal19UniversalPrintArrayEPKwmPSo
FNDA:0,_ZN7testing8internal12_GLOBAL__N_114PrintCStringToIDiEEvPKT_PSo
FNDA:0,_ZN7testing8internal12_GLOBAL__N_114PrintCStringToIDsEEvPKT_PSo
FNDA:0,_ZN7testing8internal12_GLOBAL__N_114PrintCStringToIDuEEvPKT_PSo
FNDA:0,_ZN7testing8internal12_GLOBAL__N_114PrintCStringToIcEEvPKT_PSo
FNDA:0,_ZN7testing8internal12_GLOBAL__N_114PrintCStringToIwEEvPKT_PSo
FNDA:0,_ZN7testing8internal7PrintToEPKcPSo
FNDA:0,_ZN7testing8internal7PrintToEPKDuPSo
FNDA:0,_ZN7testing8internal7PrintToEPKDsPSo
FNDA:0,_ZN7testing8internal7PrintToEPKDiPSo
FNDA:0,_ZN7testing8internal7PrintToEPKwPSo
FNDA:0,_ZN7testing8internal12_GLOBAL__N_131ContainsUnprintableControlCodesEPKcm
FNDA:0,_ZN7testing8internal12_GLOBAL__N_111IsValidUTF8EPKcm
FNDA:0,_ZN7testing8internal12_GLOBAL__N_122ConditionalPrintAsTextEPKcmPSo
FNDA:0,_ZN7testing8internal13PrintStringToERKNSt7__cxx1112basic_stringIcSt11char_traitsIcESaIcEEEPSo
FNDA:0,_ZN7testing8internal15PrintU8StringToERKNSt7__cxx1112basic_stringIDuSt11char_traitsIDuESaIDuEEEPSo
FNDA:0,_ZN7testing8internal16PrintU16StringToERKNSt7__cxx1112basic_stringIDsSt11char_traitsIDsESaIDsEEEPSo
FNDA:0,_ZN7testing8internal16PrintU32StringToERKNSt7__cxx1112basic_stringIDiSt11char_traitsIDiESaIDiEEEPSo
FNDA:0,_ZN7testing8internal17PrintWideStringToERKNSt7__cxx1112basic_stringIwSt11char_traitsIwESaIwEEEPSo
FNDA:0,_ZN7testing12_GLOBAL__N_126PrintByteSegmentInObjectToEPKhmmPSo
FNDA:0,_ZN7testing12_GLOBAL__N_124PrintBytesInObjectToImplEPKhmPSo
FNF:50
FNH:0
DA:70,0
DA:72,0
DA:73,0
DA:74,0
DA:75,0
DA:78,0
DA:79,0
DA:81,0
DA:83,0
DA:84,0
DA:86,0
DA:89,0
DA:92,0
DA:94,0
DA:95,0
DA:99,0
DA:100,0
DA:102,0
DA:103,0
DA:105,0
DA:106,0
DA:108,0
DA:109,0
DA:116,0
DA:118,0
DA:130,0
DA:132,0
DA:133,0
DA:145,0
DA:151,0
DA:152,0
DA:153,0
DA:154,0
DA:155,0
DA:156,0
DA:157,0
DA:158,0
DA:159,0
DA:160,0
DA:161,0
DA:162,0
DA:163,0
DA:164,0
DA:165,0
DA:166,0
DA:167,0
DA:168,0
DA:169,0
DA:170,0
DA:171,0
DA:172,0
DA:173,0
DA:174,0
DA:175,0
DA:176,0
DA:177,0
DA:178,0
DA:179,0
DA:180,0
DA:181,0
DA:182,0
DA:183,0
DA:184,0
DA:185,0
DA:186,0
DA:187,0
DA:189,0
DA:190,0
DA:191,0
DA:192,0
DA:200,0
DA:201,0
DA:202,0
DA:203,0
DA:204,0
DA:205,0
DA:206,0
DA:207,0
DA:208,0
DA:209,0
DA:213,0
DA:215,0
DA:217,0
DA:220,0
DA:223,0
DA:225,0
DA:227,0
DA:231,0
DA:232,0
DA:236,0
DA:237,0
DA:241,0
DA:242,0
DA:245,0
DA:246,0
DA:253,0
DA:255,0
DA:256,0
DA:257,0
DA:262,0
DA:263,0
DA:268,0
DA:271,0
DA:273,0
DA:276,0
DA:277,0
DA:281,0
DA:284,0
DA:285,0
DA:286,0
DA:287,0
DA:291,0
DA:292,0
DA:293,0
DA:294,0
DA:298,0
DA:299,0
DA:304,0
DA:305,0
DA:307,0
DA:308,0
DA:309,0
DA:310,0
DA:316,0
DA:317,0
DA:319,0
DA:320,0
DA:322,0
DA:324,0
DA:325,0
DA:326,0
DA:327,0
DA:328,0
DA:330,0
DA:331,0
DA:342,0
DA:343,0
DA:344,0
DA:345,0
DA:346,0
DA:347,0
DA:348,0
DA:349,0
DA:353,0
DA:355,0
DA:357,0
DA:358,0
DA:361,0
DA:362,0
DA:371,0
DA:380,0
DA:381,0
DA:382,0
DA:389,0
DA:390,0
DA:394,0
DA:395,0
DA:396,0
DA:401,0
DA:402,0
DA:403,0
DA:408,0
DA:409,0
DA:410,0
DA:414,0
DA:415,0
DA:416,0
DA:420,0
DA:421,0
DA:422,0
DA:428,0
DA:429,0
DA:430,0
DA:432,0
DA:433,0
DA:435,0
DA:439,0
DA:442,0
DA:445,0
DA:447,0
DA:457,0
DA:462,0
DA:463,0
DA:465,0
DA:466,0
DA:467,0
DA:468,0
DA:481,0
DA:483,0
DA:484,0
DA:486,0
DA:487,0
DA:489,0
DA:490,0
DA:492,0
DA:494,0
DA:496,0
DA:497,0
DA:499,0
DA:500,0
DA:502,0
DA:503,0
DA:504,0
DA:506,0
DA:507,0
DA:516,0
DA:517,0
DA:518,0
DA:519,0
DA:521,0
DA:525,0
DA:526,0
DA:527,0
DA:528,0
DA:531,0
DA:534,0
DA:535,0
DA:536,0
DA:539,0
DA:540,0
DA:541,0
DA:543,0
DA:544,0
DA:545,0
DA:548,0
DA:549,0
DA:550,0
LF:227
LH:0
end_of_record
TN:
SF:/home/runner/work/fakelua/fakelua/build_cov/_deps/googletest-src/googletest/src/gtest-test-part.cc
FN:45,48,_ZN7testing14TestPartResult14ExtractSummaryB5cxx11EPKc
FN:51,62,_ZN7testinglsERSoRKNS_14TestPartResultE
FN:65,67,_ZN7testing19TestPartResultArray6AppendERKNS_14TestPartResultE
FN:70,77,_ZNK7testing19TestPartResultArray17GetTestPartResultEi
FN:80,82,_ZNK7testing19TestPartResultArray4sizeEv
FN:86,91,_ZN7testing8internal24HasNewFatalFailureHelperC2Ev
FN:93,96,_ZN7testing8internal24HasNewFatalFailureHelperD0Ev
FN:93,96,_ZN7testing8internal24HasNewFatalFailureHelperD2Ev
FN:98,102,_ZN7testing8internal24HasNewFatalFailureHelper20ReportTestPartResultERKNS_14TestPartResultE
FNDA:6,_ZN7testing14TestPartResult14ExtractSummaryB5cxx11EPKc
FNDA:0,_ZN7testinglsERSoRKNS_14TestPartResultE
FNDA:0,_ZN7testing19TestPartResultArray6AppendERKNS_14TestPartResultE
FNDA:0,_ZNK7testing19TestPartResultArray17GetTestPartResultEi
FNDA:0,_ZNK7testing19TestPartResultArray4sizeEv
FNDA:0,_ZN7testing8internal24HasNewFatalFailureHelperC2Ev
FNDA:0,_ZN7testing8internal24HasNewFatalFailureHelperD0Ev
FNDA:0,_ZN7testing8internal24HasNewFatalFailureHelperD2Ev
FNDA:0,_ZN7testing8internal24HasNewFatalFailureHelper20ReportTestPartResultERKNS_14TestPartResultE
FNF:9
FNH:1
DA:45,6
DA:46,6
DA:47,6
DA:51,0
DA:52,0
DA:55,0
DA:56,0
DA:57,0
DA:58,0
DA:61,0
DA:65,0
DA:66,0
DA:67,0
DA:70,0
DA:71,0
DA:72,0
DA:73,0
DA:76,0
DA:80,0
DA:81,0
DA:86,0
DA:87,0
DA:88,0
DA:89,0
DA:90,0
DA:91,0
DA:93,0
DA:94,0
DA:96,0
DA:98,0
DA:100,0
DA:101,0
DA:102,0
LF:33
LH:3
end_of_record
TN:
SF:/home/runner/work/fakelua/fakelua/build_cov/_deps/googletest-src/googletest/src/gtest-typed-test.cc
FN:48,55,_ZN7testing8internalL18SplitIntoTestNamesEPKc
FN:60,105,_ZN7testing8internal20TypedTestSuitePState25VerifyRegisteredTestNamesEPKcS3_iS3_
FNDA:0,_ZN7testing8internalL18SplitIntoTestNamesEPKc
FNDA:0,_ZN7testing8internal20TypedTestSuitePState25VerifyRegisteredTestNamesEPKcS3_iS3_
FNF:2
FNH:0
DA:43,0
DA:44,0
DA:48,0
DA:49,0
DA:50,0
DA:51,0
DA:52,0
DA:54,0
DA:55,0
DA:60,0
DA:63,0
DA:65,0
DA:66,0
DA:68,0
DA:70,0
DA:72,0
DA:73,0
DA:74,0
DA:75,0
DA:76,0
DA:77,0
DA:78,0
DA:81,0
DA:82,0
DA:84,0
DA:85,0
DA:89,0
DA:90,0
DA:91,0
DA:92,0
DA:96,0
DA:97,0
DA:98,0
DA:100,0
DA:101,0
DA:104,0
DA:105,0
LF:37
LH:0
end_of_record
TN:
SF:/home/runner/work/fakelua/fakelua/build_cov/_deps/googletest-src/googletest/src/gtest.cc
FN:1008,1042,_ZN7testing8internalL13HasOneFailureEPKcS2_S2_RKNS_19TestPartResultArrayENS_14TestPartResult4TypeERKNSt7__cxx1112basic_stringIcSt11char_traitsIcESaIcEEE
FN:1047,1050,_ZN7testing8internal20SingleFailureCheckerC2EPKNS_19TestPartResultArrayENS_14TestPartResult4TypeERKNSt7__cxx1112basic_stringIcSt11char_traitsIcESaIcEEE
FN:1056,1058,_ZN7testing8internal20SingleFailureCheckerD2Ev
FN:1060,1062,_ZN7testing8internal35DefaultGlobalTestPartResultReporterC2EPNS0_12UnitTestImplE
FN:1064,1068,_ZN7testing8internal35DefaultGlobalTestPartResultReporter20ReportTestPartResultERKNS_14TestPartResultE
FN:1070,1072,_ZN7testing8internal38DefaultPerThreadTestPartResultReporterC2EPNS0_12UnitTestImplE
FN:1074,1077,_ZN7testing8internal38DefaultPerThreadTestPartResultReporter20ReportTestPartResultERKNS_14TestPartResultE
FN:1081,1084,_ZN7testing8internal12UnitTestImpl31GetGlobalTestPartResultReporterEv
FN:1087,1091,_ZN7testing8internal12UnitTestImpl31SetGlobalTestPartResultReporterEPNS_31TestPartResultReporterInterfaceE
FN:1095,1097,_ZN7testing8internal12UnitTestImpl41GetTestPartResultReporterForCurrentThreadEv
FN:1100,1103,_ZN7testing8internal12UnitTestImpl41SetTestPartResultReporterForCurrentThreadEPNS_31TestPartResultReporterInterfaceE
FN:1106,1108,_ZNK7testing8internal12UnitTestImpl27successful_test_suite_countEv
FN:1111,1113,_ZNK7testing8internal12UnitTestImpl23failed_test_suite_countEv
FN:1116,1118,_ZNK7testing8internal12UnitTestImpl22total_test_suite_countEv
FN:1122,1124,_ZNK7testing8internal12UnitTestImpl23test_suite_to_run_countEv
FN:1127,1129,_ZNK7testing8internal12UnitTestImpl21successful_test_countEv
FN:1132,1134,_ZNK7testing8internal12UnitTestImpl18skipped_test_countEv
FN:1137,1139,_ZNK7testing8internal12UnitTestImpl17failed_test_countEv
FN:1142,1145,_ZNK7testing8internal12UnitTestImpl30reportable_disabled_test_countEv
FN:1148,1150,_ZNK7testing8internal12UnitTestImpl19disabled_test_countEv
FN:1153,1155,_ZNK7testing8internal12UnitTestImpl21reportable_test_countEv
FN:1158,1160,_ZNK7testing8internal12UnitTestImpl16total_test_countEv
FN:1163,1165,_ZNK7testing8internal12UnitTestImpl17test_to_run_countEv
FN:1177,1183,_ZN7testing8internal12UnitTestImpl28CurrentOsStackTraceExceptTopB5cxx11Ei
FN:1211,1216,_ZN7testing8internal15GetTimeInMillisEv
FN:1261,1267,_ZN7testing8internal6String13CStringEqualsEPKcS3_
FN:1273,1284,_ZN7testing8internalL24StreamWideCharsToMessageEPKwmPNS_7MessageE
FN:1288,1303,_ZN7testing8internal11SplitStringERKNSt7__cxx1112basic_stringIcSt11char_traitsIcESaIcEEEcPSt6vectorIS6_SaIS6_EE
FN:1312,1316,_ZN7testing7MessageC2Ev
FN:1320,1322,_ZN7testing7MessagelsEPKw
FN:1323,1325,_ZN7testing7MessagelsEPw
FN:1330,1333,_ZN7testing7MessagelsERKNSt7__cxx1112basic_stringIwSt11char_traitsIwESaIwEEE
FN:1338,1340,_ZNK7testing7Message9GetStringB5cxx11Ev
FN:1345,1400,_ZN7testing8internal13edit_distance21CalculateOptimalEditsERKSt6vectorImSaImEES6_
FN:1407,1412,_ZN7testing8internal13edit_distance12_GLOBAL__N_115InternalStrings5GetIdERKNSt7__cxx1112basic_stringIcSt11char_traitsIcESaIcEEE
FN:1421,1435,_ZN7testing8internal13edit_distance21CalculateOptimalEditsERKSt6vectorINSt7__cxx1112basic_stringIcSt11char_traitsIcESaIcEEESaIS8_EESC_
FN:1452,1468,_ZN7testing8internal13edit_distance12_GLOBAL__N_14Hunk8PushLineEcPKc
FN:1470,1478,_ZN7testing8internal13edit_distance12_GLOBAL__N_14Hunk7PrintToEPSo
FN:1483,1486,_ZN7testing8internal13edit_distance12_GLOBAL__N_14Hunk10FlushEditsEv
FN:1492,1504,_ZNK7testing8internal13edit_distance12_GLOBAL__N_14Hunk11PrintHeaderEPSo
FN:1520,1581,_ZN7testing8internal13edit_distance17CreateUnifiedDiffERKSt6vectorINSt7__cxx1112basic_stringIcSt11char_traitsIcESaIcEEESaIS8_EESC_m
FN:1590,1611,_ZN7testing8internal12_GLOBAL__N_118SplitEscapedStringERKNSt7__cxx1112basic_stringIcSt11char_traitsIcESaIcEEE
FN:1630,1659,_ZN7testing8internal9EqFailureEPKcS2_RKNSt7__cxx1112basic_stringIcSt11char_traitsIcESaIcEEESA_b
FN:1662,1672,_ZN7testing8internal30GetBoolAssertionFailureMessageB5cxx11ERKNS_15AssertionResultEPKcS5_S5_
FN:1678,1727,_ZN7testing8internal20DoubleNearPredFormatEPKcS2_S2_ddd
FN:1731,1760,_ZN7testing8internal15FloatingPointLEIdEENS_15AssertionResultEPKcS4_T_S5_
FN:1731,1760,_ZN7testing8internal15FloatingPointLEIfEENS_15AssertionResultEPKcS4_T_S5_
FN:1766,1769,_ZN7testing7FloatLEEPKcS1_ff
FN:1773,1776,_ZN7testing8DoubleLEEPKcS1_dd
FN:1781,1790,_ZN7testing8internal14CmpHelperSTREQEPKcS2_S2_S2_
FN:1793,1802,_ZN7testing8internal18CmpHelperSTRCASEEQEPKcS2_S2_S2_
FN:1805,1815,_ZN7testing8internal14CmpHelperSTRNEEPKcS2_S2_S2_
FN:1818,1828,_ZN7testing8internal18CmpHelperSTRCASENEEPKcS2_S2_S2_
FN:1863,1879,_ZN7testing12_GLOBAL__N_115IsSubstringImplINSt7__cxx1112basic_stringIcSt11char_traitsIcESaIcEEEEENS_15AssertionResultEbPKcSA_RKT_SD_
FN:1863,1879,_ZN7testing12_GLOBAL__N_115IsSubstringImplINSt7__cxx1112basic_stringIwSt11char_traitsIwESaIwEEEEENS_15AssertionResultEbPKcSA_RKT_SD_
FN:1863,1879,_ZN7testing12_GLOBAL__N_115IsSubstringImplIPKcEENS_15AssertionResultEbS3_S3_RKT_S7_
FN:1863,1879,_ZN7testing12_GLOBAL__N_115IsSubstringImplIPKwEENS_15AssertionResultEbPKcS6_RKT_S9_
FN:1887,1890,_ZN7testing11IsSubstringEPKcS1_S1_S1_
FN:1892,1895,_ZN7testing11IsSubstringEPKcS1_PKwS3_
FN:1897,1901,_ZN7testing14IsNotSubstringEPKcS1_S1_S1_
FN:1903,1907,_ZN7testing14IsNotSubstringEPKcS1_PKwS3_
FN:1909,1913,_ZN7testing11IsSubstringEPKcS1_RKNSt7__cxx1112basic_stringIcSt11char_traitsIcESaIcEEES9_
FN:1915,1920,_ZN7testing14IsNotSubstringEPKcS1_RKNSt7__cxx1112basic_stringIcSt11char_traitsIcESaIcEEES9_
FN:1923,1927,_ZN7testing11IsSubstringEPKcS1_RKNSt7__cxx1112basic_stringIwSt11char_traitsIwESaIwEEES9_
FN:1929,1934,_ZN7testing14IsNotSubstringEPKcS1_RKNSt7__cxx1112basic_stringIwSt11char_traitsIwESaIwEEES9_
FN:2041,2067,_ZN7testing8internal15CodePointToUtf8B5cxx11Ej
FN:2108,2128,_ZN7testing8internal16WideStringToUtf8B5cxx11EPKwi
FN:2132,2136,_ZN7testing8internal6String15ShowWideCStringB5cxx11EPKw
FN:2144,2150,_ZN7testing8internal6String17WideCStringEqualsEPKwS3_
FN:2153,2162,_ZN7testing8internal14CmpHelperSTREQEPKcS2_PKwS4_
FN:2165,2175,_ZN7testing8internal14CmpHelperSTRNEEPKcS2_PKwS4_
FN:2183,2187,_ZN7testing8internal6String28CaseInsensitiveCStringEqualsEPKcS3_
FN:219,231,_ZN7testing8internalL18OpenFileForWritingERKNSt7__cxx1112basic_stringIcSt11char_traitsIcESaIcEEE
FN:2201,2221,_ZN7testing8internal6String32CaseInsensitiveWideCStringEqualsEPKwS3_
FN:2225,2232,_ZN7testing8internal6String23EndsWithCaseInsensitiveERKNSt7__cxx1112basic_stringIcSt11char_traitsIcESaIcEEES9_
FN:2235,2237,_ZN7testing8internal6String15FormatIntWidth2B5cxx11Ei
FN:2240,2244,_ZN7testing8internal6String15FormatIntWidthNB5cxx11Eii
FN:2247,2251,_ZN7testing8internal6String15FormatHexUInt32B5cxx11Ej
FN:2254,2256,_ZN7testing8internal6String12FormatHexIntB5cxx11Ei
FN:2259,2264,_ZN7testing8internal6String10FormatByteB5cxx11Eh
FN:2268,2284,_ZN7testing8internal20StringStreamToStringEPNSt7__cxx1118basic_stringstreamIcSt11char_traitsIcESaIcEEE
FN:2287,2298,_ZN7testing8internal17AppendUserMessageERKNSt7__cxx1112basic_stringIcSt11char_traitsIcESaIcEEERKNS_7MessageE
FN:2305,2306,_ZN7testing10TestResultC2Ev
FN:2309,2309,_ZN7testing10TestResultD2Ev
FN:2314,2317,_ZNK7testing10TestResult17GetTestPartResultEi
FN:2322,2325,_ZNK7testing10TestResult15GetTestPropertyEi
FN:2328,2328,_ZN7testing10TestResult20ClearTestPartResultsEv
FN:2331,2333,_ZN7testing10TestResult17AddTestPartResultERKNS_14TestPartResultE
FN:2338,2352,_ZN7testing10TestResult14RecordPropertyERKNSt7__cxx1112basic_stringIcSt11char_traitsIcESaIcEEERKNS_12TestPropertyE
FN:2382,2395,_ZN7testingL31GetReservedAttributesForElementERKNSt7__cxx1112basic_stringIcSt11char_traitsIcESaIcEEE
FN:2400,2413,_ZN7testingL37GetReservedOutputAttributesForElementERKNSt7__cxx1112basic_stringIcSt11char_traitsIcESaIcEEE
FN:2416,2428,_ZN7testingL14FormatWordListERKSt6vectorINSt7__cxx1112basic_stringIcSt11char_traitsIcESaIcEEESaIS6_EE
FN:2430,2441,_ZN7testingL24ValidateTestPropertyNameERKNSt7__cxx1112basic_stringIcSt11char_traitsIcESaIcEEERKSt6vectorIS5_SaIS5_EE
FN:2445,2449,_ZN7testing10TestResult20ValidateTestPropertyERKNSt7__cxx1112basic_stringIcSt11char_traitsIcESaIcEEERKNS_12TestPropertyE
FN:2452,2457,_ZN7testing10TestResult5ClearEv
FN:2460,2462,_ZN7testingL15TestPartSkippedERKNS_14TestPartResultE
FN:2465,2467,_ZNK7testing10TestResult7SkippedEv
FN:2470,2475,_ZNK7testing10TestResult6FailedEv
FN:2478,2480,_ZN7testingL21TestPartFatallyFailedERKNS_14TestPartResultE
FN:2483,2485,_ZNK7testing10TestResult15HasFatalFailureEv
FN:2488,2490,_ZN7testingL24TestPartNonfatallyFailedERKNS_14TestPartResultE
FN:249,256,_ZN7testingL18GetDefaultFailFastEv
FN:2493,2495,_ZNK7testing10TestResult18HasNonfatalFailureEv
FN:2499,2501,_ZNK7testing10TestResult16total_part_countEv
FN:2504,2506,_ZNK7testing10TestResult19test_property_countEv
FN:2513,2513,_ZN7testing4TestC2Ev
FN:2518,2518,_ZN7testing4TestD0Ev
FN:2518,2518,_ZN7testing4TestD2Ev
FN:2523,2523,_ZN7testing4Test5SetUpEv
FN:2528,2528,_ZN7testing4Test8TearDownEv
FN:2531,2533,_ZN7testing4Test14RecordPropertyERKNSt7__cxx1112basic_stringIcSt11char_traitsIcESaIcEEES8_
FN:2537,2547,_ZN7testing8internal30ReportFailureInUnknownLocationENS_14TestPartResult4TypeERKNSt7__cxx1112basic_stringIcSt11char_traitsIcESaIcEEE
FN:2556,2615,_ZN7testing4Test19HasSameFixtureClassEv
FN:2622,2633,_ZN7testing8internalL25FormatCxxExceptionMessageEPKcS2_
FN:2638,2640,_ZN7testing8internal26GoogleTestFailureExceptionC2ERKNS_14TestPartResultE
FN:2672,2724,_ZN7testing8internal35HandleExceptionsInMethodIfSupportedINS0_12UnitTestImplEbEET0_PT_MS4_FS3_vEPKc
FN:2672,2724,_ZN7testing8internal35HandleExceptionsInMethodIfSupportedINS0_15TestFactoryBaseEPNS_4TestEEET0_PT_MS6_FS5_vEPKc
FN:2672,2724,_ZN7testing8internal35HandleExceptionsInMethodIfSupportedINS_4TestEvEET0_PT_MS4_FS3_vEPKc
FN:2672,2724,_ZN7testing8internal35HandleExceptionsInMethodIfSupportedINS_9TestSuiteEvEET0_PT_MS4_FS3_vEPKc
FN:2729,2749,_ZN7testing4Test3RunEv
FN:2752,2754,_ZN7testing4Test15HasFatalFailureEv
FN:2757,2761,_ZN7testing4Test18HasNonfatalFailureEv
FN:2764,2766,_ZN7testing4Test9IsSkippedEv
FN:2772,2788,_ZN7testing8TestInfoC2ENSt7__cxx1112basic_stringIcSt11char_traitsIcESaIcEEES6_PKcS8_NS_8internal12CodeLocationEPKvPNS9_15TestFactoryBaseE
FN:2791,2791,_ZN7testing8TestInfoD2Ev
FN:2813,2823,_ZN7testing8internal23MakeAndRegisterTestInfoENSt7__cxx1112basic_stringIcSt11char_traitsIcESaIcEEEPKcS8_S8_NS0_12CodeLocationEPKvPFvvESD_PNS0_15TestFactoryBaseE
FN:2825,2841,_ZN7testing8internal26ReportInvalidTestSuiteTypeEPKcRKNS0_12CodeLocationE
FN:2846,2852,_ZN7testing8internal12UnitTestImpl26RegisterParameterizedTestsEv
FN:2858,2903,_ZN7testing8TestInfo3RunEv
FN:2906,2925,_ZN7testing8TestInfo4SkipEv
FN:2930,2932,_ZNK7testing9TestSuite21successful_test_countEv
FN:2935,2937,_ZNK7testing9TestSuite18skipped_test_countEv
FN:2940,2942,_ZNK7testing9TestSuite17failed_test_countEv
FN:2945,2947,_ZNK7testing9TestSuite30reportable_disabled_test_countEv
FN:2950,2952,_ZNK7testing9TestSuite19disabled_test_countEv
FN:2955,2957,_ZNK7testing9TestSuite21reportable_test_countEv
FN:2960,2962,_ZNK7testing9TestSuite17test_to_run_countEv
FN:2965,2967,_ZNK7testing9TestSuite16total_test_countEv
FN:2978,2987,_ZN7testing9TestSuiteC2ERKNSt7__cxx1112basic_stringIcSt11char_traitsIcESaIcEEEPKcPFvvESC_
FN:2990,2993,_ZN7testing9TestSuiteD0Ev
FN:2990,2993,_ZN7testing9TestSuiteD2Ev
FN:2997,3000,_ZNK7testing9TestSuite11GetTestInfoEi
FN:3004,3007,_ZN7testing9TestSuite18GetMutableTestInfoEi
FN:3011,3014,_ZN7testing9TestSuite11AddTestInfoEPNS_8TestInfoE
FN:3017,3087,_ZN7testing9TestSuite3RunEv
FN:3090,3116,_ZN7testing9TestSuite4SkipEv
FN:3119,3122,_ZN7testing9TestSuite11ClearResultEv
FN:3125,3127,_ZN7testing9TestSuite12ShuffleTestsEPNS_8internal6RandomE
FN:3130,3134,_ZN7testing9TestSuite14UnshuffleTestsEv
FN:3141,3145,_ZN7testingL19FormatCountableNounEiPKcS1_
FN:3186,3195,_ZN7testing8internalL27PrintTestPartResultToStringERKNS_14TestPartResultE
FN:3198,3213,_ZN7testing8internalL19PrintTestPartResultERKNS_14TestPartResultE
FN:3286,3320,_ZN7testing8internal14ShouldUseColorEb
FN:3328,3373,_ZN7testing8internalL13ColoredPrintfENS0_12_GLOBAL__N_110GTestColorEPKcz
FN:3380,3394,_ZN7testing8internalL29PrintFullTestCommentIfPresentERKNS_8TestInfoE
FN:3407,3407,_ZN7testing8internal27PrettyUnitTestResultPrinter18OnTestProgramStartERKNS_8UnitTestE
FN:3410,3410,_ZN7testing8internal27PrettyUnitTestResultPrinter22OnEnvironmentsSetUpEndERKNS_8UnitTestE
FN:3429,3429,_ZN7testing8internal27PrettyUnitTestResultPrinter25OnEnvironmentsTearDownEndERKNS_8UnitTestE
FN:3431,3431,_ZN7testing8internal27PrettyUnitTestResultPrinter16OnTestProgramEndERKNS_8UnitTestE
FN:3440,3473,_ZN7testing8internal27PrettyUnitTestResultPrinter20OnTestIterationStartERKNS_8UnitTestEi
FN:3475,3480,_ZN7testing8internal27PrettyUnitTestResultPrinter24OnEnvironmentsSetUpStartERKNS_8UnitTestE
FN:3483,3494,_ZN7testing8internal27PrettyUnitTestResultPrinter15OnTestCaseStartERKNS_9TestSuiteE
FN:3511,3516,_ZN7testing8internal27PrettyUnitTestResultPrinter11OnTestStartERKNS_8TestInfoE
FN:3518,3523,_ZN7testing8internal27PrettyUnitTestResultPrinter14OnTestDisabledERKNS_8TestInfoE
FN:3526,3538,_ZN7testing8internal27PrettyUnitTestResultPrinter16OnTestPartResultERKNS_14TestPartResultE
FN:3540,3559,_ZN7testing8internal27PrettyUnitTestResultPrinter9OnTestEndERKNS_8TestInfoE
FN:3562,3571,_ZN7testing8internal27PrettyUnitTestResultPrinter13OnTestCaseEndERKNS_9TestSuiteE
FN:3585,3590,_ZN7testing8internal27PrettyUnitTestResultPrinter27OnEnvironmentsTearDownStartERKNS_8UnitTestE
FN:3593,3616,_ZN7testing8internal27PrettyUnitTestResultPrinter16PrintFailedTestsERKNS_8UnitTestE
FN:3620,3638,_ZN7testing8internal27PrettyUnitTestResultPrinter21PrintFailedTestSuitesERKNS_8UnitTestE
FN:3641,3662,_ZN7testing8internal27PrettyUnitTestResultPrinter17PrintSkippedTestsERKNS_8UnitTestE
FN:3664,3700,_ZN7testing8internal27PrettyUnitTestResultPrinter18OnTestIterationEndERKNS_8UnitTestEi
FN:3715,3715,_ZN7testing8internal26BriefUnitTestResultPrinter18OnTestProgramStartERKNS_8UnitTestE
FN:3716,3717,_ZN7testing8internal26BriefUnitTestResultPrinter20OnTestIterationStartERKNS_8UnitTestEi
FN:3718,3718,_ZN7testing8internal26BriefUnitTestResultPrinter24OnEnvironmentsSetUpStartERKNS_8UnitTestE
FN:3719,3719,_ZN7testing8internal26BriefUnitTestResultPrinter22OnEnvironmentsSetUpEndERKNS_8UnitTestE
FN:3721,3721,_ZN7testing8internal26BriefUnitTestResultPrinter15OnTestCaseStartERKNS_9TestSuiteE
FN:3726,3726,_ZN7testing8internal26BriefUnitTestResultPrinter11OnTestStartERKNS_8TestInfoE
FN:3727,3727,_ZN7testing8internal26BriefUnitTestResultPrinter14OnTestDisabledERKNS_8TestInfoE
FN:3732,3732,_ZN7testing8internal26BriefUnitTestResultPrinter13OnTestCaseEndERKNS_9TestSuiteE
FN:3737,3737,_ZN7testing8internal26BriefUnitTestResultPrinter27OnEnvironmentsTearDownStartERKNS_8UnitTestE
FN:3738,3738,_ZN7testing8internal26BriefUnitTestResultPrinter25OnEnvironmentsTearDownEndERKNS_8UnitTestE
FN:3740,3740,_ZN7testing8internal26BriefUnitTestResultPrinter16OnTestProgramEndERKNS_8UnitTestE
FN:3744,3756,_ZN7testing8internal26BriefUnitTestResultPrinter16OnTestPartResultERKNS_14TestPartResultE
FN:3758,3773,_ZN7testing8internal26BriefUnitTestResultPrinter9OnTestEndERKNS_8TestInfoE
FN:3775,3805,_ZN7testing8internal26BriefUnitTestResultPrinter18OnTestIterationEndERKNS_8UnitTestEi
FN:3858,3860,_ZN7testing8internal17TestEventRepeaterD0Ev
FN:3858,3860,_ZN7testing8internal17TestEventRepeaterD2Ev
FN:3862,3864,_ZN7testing8internal17TestEventRepeater6AppendEPNS_17TestEventListenerE
FN:3866,3875,_ZN7testing8internal17TestEventRepeater7ReleaseEPNS_17TestEventListenerE
FN:3898,3898,_ZN7testing8internal17TestEventRepeater18OnTestProgramStartERKNS_8UnitTestE
FN:3899,3899,_ZN7testing8internal17TestEventRepeater24OnEnvironmentsSetUpStartERKNS_8UnitTestE
FN:3902,3902,_ZN7testing8internal17TestEventRepeater15OnTestCaseStartERKNS_9TestSuiteE
FN:3904,3904,_ZN7testing8internal17TestEventRepeater16OnTestSuiteStartERKNS_9TestSuiteE
FN:3905,3905,_ZN7testing8internal17TestEventRepeater11OnTestStartERKNS_8TestInfoE
FN:3906,3906,_ZN7testing8internal17TestEventRepeater14OnTestDisabledERKNS_8TestInfoE
FN:3907,3907,_ZN7testing8internal17TestEventRepeater16OnTestPartResultERKNS_14TestPartResultE
FN:3908,3908,_ZN7testing8internal17TestEventRepeater27OnEnvironmentsTearDownStartERKNS_8UnitTestE
FN:3909,3909,_ZN7testing8internal17TestEventRepeater22OnEnvironmentsSetUpEndERKNS_8UnitTestE
FN:3910,3910,_ZN7testing8internal17TestEventRepeater25OnEnvironmentsTearDownEndERKNS_8UnitTestE
FN:3911,3911,_ZN7testing8internal17TestEventRepeater9OnTestEndERKNS_8TestInfoE
FN:3914,3914,_ZN7testing8internal17TestEventRepeater13OnTestCaseEndERKNS_9TestSuiteE
FN:3916,3916,_ZN7testing8internal17TestEventRepeater14OnTestSuiteEndERKNS_9TestSuiteE
FN:3917,3917,_ZN7testing8internal17TestEventRepeater16OnTestProgramEndERKNS_8UnitTestE
FN:3922,3929,_ZN7testing8internal17TestEventRepeater20OnTestIterationStartERKNS_8UnitTestEi
FN:3931,3938,_ZN7testing8internal17TestEventRepeater18OnTestIterationEndERKNS_8UnitTestEi
FN:4040,4045,_ZN7testing8internal24XmlUnitTestResultPrinterC2EPKc
FN:4048,4055,_ZN7testing8internal24XmlUnitTestResultPrinter18OnTestIterationEndERKNS_8UnitTestEi
FN:4057,4064,_ZN7testing8internal24XmlUnitTestResultPrinter23ListTestsMatchingFilterERKSt6vectorIPNS_9TestSuiteESaIS4_EE
FN:4076,4118,_ZN7testing8internal24XmlUnitTestResultPrinter9EscapeXmlERKNSt7__cxx1112basic_stringIcSt11char_traitsIcESaIcEEEb
FN:4123,4132,_ZN7testing8internal24XmlUnitTestResultPrinter26RemoveInvalidXmlCharactersERKNSt7__cxx1112basic_stringIcSt11char_traitsIcESaIcEEE
FN:4151,4162,_ZN7testing8internal27FormatTimeInMillisAsSecondsB5cxx11El
FN:416,430,_ZN7testing8internal6Random8GenerateEj
FN:4185,4197,_ZN7testing8internal32FormatEpochTimeInMillisAsIso8601B5cxx11El
FN:4200,4217,_ZN7testing8internal24XmlUnitTestResultPrinter21OutputXmlCDataSectionEPSoPKc
FN:4219,4231,_ZN7testing8internal24XmlUnitTestResultPrinter18OutputXmlAttributeEPSoRKNSt7__cxx1112basic_stringIcSt11char_traitsIcESaIcEEESA_SA_
FN:4234,4255,_ZN7testing8internal24XmlUnitTestResultPrinter31OutputXmlTestSuiteForTestResultEPSoRKNS_10TestResultE
FN:4258,4274,_ZN7testing8internal24XmlUnitTestResultPrinter30OutputXmlTestCaseForTestResultEPSoRKNS_10TestResultE
FN:4277,4321,_ZN7testing8internal24XmlUnitTestResultPrinter17OutputXmlTestInfoEPSoPKcRKNS_8TestInfoE
FN:4323,4367,_ZN7testing8internal24XmlUnitTestResultPrinter19OutputXmlTestResultEPSoRKNS_10TestResultE
FN:435,435,_ZN7testing8internalL18GTestIsInitializedEv
FN:4370,4406,_ZN7testing8internal24XmlUnitTestResultPrinter17PrintXmlTestSuiteEPSoRKNS_9TestSuiteE
FN:440,447,_ZN7testing8internalL20SumOverTestSuiteListERKSt6vectorIPNS_9TestSuiteESaIS3_EEMS2_KFivE
FN:4409,4452,_ZN7testing8internal24XmlUnitTestResultPrinter16PrintXmlUnitTestEPSoRKNS_8UnitTestE
FN:4454,4474,_ZN7testing8internal24XmlUnitTestResultPrinter17PrintXmlTestsListEPSoRKSt6vectorIPNS_9TestSuiteESaIS5_EE
FN:4476,4494,_ZN7testing8internal24XmlUnitTestResultPrinter23OutputXmlTestPropertiesEPSoRKNS_10TestResultERKNSt7__cxx1112basic_stringIcSt11char_traitsIcESaIcEEE
FN:450,452,_ZN7testing8internalL15TestSuitePassedEPKNS_9TestSuiteE
FN:455,457,_ZN7testing8internalL15TestSuiteFailedEPKNS_9TestSuiteE
FN:4569,4574,_ZN7testing8internal25JsonUnitTestResultPrinterC2EPKc
FN:4576,4583,_ZN7testing8internal25JsonUnitTestResultPrinter18OnTestIterationEndERKNS_8UnitTestEi
FN:4586,4623,_ZN7testing8internal25JsonUnitTestResultPrinter10EscapeJsonERKNSt7__cxx1112basic_stringIcSt11char_traitsIcESaIcEEE
FN:461,463,_ZN7testing8internalL18ShouldRunTestSuiteEPKNS_9TestSuiteE
FN:4629,4633,_ZN7testing8internalL28FormatTimeInMillisAsDurationEl
FN:4637,4648,_ZN7testing8internalL32FormatEpochTimeInMillisAsRFC3339El
FN:4654,4670,_ZN7testing8internal25JsonUnitTestResultPrinter13OutputJsonKeyEPSoRKNSt7__cxx1112basic_stringIcSt11char_traitsIcESaIcEEESA_SA_SA_b
FN:4672,4685,_ZN7testing8internal25JsonUnitTestResultPrinter13OutputJsonKeyEPSoRKNSt7__cxx1112basic_stringIcSt11char_traitsIcESaIcEEESA_iSA_b
FN:4688,4712,_ZN7testing8internal25JsonUnitTestResultPrinter32OutputJsonTestSuiteForTestResultEPSoRKNS_10TestResultE
FN:4715,4733,_ZN7testing8internal25JsonUnitTestResultPrinter31OutputJsonTestCaseForTestResultEPSoRKNS_10TestResultE
FN:4736,4781,_ZN7testing8internal25JsonUnitTestResultPrinter18OutputJsonTestInfoEPSoPKcRKNS_8TestInfoE
FN:4783,4835,_ZN7testing8internal25JsonUnitTestResultPrinter20OutputJsonTestResultEPSoRKNS_10TestResultE
FN:479,481,_ZN7testing8internal12AssertHelperC2ENS_14TestPartResult4TypeEPKciS5_
FN:483,483,_ZN7testing8internal12AssertHelperD2Ev
FN:4838,4888,_ZN7testing8internal25JsonUnitTestResultPrinter18PrintJsonTestSuiteEPSoRKNS_9TestSuiteE
FN:486,495,_ZNK7testing8internal12AssertHelperaSERKNS_7MessageE
FN:4891,4945,_ZN7testing8internal25JsonUnitTestResultPrinter17PrintJsonUnitTestEPSoRKNS_8UnitTestE
FN:4947,4971,_ZN7testing8internal25JsonUnitTestResultPrinter17PrintJsonTestListEPSoRKSt6vectorIPNS_9TestSuiteESaIS5_EE
FN:4974,4984,_ZN7testing8internal25JsonUnitTestResultPrinter20TestPropertiesAsJsonERKNS_10TestResultERKNSt7__cxx1112basic_stringIcSt11char_traitsIcESaIcEEE
FN:4996,5014,_ZN7testing8internal17StreamingListener9UrlEncodeB5cxx11EPKc
FN:5016,5055,_ZN7testing8internal17StreamingListener12SocketWriter14MakeConnectionEv
FN:5065,5113,_ZN7testing8internal18OsStackTraceGetter17CurrentStackTraceB5cxx11Eii
FN:510,514,_ZN7testing8internal12_GLOBAL__N_111FailureTestC2ERKNS0_12CodeLocationENSt7__cxx1112basic_stringIcSt11char_traitsIcESaIcEEEb
FN:5115,5125,_ZN7testing8internal18OsStackTraceGetter16UponLeavingGTestEv
FN:5132,5144,_ZN7testing8internal23ScopedPrematureExitFileC2EPKc
FN:5146,5157,_ZN7testing8internal23ScopedPrematureExitFileD2Ev
FN:516,523,_ZN7testing8internal12_GLOBAL__N_111FailureTest8TestBodyEv
FN:5171,5174,_ZN7testing18TestEventListenersC2Ev
FN:5176,5176,_ZN7testing18TestEventListenersD2Ev
FN:5182,5184,_ZN7testing18TestEventListeners6AppendEPNS_17TestEventListenerE
FN:5189,5195,_ZN7testing18TestEventListeners7ReleaseEPNS_17TestEventListenerE
FN:5199,5199,_ZN7testing18TestEventListeners8repeaterEv
FN:5206,5214,_ZN7testing18TestEventListeners23SetDefaultResultPrinterEPNS_17TestEventListenerE
FN:5221,5229,_ZN7testing18TestEventListeners22SetDefaultXmlGeneratorEPNS_17TestEventListenerE
FN:5233,5235,_ZNK7testing18TestEventListeners22EventForwardingEnabledEv
FN:5237,5239,_ZN7testing18TestEventListeners23SuppressEventForwardingEb
FN:5250,5262,_ZN7testing8UnitTest11GetInstanceEv
FN:5265,5267,_ZNK7testing8UnitTest27successful_test_suite_countEv
FN:5270,5272,_ZNK7testing8UnitTest23failed_test_suite_countEv
FN:5275,5277,_ZNK7testing8UnitTest22total_test_suite_countEv
FN:5281,5283,_ZNK7testing8UnitTest23test_suite_to_run_countEv
FN:5287,5289,_ZNK7testing8UnitTest26successful_test_case_countEv
FN:5290,5292,_ZNK7testing8UnitTest22failed_test_case_countEv
FN:5293,5295,_ZNK7testing8UnitTest21total_test_case_countEv
FN:5296,5298,_ZNK7testing8UnitTest22test_case_to_run_countEv
FN:5302,5304,_ZNK7testing8UnitTest21successful_test_countEv
FN:5307,5309,_ZNK7testing8UnitTest18skipped_test_countEv
FN:5312,5312,_ZNK7testing8UnitTest17failed_test_countEv
FN:5315,5317,_ZNK7testing8UnitTest30reportable_disabled_test_countEv
FN:5320,5322,_ZNK7testing8UnitTest19disabled_test_countEv
FN:5325,5327,_ZNK7testing8UnitTest21reportable_test_countEv
FN:533,535,_ZN7testing8internal33GetIgnoredParameterizedTestSuitesB5cxx11Ev
FN:5330,5330,_ZNK7testing8UnitTest16total_test_countEv
FN:5333,5333,_ZNK7testing8UnitTest17test_to_run_countEv
FN:5337,5339,_ZNK7testing8UnitTest15start_timestampEv
FN:5342,5344,_ZNK7testing8UnitTest12elapsed_timeEv
FN:5348,5348,_ZNK7testing8UnitTest6PassedEv
FN:5352,5352,_ZNK7testing8UnitTest6FailedEv
FN:5356,5358,_ZNK7testing8UnitTest12GetTestSuiteEi
FN:5362,5364,_ZNK7testing8UnitTest11GetTestCaseEi
FN:5369,5371,_ZNK7testing8UnitTest18ad_hoc_test_resultEv
FN:5375,5377,_ZN7testing8UnitTest19GetMutableTestSuiteEi
FN:5379,5381,_ZN7testing8UnitTest16UponLeavingGTestEv
FN:538,540,_ZN7testing8internal13MarkAsIgnoredC2EPKc
FN:5384,5387,_ZN7testing8UnitTest22set_current_test_suiteEPNS_9TestSuiteE
FN:5390,5393,_ZN7testing8UnitTest21set_current_test_infoEPNS_8TestInfoE
FN:5397,5397,_ZN7testing8UnitTest9listenersEv
FN:5409,5416,_ZN7testing8UnitTest14AddEnvironmentEPNS_11EnvironmentE
FN:5422,5492,_ZN7testing8UnitTest17AddTestPartResultENS_14TestPartResult4TypeEPKciRKNSt7__cxx1112basic_stringIcSt11char_traitsIcESaIcEEESC_
FN:544,587,_ZN7testing8internal23InsertSyntheticTestCaseERKNSt7__cxx1112basic_stringIcSt11char_traitsIcESaIcEEENS0_12CodeLocationEb
FN:5499,5502,_ZN7testing8UnitTest14RecordPropertyERKNSt7__cxx1112basic_stringIcSt11char_traitsIcESaIcEEES8_
FN:5509,5599,_ZN7testing8UnitTest3RunEv
FN:5604,5606,_ZNK7testing8UnitTest20original_working_dirEv
FN:5611,5615,_ZNK7testing8UnitTest18current_test_suiteEv
FN:5619,5623,_ZNK7testing8UnitTest17current_test_caseEv
FN:5628,5632,_ZNK7testing8UnitTest17current_test_infoEv
FN:5635,5635,_ZNK7testing8UnitTest11random_seedEv
FN:5640,5642,_ZN7testing8UnitTest27parameterized_test_registryEv
FN:5645,5645,_ZN7testing8UnitTestC2Ev
FN:5648,5648,_ZN7testing8UnitTestD0Ev
FN:5648,5648,_ZN7testing8UnitTestD2Ev
FN:5652,5656,_ZN7testing8UnitTest14PushGTestTraceERKNS_8internal9TraceInfoE
FN:5659,5662,_ZN7testing8UnitTest13PopGTestTraceEv
FN:5666,5693,_ZN7testing8internal12UnitTestImplC2EPNS_8UnitTestE
FN:5695,5703,_ZN7testing8internal12UnitTestImplD0Ev
FN:5695,5703,_ZN7testing8internal12UnitTestImplD2Ev
FN:5710,5725,_ZN7testing8internal12UnitTestImpl14RecordPropertyERKNS_12TestPropertyE
FN:5730,5733,_ZN7testing8internal12UnitTestImpl32SuppressTestEventsIfInSubprocessEv
FN:5738,5757,_ZN7testing8internal12UnitTestImpl18ConfigureXmlOutputEv
FN:5762,5774,_ZN7testing8internal12UnitTestImpl24ConfigureStreamingOutputEv
FN:5782,5822,_ZN7testing8internal12UnitTestImpl19PostFlagParsingInitEv
FN:583,586,_ZZN7testing8internal23InsertSyntheticTestCaseERKNSt7__cxx1112basic_stringIcSt11char_traitsIcESaIcEEENS0_12CodeLocationEbENKUlvE_clEv
FN:5836,5876,_ZN7testing8internal12UnitTestImpl12GetTestSuiteERKNSt7__cxx1112basic_stringIcSt11char_traitsIcESaIcEEEPKcPFvvESD_
FN:5880,5880,_ZN7testing8internalL16SetUpEnvironmentEPNS_11EnvironmentE
FN:5881,5881,_ZN7testing8internalL19TearDownEnvironmentEPNS_11EnvironmentE
FN:5886,5897,_ZN7testing8internalL30AppendToTestWarningsOutputFileERKNSt7__cxx1112basic_stringIcSt11char_traitsIcESaIcEEE
FN:589,593,_ZN7testing8internal34RegisterTypeParameterizedTestSuiteEPKcNS0_12CodeLocationE
FN:5909,6138,_ZN7testing8internal12UnitTestImpl11RunAllTestsEv
FN:595,598,_ZN7testing8internal47RegisterTypeParameterizedTestSuiteInstantiationEPKc
FN:600,604,_ZN7testing8internal34TypeParameterizedTestSuiteRegistry17RegisterTestSuiteEPKcNS0_12CodeLocationE
FN:606,615,_ZN7testing8internal34TypeParameterizedTestSuiteRegistry21RegisterInstantiationEPKc
FN:6145,6159,_ZN7testing8internal30WriteToShardStatusFileIfNeededEv
FN:6168,6207,_ZN7testing8internal11ShouldShardEPKcS2_b
FN:617,653,_ZN7testing8internal34TypeParameterizedTestSuiteRegistry22CheckForInstantiationsEv
FN:6212,6224,_ZN7testing8internal17Int32FromEnvOrDieEPKci
FN:6230,6232,_ZN7testing8internal20ShouldRunTestOnShardEiii
FN:6241,6293,_ZN7testing8internal12UnitTestImpl11FilterTestsENS1_18ReactionToShardingE
FN:6299,6317,_ZNK7testing8internal12UnitTestImpl30ShouldWarnIfNoTestsMatchFilterEv
FN:6323,6339,_ZN7testing8internalL14PrintOnOneLineEPKci
FN:6342,6394,_ZN7testing8internal12UnitTestImpl23ListTestsMatchingFilterEv
FN:6401,6407,_ZN7testing8internal12UnitTestImpl25set_os_stack_trace_getterEPNS0_27OsStackTraceGetterInterfaceE
FN:6412,6422,_ZN7testing8internal12UnitTestImpl21os_stack_trace_getterEv
FN:6425,6433,_ZN7testing8internal12UnitTestImpl19current_test_resultEv
FN:6437,6449,_ZN7testing8internal12UnitTestImpl12ShuffleTestsEv
FN:6452,6459,_ZN7testing8internal12UnitTestImpl14UnshuffleTestsEv
FN:6472,6476,_ZN7testing8internal31GetCurrentOsStackTraceExceptTopB5cxx11Ei
FN:648,651,_ZZN7testing8internal34TypeParameterizedTestSuiteRegistry22CheckForInstantiationsEvENKUlvE_clEv
FN:6484,6484,_ZN7testing8internal6IsTrueEb
FN:6486,6493,_ZN7testing8internal10AlwaysTrueEv
FN:6498,6505,_ZN7testing8internal10SkipPrefixEPKcPS2_
FN:6512,6538,_ZN7testing8internalL14ParseFlagValueEPKcS2_b
FN:6550,6560,_ZN7testing8internalL9ParseFlagEPKcS2_Pb
FN:6566,6576,_ZN7testing8internal9ParseFlagEPKcS2_Pi
FN:658,667,_ZN7testing8internal8GetArgvsB5cxx11Ev
FN:6583,6593,_ZN7testing8internalL9ParseFlagINSt7__cxx1112basic_stringIcSt11char_traitsIcESaIcEEEEEbPKcS9_PT_
FN:6601,6607,_ZN7testing8internalL23HasGoogleTestFlagPrefixEPKc
FN:6618,6650,_ZN7testing8internalL17PrintColorEncodedEPKc
FN:672,685,_ZN7testing8internal24GetCurrentExecutableNameEv
FN:6748,6781,_ZN7testing8internalL19ParseGoogleTestFlagEPKc
FN:6784,6798,_ZN7testing8internalL17LoadFlagsFromFileERKNSt7__cxx1112basic_stringIcSt11char_traitsIcESaIcEEE
FN:6805,6852,_ZN7testing8internal28ParseGoogleTestFlagsOnlyImplIcEEvPiPPT_
FN:6805,6852,_ZN7testing8internal28ParseGoogleTestFlagsOnlyImplIwEEvPiPPT_
FN:6860,6923,_ZN7testing8internal24ParseGoogleTestFlagsOnlyEPiPPc
FN:691,699,_ZN7testing8internal15UnitTestOptions15GetOutputFormatB5cxx11Ev
FN:6924,6926,_ZN7testing8internal24ParseGoogleTestFlagsOnlyEPiPPw
FN:6933,6958,_ZN7testing8internal18InitGoogleTestImplIcEEvPiPPT_
FN:6933,6958,_ZN7testing8internal18InitGoogleTestImplIwEEvPiPPT_
FN:6971,6977,_ZN7testing14InitGoogleTestEPiPPc
FN:6981,6987,_ZN7testing14InitGoogleTestEPiPPw
FN:6991,7003,_ZN7testing14InitGoogleTestEv
FN:7011,7024,_ZN7testingL13GetDirFromEnvESt16initializer_listIPKcES2_c
FN:7027,7037,_ZN7testing7TempDirB5cxx11Ev
FN:704,731,_ZN7testing8internal15UnitTestOptions27GetAbsolutePathToOutputFileB5cxx11Ev
FN:7042,7045,_ZN7testingL29GetCurrentExecutableDirectoryEv
FN:7049,7062,_ZN7testing6SrcDirB5cxx11Ev
FN:7069,7076,_ZN7testing11ScopedTrace9PushTraceEPKciNSt7__cxx1112basic_stringIcSt11char_traitsIcESaIcEEE
FN:7079,7081,_ZN7testing11ScopedTraceD2Ev
FN:740,785,_ZN7testing8internalL20PatternMatchesStringERKNSt7__cxx1112basic_stringIcSt11char_traitsIcESaIcEEEPKcSA_
FN:789,792,_ZN7testing8internal12_GLOBAL__N_113IsGlobPatternERKNSt7__cxx1112basic_stringIcSt11char_traitsIcESaIcEEE
FN:799,813,_ZN7testing8internal12_GLOBAL__N_114UnitTestFilterC2ERKNSt7__cxx1112basic_stringIcSt11char_traitsIcESaIcEEE
FN:817,825,_ZNK7testing8internal12_GLOBAL__N_114UnitTestFilter11MatchesNameERKNSt7__cxx1112basic_stringIcSt11char_traitsIcESaIcEEE
FN:839,864,_ZN7testing8internal12_GLOBAL__N_133PositiveAndNegativeUnitTestFilterC2ERKNSt7__cxx1112basic_stringIcSt11char_traitsIcESaIcEEE
FN:869,872,_ZNK7testing8internal12_GLOBAL__N_133PositiveAndNegativeUnitTestFilter11MatchesTestERKNSt7__cxx1112basic_stringIcSt11char_traitsIcESaIcEEESA_
FN:876,879,_ZNK7testing8internal12_GLOBAL__N_133PositiveAndNegativeUnitTestFilter11MatchesNameERKNSt7__cxx1112basic_stringIcSt11char_traitsIcESaIcEEE
FN:887,890,_ZN7testing8internal15UnitTestOptions13MatchesFilterERKNSt7__cxx1112basic_stringIcSt11char_traitsIcESaIcEEEPKc
FN:894,900,_ZN7testing8internal15UnitTestOptions17FilterMatchesTestERKNSt7__cxx1112basic_stringIcSt11char_traitsIcESaIcEEES9_
FN:944,948,_ZN7testing32ScopedFakeTestPartResultReporterC2EPNS_19TestPartResultArrayE
FN:953,957,_ZN7testing32ScopedFakeTestPartResultReporterC2ENS0_13InterceptModeEPNS_19TestPartResultArrayE
FN:959,968,_ZN7testing32ScopedFakeTestPartResultReporter4InitEv
FN:972,979,_ZN7testing32ScopedFakeTestPartResultReporterD0Ev
FN:972,979,_ZN7testing32ScopedFakeTestPartResultReporterD2Ev
FN:983,986,_ZN7testing32ScopedFakeTestPartResultReporter20ReportTestPartResultERKNS_14TestPartResultE
FN:999,999,_ZN7testing8internal13GetTestTypeIdEv
FNDA:0,_ZN7testing8internalL13HasOneFailureEPKcS2_S2_RKNS_19TestPartResultArrayENS_14TestPartResult4TypeERKNSt7__cxx1112basic_stringIcSt11char_traitsIcESaIcEEE
FNDA:0,_ZN7testing8internal20SingleFailureCheckerC2EPKNS_19TestPartResultArrayENS_14TestPartResult4TypeERKNSt7__cxx1112basic_stringIcSt11char_traitsIcESaIcEEE
FNDA:0,_ZN7testing8internal20SingleFailureCheckerD2Ev
FNDA:14,_ZN7testing8internal35DefaultGlobalTestPartResultReporterC2EPNS0_12UnitTestImplE
FNDA:6,_ZN7testing8internal35DefaultGlobalTestPartResultReporter20ReportTestPartResultERKNS_14TestPartResultE
FNDA:14,_ZN7testing8internal38DefaultPerThreadTestPartResultReporterC2EPNS0_12UnitTestImplE
FNDA:6,_ZN7testing8internal38DefaultPerThreadTestPartResultReporter20ReportTestPartResultERKNS_14TestPartResultE
FNDA:6,_ZN7testing8internal12UnitTestImpl31GetGlobalTestPartResultReporterEv
FNDA:0,_ZN7testing8internal12UnitTestImpl31SetGlobalTestPartResultReporterEPNS_31TestPartResultReporterInterfaceE
FNDA:6,_ZN7testing8internal12UnitTestImpl41GetTestPartResultReporterForCurrentThreadEv
FNDA:0,_ZN7testing8internal12UnitTestImpl41SetTestPartResultReporterForCurrentThreadEPNS_31TestPartResultReporterInterfaceE
FNDA:0,_ZNK7testing8internal12UnitTestImpl27successful_test_suite_countEv
FNDA:28,_ZNK7testing8internal12UnitTestImpl23failed_test_suite_countEv
FNDA:210,_ZNK7testing8internal12UnitTestImpl22total_test_suite_countEv
FNDA:28,_ZNK7testing8internal12UnitTestImpl23test_suite_to_run_countEv
FNDA:14,_ZNK7testing8internal12UnitTestImpl21successful_test_countEv
FNDA:14,_ZNK7testing8internal12UnitTestImpl18skipped_test_countEv
FNDA:4,_ZNK7testing8internal12UnitTestImpl17failed_test_countEv
FNDA:14,_ZNK7testing8internal12UnitTestImpl30reportable_disabled_test_countEv
FNDA:0,_ZNK7testing8internal12UnitTestImpl19disabled_test_countEv
FNDA:0,_ZNK7testing8internal12UnitTestImpl21reportable_test_countEv
FNDA:28,_ZNK7testing8internal12UnitTestImpl16total_test_countEv
FNDA:28,_ZNK7testing8internal12UnitTestImpl17test_to_run_countEv
FNDA:0,_ZN7testing8internal12UnitTestImpl28CurrentOsStackTraceExceptTopB5cxx11Ei
FNDA:1986,_ZN7testing8internal15GetTimeInMillisEv
FNDA:42,_ZN7testing8internal6String13CStringEqualsEPKcS3_
FNDA:0,_ZN7testing8internalL24StreamWideCharsToMessageEPKwmPNS_7MessageE
FNDA:196,_ZN7testing8internal11SplitStringERKNSt7__cxx1112basic_stringIcSt11char_traitsIcESaIcEEEcPSt6vectorIS6_SaIS6_EE
FNDA:2810,_ZN7testing7MessageC2Ev
FNDA:0,_ZN7testing7MessagelsEPKw
FNDA:0,_ZN7testing7MessagelsEPw
FNDA:0,_ZN7testing7MessagelsERKNSt7__cxx1112basic_stringIwSt11char_traitsIwESaIwEEE
FNDA:2810,_ZNK7testing7Message9GetStringB5cxx11Ev
FNDA:0,_ZN7testing8internal13edit_distance21CalculateOptimalEditsERKSt6vectorImSaImEES6_
FNDA:0,_ZN7testing8internal13edit_distance12_GLOBAL__N_115InternalStrings5GetIdERKNSt7__cxx1112basic_stringIcSt11char_traitsIcESaIcEEE
FNDA:0,_ZN7testing8internal13edit_distance21CalculateOptimalEditsERKSt6vectorINSt7__cxx1112basic_stringIcSt11char_traitsIcESaIcEEESaIS8_EESC_
FNDA:0,_ZN7testing8internal13edit_distance12_GLOBAL__N_14Hunk8PushLineEcPKc
FNDA:0,_ZN7testing8internal13edit_distance12_GLOBAL__N_14Hunk7PrintToEPSo
FNDA:0,_ZN7testing8internal13edit_distance12_GLOBAL__N_14Hunk10FlushEditsEv
FNDA:0,_ZNK7testing8internal13edit_distance12_GLOBAL__N_14Hunk11PrintHeaderEPSo
FNDA:0,_ZN7testing8internal13edit_distance17CreateUnifiedDiffERKSt6vectorINSt7__cxx1112basic_stringIcSt11char_traitsIcESaIcEEESaIS8_EESC_m
FNDA:0,_ZN7testing8internal12_GLOBAL__N_118SplitEscapedStringERKNSt7__cxx1112basic_stringIcSt11char_traitsIcESaIcEEE
FNDA:0,_ZN7testing8internal9EqFailureEPKcS2_RKNSt7__cxx1112basic_stringIcSt11char_traitsIcESaIcEEESA_b
FNDA:0,_ZN7testing8internal30GetBoolAssertionFailureMessageB5cxx11ERKNS_15AssertionResultEPKcS5_S5_
FNDA:578,_ZN7testing8internal20DoubleNearPredFormatEPKcS2_S2_ddd
FNDA:0,_ZN7testing8internal15FloatingPointLEIdEENS_15AssertionResultEPKcS4_T_S5_
FNDA:0,_ZN7testing8internal15FloatingPointLEIfEENS_15AssertionResultEPKcS4_T_S5_
FNDA:0,_ZN7testing7FloatLEEPKcS1_ff
FNDA:0,_ZN7testing8DoubleLEEPKcS1_dd
FNDA:0,_ZN7testing8internal14CmpHelperSTREQEPKcS2_S2_S2_
FNDA:0,_ZN7testing8internal18CmpHelperSTRCASEEQEPKcS2_S2_S2_
FNDA:0,_ZN7testing8internal14CmpHelperSTRNEEPKcS2_S2_S2_
FNDA:0,_ZN7testing8internal18CmpHelperSTRCASENEEPKcS2_S2_S2_
FNDA:0,_ZN7testing12_GLOBAL__N_115IsSubstringImplINSt7__cxx1112basic_stringIcSt11char_traitsIcESaIcEEEEENS_15AssertionResultEbPKcSA_RKT_SD_
FNDA:0,_ZN7testing12_GLOBAL__N_115IsSubstringImplINSt7__cxx1112basic_stringIwSt11char_traitsIwESaIwEEEEENS_15AssertionResultEbPKcSA_RKT_SD_
FNDA:0,_ZN7testing12_GLOBAL__N_115IsSubstringImplIPKcEENS_15AssertionResultEbS3_S3_RKT_S7_
FNDA:0,_ZN7testing12_GLOBAL__N_115IsSubstringImplIPKwEENS_15AssertionResultEbPKcS6_RKT_S9_
FNDA:0,_ZN7testing11IsSubstringEPKcS1_S1_S1_
FNDA:0,_ZN7testing11IsSubstringEPKcS1_PKwS3_
FNDA:0,_ZN7testing14IsNotSubstringEPKcS1_S1_S1_
FNDA:0,_ZN7testing14IsNotSubstringEPKcS1_PKwS3_
FNDA:0,_ZN7testing11IsSubstringEPKcS1_RKNSt7__cxx1112basic_stringIcSt11char_traitsIcESaIcEEES9_
FNDA:0,_ZN7testing14IsNotSubstringEPKcS1_RKNSt7__cxx1112basic_stringIcSt11char_traitsIcESaIcEEES9_
FNDA:0,_ZN7testing11IsSubstringEPKcS1_RKNSt7__cxx1112basic_stringIwSt11char_traitsIwESaIwEEES9_
FNDA:0,_ZN7testing14IsNotSubstringEPKcS1_RKNSt7__cxx1112basic_stringIwSt11char_traitsIwESaIwEEES9_
FNDA:0,_ZN7testing8internal15CodePointToUtf8B5cxx11Ej
FNDA:0,_ZN7testing8internal16WideStringToUtf8B5cxx11EPKwi
FNDA:0,_ZN7testing8internal6String15ShowWideCStringB5cxx11EPKw
FNDA:0,_ZN7testing8internal6String17WideCStringEqualsEPKwS3_
FNDA:0,_ZN7testing8internal14CmpHelperSTREQEPKcS2_PKwS4_
FNDA:0,_ZN7testing8internal14CmpHelperSTRNEEPKcS2_PKwS4_
FNDA:14,_ZN7testing8internal6String28CaseInsensitiveCStringEqualsEPKcS3_
FNDA:0,_ZN7testing8internalL18OpenFileForWritingERKNSt7__cxx1112basic_stringIcSt11char_traitsIcESaIcEEE
FNDA:0,_ZN7testing8internal6String32CaseInsensitiveWideCStringEqualsEPKwS3_
FNDA:0,_ZN7testing8internal6String23EndsWithCaseInsensitiveERKNSt7__cxx1112basic_stringIcSt11char_traitsIcESaIcEEES9_
FNDA:0,_ZN7testing8internal6String15FormatIntWidth2B5cxx11Ei
FNDA:0,_ZN7testing8internal6String15FormatIntWidthNB5cxx11Eii
FNDA:0,_ZN7testing8internal6String15FormatHexUInt32B5cxx11Ej
FNDA:0,_ZN7testing8internal6String12FormatHexIntB5cxx11Ei
FNDA:0,_ZN7testing8internal6String10FormatByteB5cxx11Eh
FNDA:2810,_ZN7testing8internal20StringStreamToStringEPNSt7__cxx1118basic_stringstreamIcSt11char_traitsIcESaIcEEE
FNDA:0,_ZN7testing8internal17AppendUserMessageERKNSt7__cxx1112basic_stringIcSt11char_traitsIcESaIcEEERKNS_7MessageE
FNDA:6036,_ZN7testing10TestResultC2Ev
FNDA:6036,_ZN7testing10TestResultD2Ev
FNDA:72,_ZNK7testing10TestResult17GetTestPartResultEi
FNDA:0,_ZNK7testing10TestResult15GetTestPropertyEi
FNDA:0,_ZN7testing10TestResult20ClearTestPartResultsEv
FNDA:6,_ZN7testing10TestResult17AddTestPartResultERKNS_14TestPartResultE
FNDA:0,_ZN7testing10TestResult14RecordPropertyERKNSt7__cxx1112basic_stringIcSt11char_traitsIcESaIcEEERKNS_12TestPropertyE
FNDA:0,_ZN7testingL31GetReservedAttributesForElementERKNSt7__cxx1112basic_stringIcSt11char_traitsIcESaIcEEE
FNDA:0,_ZN7testingL37GetReservedOutputAttributesForElementERKNSt7__cxx1112basic_stringIcSt11char_traitsIcESaIcEEE
FNDA:0,_ZN7testingL14FormatWordListERKSt6vectorINSt7__cxx1112basic_stringIcSt11char_traitsIcESaIcEEESaIS6_EE
FNDA:0,_ZN7testingL24ValidateTestPropertyNameERKNSt7__cxx1112basic_stringIcSt11char_traitsIcESaIcEEERKSt6vectorIS5_SaIS5_EE
FNDA:0,_ZN7testing10TestResult20ValidateTestPropertyERKNSt7__cxx1112basic_stringIcSt11char_traitsIcESaIcEEERKNS_12TestPropertyE
FNDA:6022,_ZN7testing10TestResult5ClearEv
FNDA:0,_ZN7testingL15TestPartSkippedERKNS_14TestPartResultE
FNDA:9617,_ZNK7testing10TestResult7SkippedEv
FNDA:19345,_ZNK7testing10TestResult6FailedEv
FNDA:0,_ZN7testingL21TestPartFatallyFailedERKNS_14TestPartResultE
FNDA:3833,_ZNK7testing10TestResult15HasFatalFailureEv
FNDA:0,_ZN7testingL24TestPartNonfatallyFailedERKNS_14TestPartResultE
FNDA:14,_ZN7testingL18GetDefaultFailFastEv
FNDA:0,_ZNK7testing10TestResult18HasNonfatalFailureEv
FNDA:19417,_ZNK7testing10TestResult16total_part_countEv
FNDA:0,_ZNK7testing10TestResult19test_property_countEv
FNDA:1910,_ZN7testing4TestC2Ev
FNDA:0,_ZN7testing4TestD0Ev
FNDA:1910,_ZN7testing4TestD2Ev
FNDA:1910,_ZN7testing4Test5SetUpEv
FNDA:1910,_ZN7testing4Test8TearDownEv
FNDA:0,_ZN7testing4Test14RecordPropertyERKNSt7__cxx1112basic_stringIcSt11char_traitsIcESaIcEEES8_
FNDA:6,_ZN7testing8internal30ReportFailureInUnknownLocationENS_14TestPartResult4TypeERKNSt7__cxx1112basic_stringIcSt11char_traitsIcESaIcEEE
FNDA:1910,_ZN7testing4Test19HasSameFixtureClassEv
FNDA:6,_ZN7testing8internalL25FormatCxxExceptionMessageEPKcS2_
FNDA:0,_ZN7testing8internal26GoogleTestFailureExceptionC2ERKNS_14TestPartResultE
FNDA:14,_ZN7testing8internal35HandleExceptionsInMethodIfSupportedINS0_12UnitTestImplEbEET0_PT_MS4_FS3_vEPKc
FNDA:1910,_ZN7testing8internal35HandleExceptionsInMethodIfSupportedINS0_15TestFactoryBaseEPNS_4TestEEET0_PT_MS6_FS5_vEPKc
FNDA:7640,_ZN7testing8internal35HandleExceptionsInMethodIfSupportedINS_4TestEvEET0_PT_MS4_FS3_vEPKc
FNDA:96,_ZN7testing8internal35HandleExceptionsInMethodIfSupportedINS_9TestSuiteEvEET0_PT_MS4_FS3_vEPKc
FNDA:1910,_ZN7testing4Test3RunEv
FNDA:3833,_ZN7testing4Test15HasFatalFailureEv
FNDA:0,_ZN7testing4Test18HasNonfatalFailureEv
FNDA:3833,_ZN7testing4Test9IsSkippedEv
FNDA:5896,_ZN7testing8TestInfoC2ENSt7__cxx1112basic_stringIcSt11char_traitsIcESaIcEEES6_PKcS8_NS_8internal12CodeLocationEPKvPNS9_15TestFactoryBaseE
FNDA:5896,_ZN7testing8TestInfoD2Ev
FNDA:5896,_ZN7testing8internal23MakeAndRegisterTestInfoENSt7__cxx1112basic_stringIcSt11char_traitsIcESaIcEEEPKcS8_S8_NS0_12CodeLocationEPKvPFvvESD_PNS0_15TestFactoryBaseE
FNDA:0,_ZN7testing8internal26ReportInvalidTestSuiteTypeEPKcRKNS0_12CodeLocationE
FNDA:14,_ZN7testing8internal12UnitTestImpl26RegisterParameterizedTestsEv
FNDA:2288,_ZN7testing8TestInfo3RunEv
FNDA:0,_ZN7testing8TestInfo4SkipEv
FNDA:126,_ZNK7testing9TestSuite21successful_test_countEv
FNDA:126,_ZNK7testing9TestSuite18skipped_test_countEv
FNDA:136,_ZNK7testing9TestSuite17failed_test_countEv
FNDA:126,_ZNK7testing9TestSuite30reportable_disabled_test_countEv
FNDA:0,_ZNK7testing9TestSuite19disabled_test_countEv
FNDA:0,_ZNK7testing9TestSuite21reportable_test_countEv
FNDA:348,_ZNK7testing9TestSuite17test_to_run_countEv
FNDA:2796,_ZNK7testing9TestSuite16total_test_countEv
FNDA:126,_ZN7testing9TestSuiteC2ERKNSt7__cxx1112basic_stringIcSt11char_traitsIcESaIcEEEPKcPFvvESC_
FNDA:126,_ZN7testing9TestSuiteD0Ev
FNDA:126,_ZN7testing9TestSuiteD2Ev
FNDA:204,_ZNK7testing9TestSuite11GetTestInfoEi
FNDA:2288,_ZN7testing9TestSuite18GetMutableTestInfoEi
FNDA:5896,_ZN7testing9TestSuite11AddTestInfoEPNS_8TestInfoE
FNDA:117,_ZN7testing9TestSuite3RunEv
FNDA:0,_ZN7testing9TestSuite4SkipEv
FNDA:126,_ZN7testing9TestSuite11ClearResultEv
FNDA:0,_ZN7testing9TestSuite12ShuffleTestsEPNS_8internal6RandomE
FNDA:126,_ZN7testing9TestSuite14UnshuffleTestsEv
FNDA:170,_ZN7testingL19FormatCountableNounEiPKcS1_
FNDA:6,_ZN7testing8internalL27PrintTestPartResultToStringERKNS_14TestPartResultE
FNDA:6,_ZN7testing8internalL19PrintTestPartResultERKNS_14TestPartResultE
FNDA:14,_ZN7testing8internal14ShouldUseColorEb
FNDA:4005,_ZN7testing8internalL13ColoredPrintfENS0_12_GLOBAL__N_110GTestColorEPKcz
FNDA:12,_ZN7testing8internalL29PrintFullTestCommentIfPresentERKNS_8TestInfoE
FNDA:14,_ZN7testing8internal27PrettyUnitTestResultPrinter18OnTestProgramStartERKNS_8UnitTestE
FNDA:13,_ZN7testing8internal27PrettyUnitTestResultPrinter22OnEnvironmentsSetUpEndERKNS_8UnitTestE
FNDA:13,_ZN7testing8internal27PrettyUnitTestResultPrinter25OnEnvironmentsTearDownEndERKNS_8UnitTestE
FNDA:14,_ZN7testing8internal27PrettyUnitTestResultPrinter16OnTestProgramEndERKNS_8UnitTestE
FNDA:14,_ZN7testing8internal27PrettyUnitTestResultPrinter20OnTestIterationStartERKNS_8UnitTestEi
FNDA:13,_ZN7testing8internal27PrettyUnitTestResultPrinter24OnEnvironmentsSetUpStartERKNS_8UnitTestE
FNDA:48,_ZN7testing8internal27PrettyUnitTestResultPrinter15OnTestCaseStartERKNS_9TestSuiteE
FNDA:1910,_ZN7testing8internal27PrettyUnitTestResultPrinter11OnTestStartERKNS_8TestInfoE
FNDA:0,_ZN7testing8internal27PrettyUnitTestResultPrinter14OnTestDisabledERKNS_8TestInfoE
FNDA:6,_ZN7testing8internal27PrettyUnitTestResultPrinter16OnTestPartResultERKNS_14TestPartResultE
FNDA:1910,_ZN7testing8internal27PrettyUnitTestResultPrinter9OnTestEndERKNS_8TestInfoE
FNDA:48,_ZN7testing8internal27PrettyUnitTestResultPrinter13OnTestCaseEndERKNS_9TestSuiteE
FNDA:13,_ZN7testing8internal27PrettyUnitTestResultPrinter27OnEnvironmentsTearDownStartERKNS_8UnitTestE
FNDA:4,_ZN7testing8internal27PrettyUnitTestResultPrinter16PrintFailedTestsERKNS_8UnitTestE
FNDA:4,_ZN7testing8internal27PrettyUnitTestResultPrinter21PrintFailedTestSuitesERKNS_8UnitTestE
FNDA:0,_ZN7testing8internal27PrettyUnitTestResultPrinter17PrintSkippedTestsERKNS_8UnitTestE
FNDA:14,_ZN7testing8internal27PrettyUnitTestResultPrinter18OnTestIterationEndERKNS_8UnitTestEi
FNDA:0,_ZN7testing8internal26BriefUnitTestResultPrinter18OnTestProgramStartERKNS_8UnitTestE
FNDA:0,_ZN7testing8internal26BriefUnitTestResultPrinter20OnTestIterationStartERKNS_8UnitTestEi
FNDA:0,_ZN7testing8internal26BriefUnitTestResultPrinter24OnEnvironmentsSetUpStartERKNS_8UnitTestE
FNDA:0,_ZN7testing8internal26BriefUnitTestResultPrinter22OnEnvironmentsSetUpEndERKNS_8UnitTestE
FNDA:0,_ZN7testing8internal26BriefUnitTestResultPrinter15OnTestCaseStartERKNS_9TestSuiteE
FNDA:0,_ZN7testing8internal26BriefUnitTestResultPrinter11OnTestStartERKNS_8TestInfoE
FNDA:0,_ZN7testing8internal26BriefUnitTestResultPrinter14OnTestDisabledERKNS_8TestInfoE
FNDA:0,_ZN7testing8internal26BriefUnitTestResultPrinter13OnTestCaseEndERKNS_9TestSuiteE
FNDA:0,_ZN7testing8internal26BriefUnitTestResultPrinter27OnEnvironmentsTearDownStartERKNS_8UnitTestE
FNDA:0,_ZN7testing8internal26BriefUnitTestResultPrinter25OnEnvironmentsTearDownEndERKNS_8UnitTestE
FNDA:0,_ZN7testing8internal26BriefUnitTestResultPrinter16OnTestProgramEndERKNS_8UnitTestE
FNDA:0,_ZN7testing8internal26BriefUnitTestResultPrinter16OnTestPartResultERKNS_14TestPartResultE
FNDA:0,_ZN7testing8internal26BriefUnitTestResultPrinter9OnTestEndERKNS_8TestInfoE
FNDA:0,_ZN7testing8internal26BriefUnitTestResultPrinter18OnTestIterationEndERKNS_8UnitTestEi
FNDA:14,_ZN7testing8internal17TestEventRepeaterD0Ev
FNDA:14,_ZN7testing8internal17TestEventRepeaterD2Ev
FNDA:14,_ZN7testing8internal17TestEventRepeater6AppendEPNS_17TestEventListenerE
FNDA:14,_ZN7testing8internal17TestEventRepeater7ReleaseEPNS_17TestEventListenerE
FNDA:14,_ZN7testing8internal17TestEventRepeater18OnTestProgramStartERKNS_8UnitTestE
FNDA:13,_ZN7testing8internal17TestEventRepeater24OnEnvironmentsSetUpStartERKNS_8UnitTestE
FNDA:48,_ZN7testing8internal17TestEventRepeater15OnTestCaseStartERKNS_9TestSuiteE
FNDA:48,_ZN7testing8internal17TestEventRepeater16OnTestSuiteStartERKNS_9TestSuiteE
FNDA:1910,_ZN7testing8internal17TestEventRepeater11OnTestStartERKNS_8TestInfoE
FNDA:0,_ZN7testing8internal17TestEventRepeater14OnTestDisabledERKNS_8TestInfoE
FNDA:6,_ZN7testing8internal17TestEventRepeater16OnTestPartResultERKNS_14TestPartResultE
FNDA:13,_ZN7testing8internal17TestEventRepeater27OnEnvironmentsTearDownStartERKNS_8UnitTestE
FNDA:13,_ZN7testing8internal17TestEventRepeater22OnEnvironmentsSetUpEndERKNS_8UnitTestE
FNDA:13,_ZN7testing8internal17TestEventRepeater25OnEnvironmentsTearDownEndERKNS_8UnitTestE
FNDA:1910,_ZN7testing8internal17TestEventRepeater9OnTestEndERKNS_8TestInfoE
FNDA:48,_ZN7testing8internal17TestEventRepeater13OnTestCaseEndERKNS_9TestSuiteE
FNDA:48,_ZN7testing8internal17TestEventRepeater14OnTestSuiteEndERKNS_9TestSuiteE
FNDA:14,_ZN7testing8internal17TestEventRepeater16OnTestProgramEndERKNS_8UnitTestE
FNDA:14,_ZN7testing8internal17TestEventRepeater20OnTestIterationStartERKNS_8UnitTestEi
FNDA:14,_ZN7testing8internal17TestEventRepeater18OnTestIterationEndERKNS_8UnitTestEi
FNDA:0,_ZN7testing8internal24XmlUnitTestResultPrinterC2EPKc
FNDA:0,_ZN7testing8internal24XmlUnitTestResultPrinter18OnTestIterationEndERKNS_8UnitTestEi
FNDA:0,_ZN7testing8internal24XmlUnitTestResultPrinter23ListTestsMatchingFilterERKSt6vectorIPNS_9TestSuiteESaIS4_EE
FNDA:0,_ZN7testing8internal24XmlUnitTestResultPrinter9EscapeXmlERKNSt7__cxx1112basic_stringIcSt11char_traitsIcESaIcEEEb
FNDA:0,_ZN7testing8internal24XmlUnitTestResultPrinter26RemoveInvalidXmlCharactersERKNSt7__cxx1112basic_stringIcSt11char_traitsIcESaIcEEE
FNDA:0,_ZN7testing8internal27FormatTimeInMillisAsSecondsB5cxx11El
FNDA:0,_ZN7testing8internal6Random8GenerateEj
FNDA:0,_ZN7testing8internal32FormatEpochTimeInMillisAsIso8601B5cxx11El
FNDA:0,_ZN7testing8internal24XmlUnitTestResultPrinter21OutputXmlCDataSectionEPSoPKc
FNDA:0,_ZN7testing8internal24XmlUnitTestResultPrinter18OutputXmlAttributeEPSoRKNSt7__cxx1112basic_stringIcSt11char_traitsIcESaIcEEESA_SA_
FNDA:0,_ZN7testing8internal24XmlUnitTestResultPrinter31OutputXmlTestSuiteForTestResultEPSoRKNS_10TestResultE
FNDA:0,_ZN7testing8internal24XmlUnitTestResultPrinter30OutputXmlTestCaseForTestResultEPSoRKNS_10TestResultE
FNDA:0,_ZN7testing8internal24XmlUnitTestResultPrinter17OutputXmlTestInfoEPSoPKcRKNS_8TestInfoE
FNDA:0,_ZN7testing8internal24XmlUnitTestResultPrinter19OutputXmlTestResultEPSoRKNS_10TestResultE
FNDA:28,_ZN7testing8internalL18GTestIsInitializedEv
FNDA:0,_ZN7testing8internal24XmlUnitTestResultPrinter17PrintXmlTestSuiteEPSoRKNS_9TestSuiteE
FNDA:102,_ZN7testing8internalL20SumOverTestSuiteListERKSt6vectorIPNS_9TestSuiteESaIS3_EEMS2_KFivE
FNDA:0,_ZN7testing8internal24XmlUnitTestResultPrinter16PrintXmlUnitTestEPSoRKNS_8UnitTestE
FNDA:0,_ZN7testing8internal24XmlUnitTestResultPrinter17PrintXmlTestsListEPSoRKSt6vectorIPNS_9TestSuiteESaIS5_EE
FNDA:0,_ZN7testing8internal24XmlUnitTestResultPrinter23OutputXmlTestPropertiesEPSoRKNS_10TestResultERKNSt7__cxx1112basic_stringIcSt11char_traitsIcESaIcEEE
FNDA:0,_ZN7testing8internalL15TestSuitePassedEPKNS_9TestSuiteE
FNDA:252,_ZN7testing8internalL15TestSuiteFailedEPKNS_9TestSuiteE
FNDA:0,_ZN7testing8internal25JsonUnitTestResultPrinterC2EPKc
FNDA:0,_ZN7testing8internal25JsonUnitTestResultPrinter18OnTestIterationEndERKNS_8UnitTestEi
FNDA:0,_ZN7testing8internal25JsonUnitTestResultPrinter10EscapeJsonERKNSt7__cxx1112basic_stringIcSt11char_traitsIcESaIcEEE
FNDA:252,_ZN7testing8internalL18ShouldRunTestSuiteEPKNS_9TestSuiteE
FNDA:0,_ZN7testing8internalL28FormatTimeInMillisAsDurationEl
FNDA:0,_ZN7testing8internalL32FormatEpochTimeInMillisAsRFC3339El
FNDA:0,_ZN7testing8internal25JsonUnitTestResultPrinter13OutputJsonKeyEPSoRKNSt7__cxx1112basic_stringIcSt11char_traitsIcESaIcEEESA_SA_SA_b
FNDA:0,_ZN7testing8internal25JsonUnitTestResultPrinter13OutputJsonKeyEPSoRKNSt7__cxx1112basic_stringIcSt11char_traitsIcESaIcEEESA_iSA_b
FNDA:0,_ZN7testing8internal25JsonUnitTestResultPrinter32OutputJsonTestSuiteForTestResultEPSoRKNS_10TestResultE
FNDA:0,_ZN7testing8internal25JsonUnitTestResultPrinter31OutputJsonTestCaseForTestResultEPSoRKNS_10TestResultE
FNDA:0,_ZN7testing8internal25JsonUnitTestResultPrinter18OutputJsonTestInfoEPSoPKcRKNS_8TestInfoE
FNDA:0,_ZN7testing8internal25JsonUnitTestResultPrinter20OutputJsonTestResultEPSoRKNS_10TestResultE
FNDA:0,_ZN7testing8internal12AssertHelperC2ENS_14TestPartResult4TypeEPKciS5_
FNDA:0,_ZN7testing8internal12AssertHelperD2Ev
FNDA:0,_ZN7testing8internal25JsonUnitTestResultPrinter18PrintJsonTestSuiteEPSoRKNS_9TestSuiteE
FNDA:0,_ZNK7testing8internal12AssertHelperaSERKNS_7MessageE
FNDA:0,_ZN7testing8internal25JsonUnitTestResultPrinter17PrintJsonUnitTestEPSoRKNS_8UnitTestE
FNDA:0,_ZN7testing8internal25JsonUnitTestResultPrinter17PrintJsonTestListEPSoRKSt6vectorIPNS_9TestSuiteESaIS5_EE
FNDA:0,_ZN7testing8internal25JsonUnitTestResultPrinter20TestPropertiesAsJsonERKNS_10TestResultERKNSt7__cxx1112basic_stringIcSt11char_traitsIcESaIcEEE
FNDA:0,_ZN7testing8internal17StreamingListener9UrlEncodeB5cxx11EPKc
FNDA:0,_ZN7testing8internal17StreamingListener12SocketWriter14MakeConnectionEv
FNDA:0,_ZN7testing8internal18OsStackTraceGetter17CurrentStackTraceB5cxx11Eii
FNDA:0,_ZN7testing8internal12_GLOBAL__N_111FailureTestC2ERKNS0_12CodeLocationENSt7__cxx1112basic_stringIcSt11char_traitsIcESaIcEEEb
FNDA:9646,_ZN7testing8internal18OsStackTraceGetter16UponLeavingGTestEv
FNDA:14,_ZN7testing8internal23ScopedPrematureExitFileC2EPKc
FNDA:14,_ZN7testing8internal23ScopedPrematureExitFileD2Ev
FNDA:0,_ZN7testing8internal12_GLOBAL__N_111FailureTest8TestBodyEv
FNDA:14,_ZN7testing18TestEventListenersC2Ev
FNDA:14,_ZN7testing18TestEventListenersD2Ev
FNDA:14,_ZN7testing18TestEventListeners6AppendEPNS_17TestEventListenerE
FNDA:14,_ZN7testing18TestEventListeners7ReleaseEPNS_17TestEventListenerE
FNDA:2356,_ZN7testing18TestEventListeners8repeaterEv
FNDA:14,_ZN7testing18TestEventListeners23SetDefaultResultPrinterEPNS_17TestEventListenerE
FNDA:0,_ZN7testing18TestEventListeners22SetDefaultXmlGeneratorEPNS_17TestEventListenerE
FNDA:0,_ZNK7testing18TestEventListeners22EventForwardingEnabledEv
FNDA:0,_ZN7testing18TestEventListeners23SuppressEventForwardingEb
FNDA:37258,_ZN7testing8UnitTest11GetInstanceEv
FNDA:0,_ZNK7testing8UnitTest27successful_test_suite_countEv
FNDA:0,_ZNK7testing8UnitTest23failed_test_suite_countEv
FNDA:80,_ZNK7testing8UnitTest22total_test_suite_countEv
FNDA:28,_ZNK7testing8UnitTest23test_suite_to_run_countEv
FNDA:0,_ZNK7testing8UnitTest26successful_test_case_countEv
FNDA:0,_ZNK7testing8UnitTest22failed_test_case_countEv
FNDA:0,_ZNK7testing8UnitTest21total_test_case_countEv
FNDA:0,_ZNK7testing8UnitTest22test_case_to_run_countEv
FNDA:14,_ZNK7testing8UnitTest21successful_test_countEv
FNDA:14,_ZNK7testing8UnitTest18skipped_test_countEv
FNDA:4,_ZNK7testing8UnitTest17failed_test_countEv
FNDA:14,_ZNK7testing8UnitTest30reportable_disabled_test_countEv
FNDA:0,_ZNK7testing8UnitTest19disabled_test_countEv
FNDA:0,_ZNK7testing8UnitTest21reportable_test_countEv
FNDA:14,_ZN7testing8internal33GetIgnoredParameterizedTestSuitesB5cxx11Ev
FNDA:0,_ZNK7testing8UnitTest16total_test_countEv
FNDA:28,_ZNK7testing8UnitTest17test_to_run_countEv
FNDA:0,_ZNK7testing8UnitTest15start_timestampEv
FNDA:14,_ZNK7testing8UnitTest12elapsed_timeEv
FNDA:14,_ZNK7testing8UnitTest6PassedEv
FNDA:0,_ZNK7testing8UnitTest6FailedEv
FNDA:72,_ZNK7testing8UnitTest12GetTestSuiteEi
FNDA:0,_ZNK7testing8UnitTest11GetTestCaseEi
FNDA:0,_ZNK7testing8UnitTest18ad_hoc_test_resultEv
FNDA:0,_ZN7testing8UnitTest19GetMutableTestSuiteEi
FNDA:3916,_ZN7testing8UnitTest16UponLeavingGTestEv
FNDA:0,_ZN7testing8internal13MarkAsIgnoredC2EPKc
FNDA:96,_ZN7testing8UnitTest22set_current_test_suiteEPNS_9TestSuiteE
FNDA:3820,_ZN7testing8UnitTest21set_current_test_infoEPNS_8TestInfoE
FNDA:2336,_ZN7testing8UnitTest9listenersEv
FNDA:0,_ZN7testing8UnitTest14AddEnvironmentEPNS_11EnvironmentE
FNDA:6,_ZN7testing8UnitTest17AddTestPartResultENS_14TestPartResult4TypeEPKciRKNSt7__cxx1112basic_stringIcSt11char_traitsIcESaIcEEESC_
FNDA:0,_ZN7testing8internal23InsertSyntheticTestCaseERKNSt7__cxx1112basic_stringIcSt11char_traitsIcESaIcEEENS0_12CodeLocationEb
FNDA:0,_ZN7testing8UnitTest14RecordPropertyERKNSt7__cxx1112basic_stringIcSt11char_traitsIcESaIcEEES8_
FNDA:14,_ZN7testing8UnitTest3RunEv
FNDA:0,_ZNK7testing8UnitTest20original_working_dirEv
FNDA:0,_ZNK7testing8UnitTest18current_test_suiteEv
FNDA:0,_ZNK7testing8UnitTest17current_test_caseEv
FNDA:0,_ZNK7testing8UnitTest17current_test_infoEv
FNDA:0,_ZNK7testing8UnitTest11random_seedEv
FNDA:0,_ZN7testing8UnitTest27parameterized_test_registryEv
FNDA:14,_ZN7testing8UnitTestC2Ev
FNDA:0,_ZN7testing8UnitTestD0Ev
FNDA:14,_ZN7testing8UnitTestD2Ev
FNDA:0,_ZN7testing8UnitTest14PushGTestTraceERKNS_8internal9TraceInfoE
FNDA:0,_ZN7testing8UnitTest13PopGTestTraceEv
FNDA:14,_ZN7testing8internal12UnitTestImplC2EPNS_8UnitTestE
FNDA:14,_ZN7testing8internal12UnitTestImplD0Ev
FNDA:14,_ZN7testing8internal12UnitTestImplD2Ev
FNDA:0,_ZN7testing8internal12UnitTestImpl14RecordPropertyERKNS_12TestPropertyE
FNDA:14,_ZN7testing8internal12UnitTestImpl32SuppressTestEventsIfInSubprocessEv
FNDA:14,_ZN7testing8internal12UnitTestImpl18ConfigureXmlOutputEv
FNDA:14,_ZN7testing8internal12UnitTestImpl24ConfigureStreamingOutputEv
FNDA:28,_ZN7testing8internal12UnitTestImpl19PostFlagParsingInitEv
FNDA:0,_ZZN7testing8internal23InsertSyntheticTestCaseERKNSt7__cxx1112basic_stringIcSt11char_traitsIcESaIcEEENS0_12CodeLocationEbENKUlvE_clEv
FNDA:5896,_ZN7testing8internal12UnitTestImpl12GetTestSuiteERKNSt7__cxx1112basic_stringIcSt11char_traitsIcESaIcEEEPKcPFvvESD_
FNDA:0,_ZN7testing8internalL16SetUpEnvironmentEPNS_11EnvironmentE
FNDA:0,_ZN7testing8internalL19TearDownEnvironmentEPNS_11EnvironmentE
FNDA:1,_ZN7testing8internalL30AppendToTestWarningsOutputFileERKNSt7__cxx1112basic_stringIcSt11char_traitsIcESaIcEEE
FNDA:0,_ZN7testing8internal34RegisterTypeParameterizedTestSuiteEPKcNS0_12CodeLocationE
FNDA:14,_ZN7testing8internal12UnitTestImpl11RunAllTestsEv
FNDA:0,_ZN7testing8internal47RegisterTypeParameterizedTestSuiteInstantiationEPKc
FNDA:0,_ZN7testing8internal34TypeParameterizedTestSuiteRegistry17RegisterTestSuiteEPKcNS0_12CodeLocationE
FNDA:0,_ZN7testing8internal34TypeParameterizedTestSuiteRegistry21RegisterInstantiationEPKc
FNDA:14,_ZN7testing8internal30WriteToShardStatusFileIfNeededEv
FNDA:28,_ZN7testing8internal11ShouldShardEPKcS2_b
FNDA:14,_ZN7testing8internal34TypeParameterizedTestSuiteRegistry22CheckForInstantiationsEv
FNDA:56,_ZN7testing8internal17Int32FromEnvOrDieEPKci
FNDA:0,_ZN7testing8internal20ShouldRunTestOnShardEiii
FNDA:14,_ZN7testing8internal12UnitTestImpl11FilterTestsENS1_18ReactionToShardingE
FNDA:14,_ZNK7testing8internal12UnitTestImpl30ShouldWarnIfNoTestsMatchFilterEv
FNDA:0,_ZN7testing8internalL14PrintOnOneLineEPKci
FNDA:0,_ZN7testing8internal12UnitTestImpl23ListTestsMatchingFilterEv
FNDA:0,_ZN7testing8internal12UnitTestImpl25set_os_stack_trace_getterEPNS0_27OsStackTraceGetterInterfaceE
FNDA:9646,_ZN7testing8internal12UnitTestImpl21os_stack_trace_getterEv
FNDA:7672,_ZN7testing8internal12UnitTestImpl19current_test_resultEv
FNDA:0,_ZN7testing8internal12UnitTestImpl12ShuffleTestsEv
FNDA:14,_ZN7testing8internal12UnitTestImpl14UnshuffleTestsEv
FNDA:0,_ZN7testing8internal31GetCurrentOsStackTraceExceptTopB5cxx11Ei
FNDA:0,_ZZN7testing8internal34TypeParameterizedTestSuiteRegistry22CheckForInstantiationsEvENKUlvE_clEv
FNDA:12582,_ZN7testing8internal6IsTrueEb
FNDA:772,_ZN7testing8internal10AlwaysTrueEv
FNDA:0,_ZN7testing8internal10SkipPrefixEPKcPS2_
FNDA:90,_ZN7testing8internalL14ParseFlagValueEPKcS2_b
FNDA:60,_ZN7testing8internalL9ParseFlagEPKcS2_Pb
FNDA:0,_ZN7testing8internal9ParseFlagEPKcS2_Pi
FNDA:28,_ZN7testing8internal8GetArgvsB5cxx11Ev
FNDA:30,_ZN7testing8internalL9ParseFlagINSt7__cxx1112basic_stringIcSt11char_traitsIcESaIcEEEEEbPKcS9_PT_
FNDA:0,_ZN7testing8internalL23HasGoogleTestFlagPrefixEPKc
FNDA:0,_ZN7testing8internalL17PrintColorEncodedEPKc
FNDA:0,_ZN7testing8internal24GetCurrentExecutableNameEv
FNDA:10,_ZN7testing8internalL19ParseGoogleTestFlagEPKc
FNDA:0,_ZN7testing8internalL17LoadFlagsFromFileERKNSt7__cxx1112basic_stringIcSt11char_traitsIcESaIcEEE
FNDA:14,_ZN7testing8internal28ParseGoogleTestFlagsOnlyImplIcEEvPiPPT_
FNDA:0,_ZN7testing8internal28ParseGoogleTestFlagsOnlyImplIwEEvPiPPT_
FNDA:14,_ZN7testing8internal24ParseGoogleTestFlagsOnlyEPiPPc
FNDA:14,_ZN7testing8internal15UnitTestOptions15GetOutputFormatB5cxx11Ev
FNDA:0,_ZN7testing8internal24ParseGoogleTestFlagsOnlyEPiPPw
FNDA:14,_ZN7testing8internal18InitGoogleTestImplIcEEvPiPPT_
FNDA:0,_ZN7testing8internal18InitGoogleTestImplIwEEvPiPPT_
FNDA:14,_ZN7testing14InitGoogleTestEPiPPc
FNDA:0,_ZN7testing14InitGoogleTestEPiPPw
FNDA:0,_ZN7testing14InitGoogleTestEv
FNDA:0,_ZN7testingL13GetDirFromEnvESt16initializer_listIPKcES2_c
FNDA:0,_ZN7testing7TempDirB5cxx11Ev
FNDA:0,_ZN7testing8internal15UnitTestOptions27GetAbsolutePathToOutputFileB5cxx11Ev
FNDA:0,_ZN7testingL29GetCurrentExecutableDirectoryEv
FNDA:0,_ZN7testing6SrcDirB5cxx11Ev
FNDA:0,_ZN7testing11ScopedTrace9PushTraceEPKciNSt7__cxx1112basic_stringIcSt11char_traitsIcESaIcEEE
FNDA:0,_ZN7testing11ScopedTraceD2Ev
FNDA:27532,_ZN7testing8internalL20PatternMatchesStringERKNSt7__cxx1112basic_stringIcSt11char_traitsIcESaIcEEEPKcSA_
FNDA:314,_ZN7testing8internal12_GLOBAL__N_113IsGlobPatternERKNSt7__cxx1112basic_stringIcSt11char_traitsIcESaIcEEE
FNDA:168,_ZN7testing8internal12_GLOBAL__N_114UnitTestFilterC2ERKNSt7__cxx1112basic_stringIcSt11char_traitsIcESaIcEEE
FNDA:21295,_ZNK7testing8internal12_GLOBAL__N_114UnitTestFilter11MatchesNameERKNSt7__cxx1112basic_stringIcSt11char_traitsIcESaIcEEE
FNDA:28,_ZN7testing8internal12_GLOBAL__N_133PositiveAndNegativeUnitTestFilterC2ERKNSt7__cxx1112basic_stringIcSt11char_traitsIcESaIcEEE
FNDA:7454,_ZNK7testing8internal12_GLOBAL__N_133PositiveAndNegativeUnitTestFilter11MatchesTestERKNSt7__cxx1112basic_stringIcSt11char_traitsIcESaIcEEESA_
FNDA:7454,_ZNK7testing8internal12_GLOBAL__N_133PositiveAndNegativeUnitTestFilter11MatchesNameERKNSt7__cxx1112basic_stringIcSt11char_traitsIcESaIcEEE
FNDA:0,_ZN7testing8internal15UnitTestOptions13MatchesFilterERKNSt7__cxx1112basic_stringIcSt11char_traitsIcESaIcEEEPKc
FNDA:0,_ZN7testing8internal15UnitTestOptions17FilterMatchesTestERKNSt7__cxx1112basic_stringIcSt11char_traitsIcESaIcEEES9_
FNDA:0,_ZN7testing32ScopedFakeTestPartResultReporterC2EPNS_19TestPartResultArrayE
FNDA:0,_ZN7testing32ScopedFakeTestPartResultReporterC2ENS0_13InterceptModeEPNS_19TestPartResultArrayE
FNDA:0,_ZN7testing32ScopedFakeTestPartResultReporter4InitEv
FNDA:0,_ZN7testing32ScopedFakeTestPartResultReporterD0Ev
FNDA:0,_ZN7testing32ScopedFakeTestPartResultReporterD2Ev
FNDA:0,_ZN7testing32ScopedFakeTestPartResultReporter20ReportTestPartResultERKNS_14TestPartResultE
FNDA:5910,_ZN7testing8internal13GetTestTypeIdEv
FNF:391
FNH:179
DA:219,0
DA:220,0
DA:221,0
DA:222,0
DA:224,0
DA:225,0
DA:227,0
DA:228,0
DA:230,0
DA:231,0
DA:249,14
DA:250,14
DA:251,14
DA:252,14
DA:253,0
DA:416,0
DA:419,0
DA:421,0
DA:422,0
DA:423,0
DA:424,0
DA:429,0
DA:435,28
DA:440,102
DA:442,102
DA:443,1020
DA:444,918
DA:446,102
DA:450,0
DA:451,0
DA:455,252
DA:456,252
DA:461,252
DA:462,252
DA:469,0
DA:473,0
DA:479,0
DA:480,0
DA:481,0
DA:483,0
DA:486,0
DA:487,0
DA:488,0
DA:489,0
DA:490,0
DA:491,0
DA:492,0
DA:495,0
DA:510,0
DA:512,0
DA:513,0
DA:514,0
DA:516,0
DA:517,0
DA:518,0
DA:519,0
DA:521,0
DA:523,0
DA:533,14
DA:534,14
DA:538,0
DA:539,0
DA:540,0
DA:544,0
DA:546,0
DA:547,0
DA:549,0
DA:559,0
DA:568,0
DA:569,0
DA:570,0
DA:575,0
DA:576,0
DA:578,0
DA:579,0
DA:583,0
DA:584,0
DA:585,0
DA:587,0
DA:589,0
DA:591,0
DA:593,0
DA:595,0
DA:596,0
DA:598,0
DA:600,0
DA:602,0
DA:603,0
DA:604,0
DA:606,0
DA:608,0
DA:609,0
DA:610,0
DA:612,0
DA:613,0
DA:615,0
DA:617,14
DA:618,14
DA:619,14
DA:620,0
DA:621,0
DA:623,0
DA:624,0
DA:638,0
DA:639,0
DA:641,0
DA:642,0
DA:643,0
DA:648,0
DA:649,0
DA:650,0
DA:652,0
DA:653,14
DA:658,28
DA:665,28
DA:672,0
DA:673,0
DA:675,0
DA:676,0
DA:680,0
DA:684,0
DA:685,0
DA:691,14
DA:692,14
DA:693,14
DA:694,14
DA:695,14
DA:696,14
DA:698,14
DA:699,14
DA:704,0
DA:705,0
DA:706,0
DA:708,0
DA:709,0
DA:711,0
DA:712,0
DA:713,0
DA:714,0
DA:715,0
DA:716,0
DA:717,0
DA:719,0
DA:720,0
DA:721,0
DA:722,0
DA:723,0
DA:725,0
DA:727,0
DA:728,0
DA:729,0
DA:730,0
DA:731,0
DA:740,27532
DA:742,27532
DA:743,27532
DA:744,27532
DA:746,27532
DA:747,27532
DA:749,466797
DA:750,464888
DA:751,413199
DA:752,187711
DA:753,187711
DA:754,2242
DA:755,2242
DA:756,2242
DA:759,0
DA:760,0
DA:761,0
DA:762,0
DA:763,0
DA:766,225488
DA:770,225488
DA:771,225488
DA:772,225488
DA:773,225488
DA:777,237158
DA:778,211535
DA:779,211535
DA:780,211535
DA:789,314
DA:790,314
DA:791,480
DA:794,196
DA:796,28
DA:799,168
DA:801,168
DA:802,168
DA:803,168
DA:806,168
DA:807,168
DA:808,168
DA:809,168
DA:810,168
DA:812,168
DA:813,168
DA:817,21295
DA:818,21295
DA:819,21281
DA:820,27532
DA:821,26507
DA:823,26507
DA:824,21295
DA:839,28
DA:840,28
DA:843,28
DA:844,28
DA:846,28
DA:847,0
DA:848,0
DA:853,0
DA:854,0
DA:855,0
DA:856,0
DA:857,0
DA:858,0
DA:862,84
DA:864,28
DA:869,7454
DA:871,14908
DA:876,7454
DA:877,9377
DA:878,1923
DA:887,0
DA:889,0
DA:894,0
DA:898,0
DA:899,0
DA:944,0
DA:945,0
DA:946,0
DA:947,0
DA:948,0
DA:953,0
DA:954,0
DA:955,0
DA:956,0
DA:957,0
DA:959,0
DA:960,0
DA:961,0
DA:962,0
DA:963,0
DA:965,0
DA:966,0
DA:968,0
DA:972,0
DA:973,0
DA:974,0
DA:975,0
DA:977,0
DA:979,0
DA:983,0
DA:985,0
DA:986,0
DA:999,5910
DA:1008,0
DA:1014,0
DA:1016,0
DA:1017,0
DA:1018,0
DA:1019,0
DA:1020,0
DA:1021,0
DA:1022,0
DA:1024,0
DA:1027,0
DA:1028,0
DA:1029,0
DA:1030,0
DA:1031,0
DA:1034,0
DA:1035,0
DA:1036,0
DA:1037,0
DA:1038,0
DA:1041,0
DA:1042,0
DA:1047,0
DA:1049,0
DA:1050,0
DA:1056,0
DA:1057,0
DA:1058,0
DA:1060,14
DA:1061,14
DA:1062,14
DA:1064,6
DA:1066,6
DA:1067,6
DA:1068,6
DA:1070,14
DA:1071,14
DA:1072,14
DA:1074,6
DA:1076,6
DA:1077,6
DA:1081,6
DA:1082,6
DA:1083,6
DA:1084,6
DA:1087,0
DA:1089,0
DA:1090,0
DA:1091,0
DA:1095,6
DA:1096,6
DA:1100,0
DA:1102,0
DA:1103,0
DA:1106,0
DA:1107,0
DA:1111,28
DA:1112,28
DA:1116,210
DA:1117,210
DA:1122,28
DA:1123,28
DA:1127,14
DA:1128,14
DA:1132,14
DA:1133,14
DA:1137,4
DA:1138,4
DA:1142,14
DA:1143,14
DA:1144,14
DA:1148,0
DA:1149,0
DA:1153,0
DA:1154,0
DA:1158,28
DA:1159,28
DA:1163,28
DA:1164,28
DA:1177,0
DA:1178,0
DA:1182,0
DA:1188,1972
DA:1191,1972
DA:1192,1972
DA:1193,1972
DA:1211,1986
DA:1212,1986
DA:1213,3972
DA:1214,1986
DA:1215,1986
DA:1261,42
DA:1262,42
DA:1264,42
DA:1266,42
DA:1273,0
DA:1275,0
DA:1276,0
DA:1277,0
DA:1278,0
DA:1280,0
DA:1281,0
DA:1284,0
DA:1288,196
DA:1290,196
DA:1291,196
DA:1292,342
DA:1293,342
DA:1294,342
DA:1295,392
DA:1296,196
DA:1298,292
DA:1299,146
DA:1302,196
DA:1303,196
DA:1312,2810
DA:1315,2810
DA:1316,2810
DA:1320,0
DA:1321,0
DA:1323,0
DA:1324,0
DA:1330,0
DA:1331,0
DA:1332,0
DA:1338,2810
DA:1339,2810
DA:1345,0
DA:1347,0
DA:1348,0
DA:1349,0
DA:1350,0
DA:1353,0
DA:1354,0
DA:1355,0
DA:1358,0
DA:1359,0
DA:1360,0
DA:1363,0
DA:1364,0
DA:1365,0
DA:1367,0
DA:1368,0
DA:1369,0
DA:1372,0
DA:1373,0
DA:1374,0
DA:1375,0
DA:1376,0
DA:1377,0
DA:1378,0
DA:1379,0
DA:1380,0
DA:1384,0
DA:1385,0
DA:1391,0
DA:1392,0
DA:1393,0
DA:1394,0
DA:1395,0
DA:1396,0
DA:1398,0
DA:1399,0
DA:1400,0
DA:1405,0
DA:1407,0
DA:1408,0
DA:1409,0
DA:1410,0
DA:1411,0
DA:1421,0
DA:1424,0
DA:1425,0
DA:1426,0
DA:1427,0
DA:1428,0
DA:1430,0
DA:1431,0
DA:1433,0
DA:1434,0
DA:1435,0
DA:1445,0
DA:1446,0
DA:1447,0
DA:1448,0
DA:1449,0
DA:1450,0
DA:1452,0
DA:1453,0
DA:1454,0
DA:1455,0
DA:1456,0
DA:1457,0
DA:1458,0
DA:1459,0
DA:1460,0
DA:1461,0
DA:1462,0
DA:1463,0
DA:1464,0
DA:1465,0
DA:1466,0
DA:1468,0
DA:1470,0
DA:1471,0
DA:1472,0
DA:1473,0
DA:1474,0
DA:1475,0
DA:1476,0
DA:1478,0
DA:1480,0
DA:1483,0
DA:1484,0
DA:1485,0
DA:1486,0
DA:1492,0
DA:1493,0
DA:1494,0
DA:1495,0
DA:1497,0
DA:1498,0
DA:1500,0
DA:1501,0
DA:1503,0
DA:1504,0
DA:1520,0
DA:1523,0
DA:1525,0
DA:1526,0
DA:1527,0
DA:1529,0
DA:1530,0
DA:1531,0
DA:1532,0
DA:1536,0
DA:1537,0
DA:1538,0
DA:1539,0
DA:1545,0
DA:1546,0
DA:1548,0
DA:1549,0
DA:1550,0
DA:1551,0
DA:1557,0
DA:1559,0
DA:1561,0
DA:1562,0
DA:1564,0
DA:1565,0
DA:1569,0
DA:1570,0
DA:1573,0
DA:1578,0
DA:1579,0
DA:1580,0
DA:1581,0
DA:1590,0
DA:1591,0
DA:1592,0
DA:1593,0
DA:1597,0
DA:1598,0
DA:1599,0
DA:1600,0
DA:1601,0
DA:1602,0
DA:1603,0
DA:1606,0
DA:1609,0
DA:1610,0
DA:1611,0
DA:1630,0
DA:1634,0
DA:1635,0
DA:1636,0
DA:1637,0
DA:1638,0
DA:1640,0
DA:1641,0
DA:1642,0
DA:1645,0
DA:1646,0
DA:1649,0
DA:1650,0
DA:1651,0
DA:1652,0
DA:1653,0
DA:1654,0
DA:1656,0
DA:1658,0
DA:1659,0
DA:1662,0
DA:1665,0
DA:1666,0
DA:1667,0
DA:1668,0
DA:1669,0
DA:1670,0
DA:1671,0
DA:1672,0
DA:1678,578
DA:1687,578
DA:1688,0
DA:1689,0
DA:1690,0
DA:1693,578
DA:1694,578
DA:1697,0
DA:1699,0
DA:1700,0
DA:1707,0
DA:1709,0
DA:1710,0
DA:1711,0
DA:1712,0
DA:1713,0
DA:1714,0
DA:1716,0
DA:1717,0
DA:1719,0
DA:1721,0
DA:1722,0
DA:1723,0
DA:1724,0
DA:1725,0
DA:1726,0
DA:1731,0
DA:1734,0
DA:1735,0
DA:1739,0
DA:1740,0
DA:1741,0
DA:1748,0
DA:1749,0
DA:1750,0
DA:1752,0
DA:1753,0
DA:1754,0
DA:1757,0
DA:1758,0
DA:1759,0
DA:1760,0
DA:1766,0
DA:1768,0
DA:1773,0
DA:1775,0
DA:1781,0
DA:1784,0
DA:1785,0
DA:1788,0
DA:1789,0
DA:1793,0
DA:1796,0
DA:1797,0
DA:1800,0
DA:1801,0
DA:1805,0
DA:1808,0
DA:1809,0
DA:1811,0
DA:1812,0
DA:1813,0
DA:1818,0
DA:1821,0
DA:1822,0
DA:1824,0
DA:1825,0
DA:1826,0
DA:1840,0
DA:1841,0
DA:1843,0
DA:1846,0
DA:1847,0
DA:1849,0
DA:1854,0
DA:1855,0
DA:1863,0
DA:1868,0
DA:1869,0
DA:1871,0
DA:1872,0
DA:1874,0
DA:1875,0
DA:1876,0
DA:1877,0
DA:1878,0
DA:1887,0
DA:1889,0
DA:1892,0
DA:1894,0
DA:1897,0
DA:1900,0
DA:1903,0
DA:1906,0
DA:1909,0
DA:1912,0
DA:1915,0
DA:1919,0
DA:1923,0
DA:1926,0
DA:1929,0
DA:1933,0
DA:2029,0
DA:2030,0
DA:2031,0
DA:2032,0
DA:2041,0
DA:2042,0
DA:2043,0
DA:2046,0
DA:2047,0
DA:2048,0
DA:2049,0
DA:2050,0
DA:2051,0
DA:2052,0
DA:2053,0
DA:2054,0
DA:2055,0
DA:2056,0
DA:2057,0
DA:2058,0
DA:2060,0
DA:2061,0
DA:2062,0
DA:2063,0
DA:2064,0
DA:2066,0
DA:2108,0
DA:2109,0
DA:2111,0
DA:2112,0
DA:2113,0
DA:2115,0
DA:2117,0
DA:2122,0
DA:2125,0
DA:2127,0
DA:2128,0
DA:2132,0
DA:2133,0
DA:2135,0
DA:2144,0
DA:2145,0
DA:2147,0
DA:2149,0
DA:2153,0
DA:2156,0
DA:2157,0
DA:2160,0
DA:2161,0
DA:2165,0
DA:2168,0
DA:2169,0
DA:2172,0
DA:2173,0
DA:2174,0
DA:2183,14
DA:2184,14
DA:2185,14
DA:2186,14
DA:2201,0
DA:2203,0
DA:2205,0
DA:2210,0
DA:2225,0
DA:2227,0
DA:2228,0
DA:2229,0
DA:2230,0
DA:2231,0
DA:2235,0
DA:2236,0
DA:2240,0
DA:2241,0
DA:2242,0
DA:2243,0
DA:2244,0
DA:2247,0
DA:2248,0
DA:2249,0
DA:2250,0
DA:2251,0
DA:2254,0
DA:2255,0
DA:2259,0
DA:2260,0
DA:2261,0
DA:2262,0
DA:2263,0
DA:2264,0
DA:2268,2810
DA:2269,2810
DA:2270,2810
DA:2271,2810
DA:2273,2810
DA:2274,2810
DA:2275,58074
DA:2276,55264
DA:2277,0
DA:2279,110528
DA:2283,2810
DA:2284,2810
DA:2287,0
DA:2290,0
DA:2291,0
DA:2292,0
DA:2294,0
DA:2295,0
DA:2297,0
DA:2298,0
DA:2305,6036
DA:2306,6036
DA:2309,6036
DA:2314,72
DA:2315,72
DA:2316,72
DA:2322,0
DA:2323,0
DA:2324,0
DA:2328,0
DA:2331,6
DA:2332,6
DA:2333,6
DA:2338,0
DA:2340,0
DA:2341,0
DA:2343,0
DA:2344,0
DA:2345,0
DA:2346,0
DA:2347,0
DA:2348,0
DA:2349,0
DA:2351,0
DA:2352,0
DA:2378,0
DA:2379,0
DA:2382,0
DA:2384,0
DA:2385,0
DA:2386,0
DA:2387,0
DA:2388,0
DA:2389,0
DA:2391,0
DA:2394,0
DA:2400,0
DA:2402,0
DA:2403,0
DA:2404,0
DA:2405,0
DA:2406,0
DA:2407,0
DA:2409,0
DA:2412,0
DA:2416,0
DA:2417,0
DA:2418,0
DA:2419,0
DA:2420,0
DA:2422,0
DA:2423,0
DA:2425,0
DA:2427,0
DA:2428,0
DA:2430,0
DA:2433,0
DA:2434,0
DA:2435,0
DA:2436,0
DA:2437,0
DA:2438,0
DA:2445,0
DA:2447,0
DA:2448,0
DA:2452,6022
DA:2453,6022
DA:2454,6022
DA:2455,6022
DA:2456,6022
DA:2457,6022
DA:2460,0
DA:2461,0
DA:2465,9617
DA:2466,19210
DA:2470,19345
DA:2471,19345
DA:2472,72
DA:2478,0
DA:2479,0
DA:2483,3833
DA:2484,3833
DA:2488,0
DA:2489,0
DA:2493,0
DA:2494,0
DA:2499,19417
DA:2500,19417
DA:2504,0
DA:2505,0
DA:2513,1910
DA:2518,1910
DA:2523,1910
DA:2528,1910
DA:2531,0
DA:2532,0
DA:2533,0
DA:2537,6
DA:2541,6
DA:2547,6
DA:2556,1910
DA:2557,1910
DA:2558,1910
DA:2561,1910
DA:2562,1910
DA:2563,1910
DA:2566,1910
DA:2567,1910
DA:2568,1910
DA:2570,1910
DA:2572,0
DA:2574,0
DA:2576,0
DA:2583,0
DA:2585,0
DA:2588,0
DA:2589,0
DA:2590,0
DA:2591,0
DA:2592,0
DA:2593,0
DA:2594,0
DA:2595,0
DA:2596,0
DA:2600,0
DA:2601,0
DA:2602,0
DA:2603,0
DA:2604,0
DA:2605,0
DA:2606,0
DA:2607,0
DA:2608,0
DA:2609,0
DA:2611,0
DA:2622,6
DA:2624,6
DA:2625,6
DA:2626,6
DA:2628,0
DA:2630,6
DA:2632,6
DA:2633,6
DA:2638,0
DA:2639,0
DA:2640,0
DA:2653,9660
DA:2664,9660
DA:2672,9660
DA:2697,9660
DA:2700,9660
DA:2701,6
DA:2703,0
DA:2707,0
DA:2708,6
DA:2709,12
DA:2711,6
DA:2712,0
DA:2713,0
DA:2717,6
DA:2722,0
DA:2729,1910
DA:2730,1910
DA:2732,1910
DA:2733,1910
DA:2734,1910
DA:2737,1910
DA:2738,1910
DA:2739,1910
DA:2746,1910
DA:2747,1910
DA:2752,3833
DA:2753,3833
DA:2757,0
DA:2758,0
DA:2760,0
DA:2764,3833
DA:2765,3833
DA:2772,5896
DA:2776,5896
DA:2777,5896
DA:2778,5896
DA:2779,5896
DA:2780,5896
DA:2781,5896
DA:2782,5896
DA:2783,5896
DA:2784,5896
DA:2785,5896
DA:2786,5896
DA:2787,5896
DA:2788,5896
DA:2791,5896
DA:2813,5896
DA:2818,5896
DA:2820,5896
DA:2821,5896
DA:2822,5896
DA:2825,0
DA:2827,0
DA:2828,0
DA:2829,0
DA:2830,0
DA:2831,0
DA:2832,0
DA:2833,0
DA:2834,0
DA:2835,0
DA:2836,0
DA:2838,0
DA:2839,0
DA:2840,0
DA:2841,0
DA:2846,14
DA:2847,14
DA:2848,14
DA:2849,14
DA:2850,14
DA:2852,14
DA:2858,2288
DA:2859,2288
DA:2860,2288
DA:2861,378
DA:2862,378
DA:2866,1910
DA:2869,1910
DA:2870,1910
DA:2871,1910
DA:2872,1910
DA:2875,3820
DA:2876,1910
DA:2882,1910
DA:2885,1910
DA:2888,0
DA:2890,1910
DA:2891,1910
DA:2895,1910
DA:2898,1910
DA:2902,1910
DA:2906,0
DA:2907,0
DA:2909,0
DA:2911,0
DA:2914,0
DA:2916,0
DA:2917,0
DA:2918,0
DA:2919,0
DA:2920,0
DA:2923,0
DA:2924,0
DA:2925,0
DA:2930,126
DA:2931,126
DA:2935,126
DA:2936,126
DA:2940,136
DA:2941,136
DA:2945,126
DA:2946,126
DA:2950,0
DA:2951,0
DA:2955,0
DA:2956,0
DA:2960,348
DA:2961,348
DA:2965,2796
DA:2966,2796
DA:2978,126
DA:2980,126
DA:2981,252
DA:2982,126
DA:2983,126
DA:2984,126
DA:2985,126
DA:2986,126
DA:2987,252
DA:2990,378
DA:2992,126
DA:2993,252
DA:2997,204
DA:2998,204
DA:2999,204
DA:3004,2288
DA:3005,2288
DA:3006,2288
DA:3011,5896
DA:3012,5896
DA:3013,5896
DA:3014,5896
DA:3017,117
DA:3018,117
DA:3020,48
DA:3022,48
DA:3034,48
DA:3035,8425
DA:3036,8425
DA:3037,0
DA:3040,8425
DA:3044,48
DA:3047,48
DA:3050,48
DA:3051,48
DA:3054,48
DA:3055,48
DA:3057,48
DA:3058,48
DA:3059,2336
DA:3060,2288
DA:3061,0
DA:3063,2288
DA:3065,2288
DA:3066,0
DA:3067,0
DA:3068,0
DA:3073,48
DA:3075,48
DA:3076,48
DA:3080,48
DA:3083,48
DA:3086,48
DA:3090,0
DA:3091,0
DA:3093,0
DA:3095,0
DA:3098,0
DA:3101,0
DA:3104,0
DA:3105,0
DA:3109,0
DA:3112,0
DA:3115,0
DA:3119,126
DA:3120,126
DA:3121,126
DA:3122,126
DA:3125,0
DA:3126,0
DA:3127,0
DA:3130,126
DA:3131,6022
DA:3132,5896
DA:3134,126
DA:3141,170
DA:3143,510
DA:3144,510
DA:3148,46
DA:3149,46
DA:3153,28
DA:3154,28
DA:3161,6
DA:3162,6
DA:3165,0
DA:3166,0
DA:3168,6
DA:3169,6
DA:3173,6
DA:3175,0
DA:3176,0
DA:3186,6
DA:3188,12
DA:3190,6
DA:3191,6
DA:3192,12
DA:3193,12
DA:3194,12
DA:3198,6
DA:3199,6
DA:3200,6
DA:3201,6
DA:3213,6
DA:3269,15
DA:3270,15
DA:3273,12
DA:3274,12
DA:3275,2
DA:3276,2
DA:3277,0
DA:3278,0
DA:3279,0
DA:3286,14
DA:3287,14
DA:3288,14
DA:3290,14
DA:3297,14
DA:3298,14
DA:3299,28
DA:3300,14
DA:3301,0
DA:3302,0
DA:3303,0
DA:3304,0
DA:3305,0
DA:3306,0
DA:3307,0
DA:3308,14
DA:3309,14
DA:3313,0
DA:3314,0
DA:3315,0
DA:3316,0
DA:3320,14
DA:3328,4005
DA:3329,4005
DA:3330,4005
DA:3332,4005
DA:3335,4005
DA:3337,4005
DA:3339,4005
DA:3340,3990
DA:3341,3990
DA:3342,3990
DA:3368,29
DA:3369,15
DA:3370,15
DA:3372,15
DA:3380,12
DA:3381,12
DA:3382,12
DA:3384,12
DA:3385,0
DA:3386,0
DA:3387,0
DA:3388,0
DA:3390,0
DA:3391,0
DA:3394,12
DA:3401,14
DA:3402,3820
DA:3403,3820
DA:3407,14
DA:3410,13
DA:3429,13
DA:3431,14
DA:3440,14
DA:3442,14
DA:3443,0
DA:3445,14
DA:3446,14
DA:3450,14
DA:3451,10
DA:3455,14
DA:3456,0
DA:3457,0
DA:3462,14
DA:3463,0
DA:3468,14
DA:3469,14
DA:3470,28
DA:3471,14
DA:3472,14
DA:3473,14
DA:3475,13
DA:3477,13
DA:3478,13
DA:3479,13
DA:3480,13
DA:3483,48
DA:3484,48
DA:3485,48
DA:3486,48
DA:3487,48
DA:3488,48
DA:3489,48
DA:3491,0
DA:3493,48
DA:3494,48
DA:3511,1910
DA:3512,1910
DA:3513,1910
DA:3514,1910
DA:3515,1910
DA:3516,1910
DA:3518,0
DA:3519,0
DA:3520,0
DA:3521,0
DA:3522,0
DA:3523,0
DA:3526,6
DA:3528,6
DA:3532,6
DA:3535,6
DA:3536,6
DA:3540,1910
DA:3541,1910
DA:3542,1904
DA:3543,6
DA:3544,0
DA:3546,6
DA:3548,1910
DA:3549,1910
DA:3551,1910
DA:3552,1910
DA:3553,3820
DA:3556,0
DA:3558,1910
DA:3559,1910
DA:3562,48
DA:3563,48
DA:3565,48
DA:3566,48
DA:3567,48
DA:3568,48
DA:3569,48
DA:3570,48
DA:3571,48
DA:3585,13
DA:3587,13
DA:3588,13
DA:3589,13
DA:3590,13
DA:3593,4
DA:3594,4
DA:3595,4
DA:3596,4
DA:3598,40
DA:3599,36
DA:3600,36
DA:3601,32
DA:3603,208
DA:3604,204
DA:3605,204
DA:3606,198
DA:3608,6
DA:3609,6
DA:3610,6
DA:3611,6
DA:3614,4
DA:3616,4
DA:3620,4
DA:3622,4
DA:3623,40
DA:3624,36
DA:3625,36
DA:3626,32
DA:3628,4
DA:3629,0
DA:3630,0
DA:3631,0
DA:3634,4
DA:3635,0
DA:3638,4
DA:3641,0
DA:3642,0
DA:3643,0
DA:3647,0
DA:3648,0
DA:3649,0
DA:3650,0
DA:3652,0
DA:3653,0
DA:3654,0
DA:3655,0
DA:3657,0
DA:3658,0
DA:3659,0
DA:3664,14
DA:3666,14
DA:3667,14
DA:3668,28
DA:3669,14
DA:3670,14
DA:3671,14
DA:3672,28
DA:3674,14
DA:3675,14
DA:3676,14
DA:3678,14
DA:3679,14
DA:3680,0
DA:3681,0
DA:3682,0
DA:3685,14
DA:3686,4
DA:3687,4
DA:3690,14
DA:3691,14
DA:3692,0
DA:3693,0
DA:3695,0
DA:3699,14
DA:3700,14
DA:3709,0
DA:3710,0
DA:3711,0
DA:3715,0
DA:3716,0
DA:3717,0
DA:3718,0
DA:3719,0
DA:3721,0
DA:3726,0
DA:3727,0
DA:3732,0
DA:3737,0
DA:3738,0
DA:3740,0
DA:3744,0
DA:3746,0
DA:3750,0
DA:3753,0
DA:3754,0
DA:3758,0
DA:3759,0
DA:3760,0
DA:3761,0
DA:3762,0
DA:3764,0
DA:3765,0
DA:3766,0
DA:3769,0
DA:3771,0
DA:3773,0
DA:3775,0
DA:3777,0
DA:3778,0
DA:3779,0
DA:3780,0
DA:3781,0
DA:3782,0
DA:3783,0
DA:3785,0
DA:3786,0
DA:3787,0
DA:3789,0
DA:3790,0
DA:3791,0
DA:3792,0
DA:3795,0
DA:3796,0
DA:3797,0
DA:3798,0
DA:3800,0
DA:3804,0
DA:3805,0
DA:3814,14
DA:3821,0
DA:3822,0
DA:3858,28
DA:3859,14
DA:3860,28
DA:3862,14
DA:3863,14
DA:3864,14
DA:3866,14
DA:3867,14
DA:3868,0
DA:3869,0
DA:3870,0
DA:3898,42
DA:3899,39
DA:3902,144
DA:3904,144
DA:3905,5730
DA:3906,0
DA:3907,18
DA:3908,39
DA:3909,26
DA:3910,26
DA:3911,3820
DA:3914,96
DA:3916,96
DA:3917,28
DA:3922,14
DA:3924,14
DA:3925,28
DA:3926,14
DA:3929,14
DA:3931,14
DA:3933,14
DA:3934,28
DA:3935,14
DA:3938,14
DA:3944,0
DA:3958,0
DA:3959,0
DA:3964,0
DA:3965,0
DA:3978,0
DA:3979,0
DA:4040,0
DA:4041,0
DA:4042,0
DA:4043,0
DA:4045,0
DA:4048,0
DA:4050,0
DA:4051,0
DA:4052,0
DA:4053,0
DA:4054,0
DA:4055,0
DA:4057,0
DA:4059,0
DA:4060,0
DA:4061,0
DA:4062,0
DA:4063,0
DA:4064,0
DA:4076,0
DA:4078,0
DA:4080,0
DA:4081,0
DA:4082,0
DA:4083,0
DA:4084,0
DA:4086,0
DA:4087,0
DA:4089,0
DA:4090,0
DA:4092,0
DA:4093,0
DA:4094,0
DA:4096,0
DA:4098,0
DA:4099,0
DA:4100,0
DA:4102,0
DA:4104,0
DA:4105,0
DA:4106,0
DA:4107,0
DA:4108,0
DA:4109,0
DA:4111,0
DA:4117,0
DA:4118,0
DA:4123,0
DA:4125,0
DA:4126,0
DA:4127,0
DA:4128,0
DA:4129,0
DA:4131,0
DA:4132,0
DA:4151,0
DA:4152,0
DA:4156,0
DA:4158,0
DA:4159,0
DA:4160,0
DA:4161,0
DA:4162,0
DA:4164,0
DA:4179,0
DA:4185,0
DA:4186,0
DA:4187,0
DA:4188,0
DA:4190,0
DA:4191,0
DA:4192,0
DA:4193,0
DA:4194,0
DA:4195,0
DA:4196,0
DA:4200,0
DA:4202,0
DA:4203,0
DA:4204,0
DA:4205,0
DA:4206,0
DA:4207,0
DA:4208,0
DA:4209,0
DA:4210,0
DA:4212,0
DA:4213,0
DA:4215,0
DA:4216,0
DA:4217,0
DA:4219,0
DA:4222,0
DA:4223,0
DA:4225,0
DA:4228,0
DA:4230,0
DA:4231,0
DA:4234,0
DA:4237,0
DA:4238,0
DA:4239,0
DA:4240,0
DA:4241,0
DA:4242,0
DA:4243,0
DA:4244,0
DA:4245,0
DA:4246,0
DA:4248,0
DA:4249,0
DA:4251,0
DA:4254,0
DA:4255,0
DA:4258,0
DA:4261,0
DA:4262,0
DA:4263,0
DA:4264,0
DA:4265,0
DA:4266,0
DA:4267,0
DA:4268,0
DA:4270,0
DA:4273,0
DA:4274,0
DA:4277,0
DA:4280,0
DA:4281,0
DA:4283,0
DA:4287,0
DA:4288,0
DA:4290,0
DA:4291,0
DA:4294,0
DA:4295,0
DA:4299,0
DA:4300,0
DA:4301,0
DA:4302,0
DA:4303,0
DA:4307,0
DA:4308,0
DA:4309,0
DA:4310,0
DA:4311,0
DA:4313,0
DA:4314,0
DA:4315,0
DA:4317,0
DA:4318,0
DA:4320,0
DA:4321,0
DA:4323,0
DA:4325,0
DA:4326,0
DA:4327,0
DA:4328,0
DA:4329,0
DA:4330,0
DA:4331,0
DA:4333,0
DA:4335,0
DA:4336,0
DA:4337,0
DA:4338,0
DA:4339,0
DA:4340,0
DA:4341,0
DA:4342,0
DA:4343,0
DA:4344,0
DA:4346,0
DA:4348,0
DA:4349,0
DA:4350,0
DA:4351,0
DA:4352,0
DA:4353,0
DA:4354,0
DA:4355,0
DA:4358,0
DA:4359,0
DA:4361,0
DA:4362,0
DA:4364,0
DA:4365,0
DA:4367,0
DA:4370,0
DA:4372,0
DA:4373,0
DA:4374,0
DA:4375,0
DA:4376,0
DA:4377,0
DA:4378,0
DA:4379,0
DA:4380,0
DA:4382,0
DA:4383,0
DA:4384,0
DA:4386,0
DA:4388,0
DA:4389,0
DA:4390,0
DA:4392,0
DA:4394,0
DA:4395,0
DA:4397,0
DA:4398,0
DA:4399,0
DA:4401,0
DA:4402,0
DA:4405,0
DA:4406,0
DA:4409,0
DA:4411,0
DA:4413,0
DA:4414,0
DA:4416,0
DA:4417,0
DA:4418,0
DA:4419,0
DA:4420,0
DA:4422,0
DA:4423,0
DA:4424,0
DA:4425,0
DA:4426,0
DA:4428,0
DA:4430,0
DA:4431,0
DA:4432,0
DA:4435,0
DA:4436,0
DA:4438,0
DA:4440,0
DA:4441,0
DA:4442,0
DA:4447,0
DA:4448,0
DA:4451,0
DA:4452,0
DA:4454,0
DA:4456,0
DA:4458,0
DA:4459,0
DA:4461,0
DA:4462,0
DA:4463,0
DA:4465,0
DA:4466,0
DA:4467,0
DA:4468,0
DA:4470,0
DA:4471,0
DA:4473,0
DA:4474,0
DA:4476,0
DA:4478,0
DA:4479,0
DA:4481,0
DA:4482,0
DA:4485,0
DA:4486,0
DA:4487,0
DA:4488,0
DA:4489,0
DA:4490,0
DA:4491,0
DA:4493,0
DA:4494,0
DA:4501,0
DA:4569,0
DA:4570,0
DA:4571,0
DA:4572,0
DA:4574,0
DA:4576,0
DA:4578,0
DA:4579,0
DA:4580,0
DA:4581,0
DA:4582,0
DA:4583,0
DA:4586,0
DA:4587,0
DA:4589,0
DA:4590,0
DA:4591,0
DA:4592,0
DA:4593,0
DA:4594,0
DA:4595,0
DA:4597,0
DA:4598,0
DA:4600,0
DA:4601,0
DA:4603,0
DA:4604,0
DA:4606,0
DA:4607,0
DA:4609,0
DA:4610,0
DA:4612,0
DA:4613,0
DA:4614,0
DA:4616,0
DA:4622,0
DA:4623,0
DA:4629,0
DA:4630,0
DA:4631,0
DA:4632,0
DA:4633,0
DA:4637,0
DA:4638,0
DA:4639,0
DA:4640,0
DA:4642,0
DA:4643,0
DA:4644,0
DA:4645,0
DA:4646,0
DA:4647,0
DA:4650,0
DA:4651,0
DA:4654,0
DA:4660,0
DA:4661,0
DA:4663,0
DA:4666,0
DA:4668,0
DA:4669,0
DA:4670,0
DA:4672,0
DA:4675,0
DA:4676,0
DA:4678,0
DA:4681,0
DA:4683,0
DA:4684,0
DA:4685,0
DA:4688,0
DA:4691,0
DA:4692,0
DA:4693,0
DA:4694,0
DA:4695,0
DA:4696,0
DA:4697,0
DA:4698,0
DA:4699,0
DA:4700,0
DA:4701,0
DA:4702,0
DA:4703,0
DA:4704,0
DA:4706,0
DA:4708,0
DA:4711,0
DA:4712,0
DA:4715,0
DA:4718,0
DA:4719,0
DA:4720,0
DA:4721,0
DA:4722,0
DA:4723,0
DA:4724,0
DA:4725,0
DA:4726,0
DA:4727,0
DA:4728,0
DA:4729,0
DA:4732,0
DA:4733,0
DA:4736,0
DA:4739,0
DA:4740,0
DA:4741,0
DA:4743,0
DA:4744,0
DA:4746,0
DA:4747,0
DA:4750,0
DA:4751,0
DA:4755,0
DA:4756,0
DA:4757,0
DA:4758,0
DA:4759,0
DA:4761,0
DA:4764,0
DA:4765,0
DA:4766,0
DA:4767,0
DA:4768,0
DA:4771,0
DA:4772,0
DA:4774,0
DA:4775,0
DA:4776,0
DA:4778,0
DA:4780,0
DA:4781,0
DA:4783,0
DA:4785,0
DA:4789,0
DA:4790,0
DA:4791,0
DA:4792,0
DA:4793,0
DA:4794,0
DA:4796,0
DA:4798,0
DA:4799,0
DA:4800,0
DA:4801,0
DA:4804,0
DA:4805,0
DA:4808,0
DA:4813,0
DA:4814,0
DA:4815,0
DA:4816,0
DA:4817,0
DA:4818,0
DA:4820,0
DA:4822,0
DA:4823,0
DA:4824,0
DA:4825,0
DA:4827,0
DA:4828,0
DA:4831,0
DA:4834,0
DA:4835,0
DA:4838,0
DA:4840,0
DA:4841,0
DA:4843,0
DA:4844,0
DA:4845,0
DA:4847,0
DA:4848,0
DA:4850,0
DA:4852,0
DA:4853,0
DA:4855,0
DA:4857,0
DA:4858,0
DA:4860,0
DA:4861,0
DA:4864,0
DA:4867,0
DA:4868,0
DA:4869,0
DA:4870,0
DA:4874,0
DA:4880,0
DA:4881,0
DA:4882,0
DA:4884,0
DA:4887,0
DA:4888,0
DA:4891,0
DA:4893,0
DA:4894,0
DA:4895,0
DA:4897,0
DA:4899,0
DA:4901,0
DA:4903,0
DA:4904,0
DA:4905,0
DA:4908,0
DA:4909,0
DA:4911,0
DA:4912,0
DA:4915,0
DA:4916,0
DA:4918,0
DA:4919,0
DA:4922,0
DA:4923,0
DA:4924,0
DA:4925,0
DA:4929,0
DA:4935,0
DA:4936,0
DA:4937,0
DA:4939,0
DA:4942,0
DA:4944,0
DA:4945,0
DA:4947,0
DA:4949,0
DA:4950,0
DA:4951,0
DA:4952,0
DA:4953,0
DA:4954,0
DA:4956,0
DA:4958,0
DA:4959,0
DA:4961,0
DA:4962,0
DA:4963,0
DA:4965,0
DA:4968,0
DA:4970,0
DA:4971,0
DA:4974,0
DA:4976,0
DA:4977,0
DA:4978,0
DA:4979,0
DA:4980,0
DA:4981,0
DA:4983,0
DA:4984,0
DA:4996,0
DA:4997,0
DA:4998,0
DA:4999,0
DA:5000,0
DA:5001,0
DA:5002,0
DA:5003,0
DA:5004,0
DA:5005,0
DA:5006,0
DA:5007,0
DA:5008,0
DA:5009,0
DA:5013,0
DA:5014,0
DA:5016,0
DA:5017,0
DA:5018,0
DA:5020,0
DA:5021,0
DA:5022,0
DA:5023,0
DA:5024,0
DA:5028,0
DA:5029,0
DA:5030,0
DA:5031,0
DA:5032,0
DA:5036,0
DA:5037,0
DA:5038,0
DA:5040,0
DA:5042,0
DA:5043,0
DA:5044,0
DA:5049,0
DA:5051,0
DA:5052,0
DA:5053,0
DA:5055,0
DA:5065,0
DA:5109,0
DA:5110,0
DA:5111,0
DA:5115,9646
DA:5125,9646
DA:5132,14
DA:5133,28
DA:5136,14
DA:5140,0
DA:5141,0
DA:5142,0
DA:5144,14
DA:5146,14
DA:5148,14
DA:5149,0
DA:5150,0
DA:5151,0
DA:5152,0
DA:5153,0
DA:5157,14
DA:5171,14
DA:5172,14
DA:5173,14
DA:5174,14
DA:5176,14
DA:5182,14
DA:5183,14
DA:5184,14
DA:5189,14
DA:5190,14
DA:5191,14
DA:5192,0
DA:5193,0
DA:5194,14
DA:5199,2356
DA:5206,14
DA:5207,14
DA:5210,14
DA:5211,14
DA:5212,14
DA:5214,14
DA:5221,0
DA:5222,0
DA:5225,0
DA:5226,0
DA:5227,0
DA:5229,0
DA:5233,0
DA:5234,0
DA:5237,0
DA:5238,0
DA:5239,0
DA:5250,37258
DA:5259,37258
DA:5260,37258
DA:5265,0
DA:5266,0
DA:5270,0
DA:5271,0
DA:5275,80
DA:5276,80
DA:5281,28
DA:5282,28
DA:5287,0
DA:5288,0
DA:5290,0
DA:5291,0
DA:5293,0
DA:5294,0
DA:5296,0
DA:5297,0
DA:5302,14
DA:5303,14
DA:5307,14
DA:5308,14
DA:5312,4
DA:5315,14
DA:5316,14
DA:5320,0
DA:5321,0
DA:5325,0
DA:5326,0
DA:5330,0
DA:5333,28
DA:5337,0
DA:5338,0
DA:5342,14
DA:5343,14
DA:5348,14
DA:5352,0
DA:5356,72
DA:5357,72
DA:5362,0
DA:5363,0
DA:5369,0
DA:5370,0
DA:5375,0
DA:5376,0
DA:5379,3916
DA:5380,3916
DA:5381,3916
DA:5384,96
DA:5385,96
DA:5386,96
DA:5387,96
DA:5390,3820
DA:5391,3820
DA:5392,3820
DA:5393,3820
DA:5397,2336
DA:5409,0
DA:5410,0
DA:5414,0
DA:5415,0
DA:5422,6
DA:5427,6
DA:5428,6
DA:5430,6
DA:5431,6
DA:5432,0
DA:5434,0
DA:5435,0
DA:5436,0
DA:5437,0
DA:5438,0
DA:5442,6
DA:5443,0
DA:5445,12
DA:5448,6
DA:5449,6
DA:5450,6
DA:5453,6
DA:5454,6
DA:5460,6
DA:5471,0
DA:5482,6
DA:5484,0
DA:5492,12
DA:5499,0
DA:5501,0
DA:5502,0
DA:5509,14
DA:5511,14
DA:5512,14
DA:5535,14
DA:5538,14
DA:5545,14
DA:5591,14
DA:5594,14
DA:5597,14
DA:5598,14
DA:5599,14
DA:5604,0
DA:5605,0
DA:5611,0
DA:5613,0
DA:5614,0
DA:5615,0
DA:5619,0
DA:5621,0
DA:5622,0
DA:5623,0
DA:5628,0
DA:5630,0
DA:5631,0
DA:5632,0
DA:5635,0
DA:5640,0
DA:5641,0
DA:5645,14
DA:5648,14
DA:5652,0
DA:5654,0
DA:5655,0
DA:5656,0
DA:5659,0
DA:5660,0
DA:5661,0
DA:5662,0
DA:5666,14
DA:5667,14
DA:5669,14
DA:5670,14
DA:5671,14
DA:5673,14
DA:5675,14
DA:5676,14
DA:5677,14
DA:5678,14
DA:5679,14
DA:5680,14
DA:5681,14
DA:5682,14
DA:5683,14
DA:5684,14
DA:5685,14
DA:5686,14
DA:5688,14
DA:5691,42
DA:5692,14
DA:5693,14
DA:5695,28
DA:5697,14
DA:5700,14
DA:5702,14
DA:5703,42
DA:5710,0
DA:5711,0
DA:5712,0
DA:5714,0
DA:5715,0
DA:5716,0
DA:5717,0
DA:5718,0
DA:5719,0
DA:5721,0
DA:5722,0
DA:5724,0
DA:5725,0
DA:5730,14
DA:5731,14
DA:5732,0
DA:5733,14
DA:5738,14
DA:5739,14
DA:5741,14
DA:5742,0
DA:5743,0
DA:5744,14
DA:5745,0
DA:5746,0
DA:5747,14
DA:5748,0
DA:5749,0
DA:5757,14
DA:5762,14
DA:5763,14
DA:5764,14
DA:5765,0
DA:5766,0
DA:5767,0
DA:5768,0
DA:5770,0
DA:5771,0
DA:5774,14
DA:5782,28
DA:5784,28
DA:5785,14
DA:5793,14
DA:5794,14
DA:5800,14
DA:5804,14
DA:5806,14
DA:5807,0
DA:5812,14
DA:5822,28
DA:5836,5896
DA:5843,5896
DA:5844,5882
DA:5849,126
DA:5850,126
DA:5851,0
DA:5855,126
DA:5856,126
DA:5857,126
DA:5859,126
DA:5861,126
DA:5866,0
DA:5867,0
DA:5871,126
DA:5874,126
DA:5875,126
DA:5876,126
DA:5880,0
DA:5881,0
DA:5886,1
DA:5887,1
DA:5888,1
DA:5891,0
DA:5892,0
DA:5895,0
DA:5896,0
DA:5909,14
DA:5912,14
DA:5915,14
DA:5919,14
DA:5923,14
DA:5924,0
DA:5926,0
DA:5928,0
DA:5930,0
DA:5931,0
DA:5934,0
DA:5935,0
DA:5938,0
DA:5939,0
DA:5947,14
DA:5952,14
DA:5955,14
DA:5963,14
DA:5968,14
DA:5969,28
DA:5970,14
DA:5973,14
DA:5975,0
DA:5976,0
DA:5979,14
DA:5982,14
DA:5984,14
DA:5986,14
DA:5987,14
DA:5991,14
DA:5994,14
DA:6002,28
DA:6003,14
DA:6006,28
DA:6009,14
DA:6011,14
DA:6014,14
DA:6015,0
DA:6019,0
DA:6023,14
DA:6026,14
DA:6029,13
DA:6030,13
DA:6031,13
DA:6032,13
DA:6037,13
DA:6040,0
DA:6041,0
DA:6042,0
DA:6043,0
DA:6044,0
DA:6045,0
DA:6046,0
DA:6047,0
DA:6048,0
DA:6050,0
DA:6051,13
DA:6052,130
DA:6054,234
DA:6055,117
DA:6056,0
DA:6057,0
DA:6058,0
DA:6063,0
DA:6067,0
DA:6069,0
DA:6076,13
DA:6077,13
DA:6078,13
DA:6080,13
DA:6084,14
DA:6087,14
DA:6090,14
DA:6091,4
DA:6100,14
DA:6102,14
DA:6104,0
DA:6108,14
DA:6110,14
DA:6111,14
DA:6112,14
DA:6113,14
DA:6117,14
DA:6118,1
DA:6119,3
DA:6120,1
DA:6121,1
DA:6123,1
DA:6125,1
DA:6127,14
DA:6128,0
DA:6137,14
DA:6145,14
DA:6146,14
DA:6147,14
DA:6148,0
DA:6149,0
DA:6150,0
DA:6154,0
DA:6155,0
DA:6157,0
DA:6159,14
DA:6168,28
DA:6170,28
DA:6174,28
DA:6175,28
DA:6177,28
DA:6179,0
DA:6180,0
DA:6181,0
DA:6182,0
DA:6183,0
DA:6184,0
DA:6185,0
DA:6186,0
DA:6187,0
DA:6188,0
DA:6189,0
DA:6190,0
DA:6191,0
DA:6192,0
DA:6193,0
DA:6194,0
DA:6195,0
DA:6196,0
DA:6197,0
DA:6198,0
DA:6199,0
DA:6200,0
DA:6201,0
DA:6202,0
DA:6203,0
DA:6204,0
DA:6206,0
DA:6212,56
DA:6213,56
DA:6214,56
DA:6218,0
DA:6219,0
DA:6221,0
DA:6223,0
DA:6230,0
DA:6231,0
DA:6241,14
DA:6242,14
DA:6243,14
DA:6244,14
DA:6245,0
DA:6246,0
DA:6247,14
DA:6249,14
DA:6250,14
DA:6251,14
DA:6256,14
DA:6257,14
DA:6258,140
DA:6259,126
DA:6260,126
DA:6262,6022
DA:6263,5896
DA:6266,5896
DA:6267,11792
DA:6268,5896
DA:6269,5896
DA:6271,5896
DA:6272,5896
DA:6273,5896
DA:6275,11792
DA:6276,5896
DA:6279,5896
DA:6280,5896
DA:6281,0
DA:6282,5896
DA:6283,5896
DA:6285,5896
DA:6286,5896
DA:6288,5896
DA:6289,7864
DA:6292,28
DA:6293,14
DA:6299,14
DA:6300,14
DA:6305,14
DA:6306,14
DA:6307,52
DA:6308,51
DA:6309,1596
DA:6310,1558
DA:6311,1558
DA:6312,14
DA:6317,14
DA:6323,0
DA:6324,0
DA:6325,0
DA:6326,0
DA:6327,0
DA:6328,0
DA:6330,0
DA:6331,0
DA:6332,0
DA:6334,0
DA:6335,0
DA:6339,0
DA:6342,0
DA:6344,0
DA:6346,0
DA:6347,0
DA:6349,0
DA:6350,0
DA:6351,0
DA:6352,0
DA:6353,0
DA:6354,0
DA:6355,0
DA:6356,0
DA:6359,0
DA:6361,0
DA:6363,0
DA:6364,0
DA:6365,0
DA:6368,0
DA:6370,0
DA:6374,0
DA:6376,0
DA:6377,0
DA:6378,0
DA:6379,0
DA:6380,0
DA:6381,0
DA:6382,0
DA:6383,0
DA:6384,0
DA:6385,0
DA:6386,0
DA:6387,0
DA:6388,0
DA:6390,0
DA:6391,0
DA:6392,0
DA:6394,0
DA:6401,0
DA:6403,0
DA:6404,0
DA:6405,0
DA:6407,0
DA:6412,9646
DA:6413,9646
DA:6417,13
DA:6421,9646
DA:6425,7672
DA:6426,7672
DA:6427,7646
DA:6429,26
DA:6430,0
DA:6432,26
DA:6437,0
DA:6439,0
DA:6442,0
DA:6443,0
DA:6446,0
DA:6447,0
DA:6449,0
DA:6452,14
DA:6453,140
DA:6455,126
DA:6457,126
DA:6459,14
DA:6472,0
DA:6475,0
DA:6484,12582
DA:6486,772
DA:6490,772
DA:6492,772
DA:6498,0
DA:6499,0
DA:6500,0
DA:6501,0
DA:6502,0
DA:6512,90
DA:6515,90
DA:6518,90
DA:6519,270
DA:6520,90
DA:6521,90
DA:6524,10
DA:6527,10
DA:6534,10
DA:6537,10
DA:6538,90
DA:6550,60
DA:6552,60
DA:6555,60
DA:6558,0
DA:6559,0
DA:6566,0
DA:6568,0
DA:6571,0
DA:6574,0
DA:6583,30
DA:6585,30
DA:6588,30
DA:6591,10
DA:6592,10
DA:6601,0
DA:6602,0
DA:6603,0
DA:6604,0
DA:6605,0
DA:6606,0
DA:6618,0
DA:6619,0
DA:6625,0
DA:6626,0
DA:6627,0
DA:6628,0
DA:6629,0
DA:6632,0
DA:6634,0
DA:6635,0
DA:6636,0
DA:6637,0
DA:6647,0
DA:6748,10
DA:6758,10
DA:6759,10
DA:6760,10
DA:6761,10
DA:6762,10
DA:6763,10
DA:6764,10
DA:6765,10
DA:6766,20
DA:6767,0
DA:6768,0
DA:6769,0
DA:6770,0
DA:6771,0
DA:6772,0
DA:6773,0
DA:6774,0
DA:6775,0
DA:6776,0
DA:6777,0
DA:6778,0
DA:6779,0
DA:6780,0
DA:6784,0
DA:6785,0
DA:6786,0
DA:6787,0
DA:6788,0
DA:6790,0
DA:6791,0
DA:6792,0
DA:6793,0
DA:6794,0
DA:6795,0
DA:6796,0
DA:6798,0
DA:6805,14
DA:6806,14
DA:6807,24
DA:6808,10
DA:6809,10
DA:6813,10
DA:6814,10
DA:6817,0
DA:6818,0
DA:6819,0
DA:6822,0
DA:6825,0
DA:6830,10
DA:6831,0
DA:6835,10
DA:6838,10
DA:6842,10
DA:6846,14
DA:6850,0
DA:6852,14
DA:6860,14
DA:6910,14
DA:6923,14
DA:6924,0
DA:6925,0
DA:6926,0
DA:6933,14
DA:6935,14
DA:6937,14
DA:6939,38
DA:6940,38
DA:6941,48
DA:6956,14
DA:6957,14
DA:6971,14
DA:6975,14
DA:6977,14
DA:6981,0
DA:6985,0
DA:6987,0
DA:6991,0
DA:6993,0
DA:6994,0
DA:6995,0
DA:6996,0
DA:7001,0
DA:7003,0
DA:7011,0
DA:7014,0
DA:7015,0
DA:7016,0
DA:7017,0
DA:7018,0
DA:7020,0
DA:7023,0
DA:7027,0
DA:7035,0
DA:7042,0
DA:7043,0
DA:7044,0
DA:7045,0
DA:7049,0
DA:7059,0
DA:7060,0
DA:7069,0
DA:7070,0
DA:7071,0
DA:7072,0
DA:7073,0
DA:7075,0
DA:7076,0
DA:7079,0
DA:7080,0
DA:7081,0
LF:2730
LH:919
end_of_record
TN:
SF:/home/runner/work/fakelua/fakelua/build_cov/src/location.hh
FN:157,162,_ZN2yylsIcEERSt13basic_ostreamIT_St11char_traitsIS2_EES6_RKNS_8positionE
FN:285,299,_ZN2yylsIcEERSt13basic_ostreamIT_St11char_traitsIS2_EES6_RKNS_8locationE
FNDA:115964,_ZN2yylsIcEERSt13basic_ostreamIT_St11char_traitsIS2_EES6_RKNS_8positionE
FNDA:115964,_ZN2yylsIcEERSt13basic_ostreamIT_St11char_traitsIS2_EES6_RKNS_8locationE
FNF:2
FNH:2
DA:69,1201905
DA:79,3571
DA:83,3571
DA:84,3571
DA:85,3571
DA:91,31931
DA:93,31931
DA:95,31931
DA:96,31931
DA:101,503512
DA:103,503512
DA:116,535443
DA:118,31931
DA:124,503512
DA:126,503512
DA:127,503512
DA:157,115964
DA:159,115964
DA:160,115964
DA:161,115964
DA:180,1201905
DA:181,1201905
DA:182,7152
DA:195,3571
DA:199,3571
DA:200,3571
DA:207,223799
DA:209,31931
DA:210,142924
DA:213,503512
DA:215,503512
DA:216,278295
DA:219,31931
DA:221,63862
DA:285,115964
DA:287,115964
DA:288,115964
DA:289,115964
DA:290,115964
DA:291,115964
DA:292,115964
DA:293,0
DA:294,115964
DA:295,0
DA:296,115964
DA:297,43054
DA:298,115964
LF:47
LH:45
end_of_record
TN:
SF:/home/runner/work/fakelua/fakelua/build_cov/src/parser.cpp
FN:155,164,_ZN2yy6parserC2EPN7fakelua8MyFlexerE
FN:166,167,_ZN2yy6parserD0Ev
FN:166,167,_ZN2yy6parserD2Ev
FN:169,170,_ZN2yy6parser12syntax_errorD0Ev
FN:169,170,_ZN2yy6parser12syntax_errorD2Ev
FN:179,181,_ZN2yy6parser8by_stateC2Ev
FN:183,185,_ZN2yy6parser8by_stateC2ERKS1_
FN:188,191,_ZN2yy6parser8by_state5clearEv
FN:194,198,_ZN2yy6parser8by_state4moveERS1_
FN:200,202,_ZN2yy6parser8by_stateC2Eh
FN:205,211,_ZNK2yy6parser8by_state4kindEv
FN:213,214,_ZN2yy6parser17stack_symbol_typeC2Ev
FN:216,261,_ZN2yy6parser17stack_symbol_typeC2EOS1_
FN:263,306,_ZN2yy6parser17stack_symbol_typeC2EhONS0_11symbol_typeE
FN:2962,2965,_ZN2yy6parser5errorERKNS0_12syntax_errorE
FN:2968,2985,_ZN2yy6parser11symbol_nameENS0_11symbol_kind16symbol_kind_typeE
FN:2990,2993,_ZN2yy6parser7contextC2ERKS0_RKNS0_11symbol_typeE
FN:2996,3026,_ZNK2yy6parser7context15expected_tokensEPNS0_11symbol_kind16symbol_kind_typeEi
FN:3032,3106,_ZNK2yy6parser13yy_lac_check_ENS0_11symbol_kind16symbol_kind_typeE
FN:3110,3146,_ZN2yy6parser17yy_lac_establish_ENS0_11symbol_kind16symbol_kind_typeE
FN:3150,3169,_ZN2yy6parser15yy_lac_discard_EPKc
FN:3173,3207,_ZNK2yy6parser26yy_syntax_error_arguments_ERKNS0_7contextEPNS0_11symbol_kind16symbol_kind_typeEi
FN:3211,3248,_ZNK2yy6parser15yysyntax_error_B5cxx11ERKNS0_7contextE
FN:3709,3718,_ZNK2yy6parser15yy_stack_print_Ev
FN:3721,3732,_ZNK2yy6parser16yy_reduce_print_Ei
FN:406,410,_ZNK2yy6parser11yy_destroy_INS0_7by_kindEEEvPKcRNS0_12basic_symbolIT_EE
FN:406,410,_ZNK2yy6parser11yy_destroy_INS0_8by_stateEEEvPKcRNS0_12basic_symbolIT_EE
FN:415,415,_ZNK2yy6parser9yy_print_INS0_7by_kindEEEvRSoRKNS0_12basic_symbolIT_EE
FN:415,415,_ZNK2yy6parser9yy_print_INS0_8by_stateEEEvRSoRKNS0_12basic_symbolIT_EE
FN:594,599,_ZN2yy6parser7yypush_EPKcONS0_17stack_symbol_typeE
FN:602,610,_ZN2yy6parser7yypush_EPKchONS0_11symbol_typeE
FN:613,616,_ZN2yy6parser6yypop_Ei
FN:620,623,_ZNK2yy6parser12debug_streamEv
FN:626,629,_ZN2yy6parser16set_debug_streamERSo
FN:633,636,_ZNK2yy6parser11debug_levelEv
FN:639,642,_ZN2yy6parser15set_debug_levelEi
FN:646,653,_ZN2yy6parser17yy_lr_goto_state_Ehi
FN:656,659,_ZN2yy6parser25yy_pact_value_is_default_Ei
FN:662,665,_ZN2yy6parser24yy_table_value_is_error_Ei
FN:668,671,_ZN2yy6parserclEv
FN:674,674,_ZN2yy6parser5parseEv
FNDA:3571,_ZN2yy6parserC2EPN7fakelua8MyFlexerE
FNDA:0,_ZN2yy6parserD0Ev
FNDA:3571,_ZN2yy6parserD2Ev
FNDA:0,_ZN2yy6parser12syntax_errorD0Ev
FNDA:3,_ZN2yy6parser12syntax_errorD2Ev
FNDA:1194753,_ZN2yy6parser8by_stateC2Ev
FNDA:0,_ZN2yy6parser8by_stateC2ERKS1_
FNDA:1903641,_ZN2yy6parser8by_state5clearEv
FNDA:294682,_ZN2yy6parser8by_state4moveERS1_
FNDA:414206,_ZN2yy6parser8by_stateC2Eh
FNDA:2198323,_ZNK2yy6parser8by_state4kindEv
FNDA:1194753,_ZN2yy6parser17stack_symbol_typeC2Ev
FNDA:294682,_ZN2yy6parser17stack_symbol_typeC2EOS1_
FNDA:119524,_ZN2yy6parser17stack_symbol_typeC2EhONS0_11symbol_typeE
FNDA:3,_ZN2yy6parser5errorERKNS0_12syntax_errorE
FNDA:6481,_ZN2yy6parser11symbol_nameENS0_11symbol_kind16symbol_kind_typeE
FNDA:4,_ZN2yy6parser7contextC2ERKS0_RKNS0_11symbol_typeE
FNDA:4,_ZNK2yy6parser7context15expected_tokensEPNS0_11symbol_kind16symbol_kind_typeEi
FNDA:45926,_ZNK2yy6parser13yy_lac_check_ENS0_11symbol_kind16symbol_kind_typeE
FNDA:73179,_ZN2yy6parser17yy_lac_establish_ENS0_11symbol_kind16symbol_kind_typeE
FNDA:119524,_ZN2yy6parser15yy_lac_discard_EPKc
FNDA:4,_ZNK2yy6parser26yy_syntax_error_arguments_ERKNS0_7contextEPNS0_11symbol_kind16symbol_kind_typeEi
FNDA:4,_ZNK2yy6parser15yysyntax_error_B5cxx11ERKNS0_7contextE
FNDA:0,_ZNK2yy6parser15yy_stack_print_Ev
FNDA:0,_ZNK2yy6parser16yy_reduce_print_Ei
FNDA:0,_ZNK2yy6parser11yy_destroy_INS0_7by_kindEEEvPKcRNS0_12basic_symbolIT_EE
FNDA:7128,_ZNK2yy6parser11yy_destroy_INS0_8by_stateEEEvPKcRNS0_12basic_symbolIT_EE
FNDA:0,_ZNK2yy6parser9yy_print_INS0_7by_kindEEEvRSoRKNS0_12basic_symbolIT_EE
FNDA:0,_ZNK2yy6parser9yy_print_INS0_8by_stateEEEvRSoRKNS0_12basic_symbolIT_EE
FNDA:294682,_ZN2yy6parser7yypush_EPKcONS0_17stack_symbol_typeE
FNDA:119524,_ZN2yy6parser7yypush_EPKchONS0_11symbol_typeE
FNDA:185865,_ZN2yy6parser6yypop_Ei
FNDA:0,_ZNK2yy6parser12debug_streamEv
FNDA:0,_ZN2yy6parser16set_debug_streamERSo
FNDA:0,_ZNK2yy6parser11debug_levelEv
FNDA:0,_ZN2yy6parser15set_debug_levelEi
FNDA:269973,_ZN2yy6parser17yy_lr_goto_state_Ehi
FNDA:431859,_ZN2yy6parser25yy_pact_value_is_default_Ei
FNDA:50632,_ZN2yy6parser24yy_table_value_is_error_Ei
FNDA:0,_ZN2yy6parserclEv
FNDA:3571,_ZN2yy6parser5parseEv
FNF:41
FNH:28
DA:155,3571
DA:157,3571
DA:158,3571
DA:162,3571
DA:163,3571
DA:164,3571
DA:166,3571
DA:167,3571
DA:169,3
DA:170,3
DA:179,1194753
DA:180,1194753
DA:181,1194753
DA:183,0
DA:184,0
DA:185,0
DA:188,1903641
DA:190,1903641
DA:191,1903641
DA:194,294682
DA:196,294682
DA:197,294682
DA:198,294682
DA:200,414206
DA:201,414206
DA:202,414206
DA:205,2198323
DA:207,2198323
DA:210,582222
DA:213,1194753
DA:214,1194753
DA:216,294682
DA:217,294682
DA:219,294682
DA:221,0
DA:222,0
DA:223,0
DA:224,0
DA:225,0
DA:226,0
DA:227,0
DA:228,0
DA:229,0
DA:230,0
DA:231,0
DA:232,0
DA:233,0
DA:234,0
DA:235,0
DA:236,0
DA:237,0
DA:238,0
DA:239,0
DA:240,0
DA:241,0
DA:242,0
DA:243,0
DA:244,0
DA:247,0
DA:248,0
DA:249,0
DA:250,0
DA:259,294682
DA:261,294682
DA:263,119524
DA:264,119524
DA:266,119524
DA:268,0
DA:269,0
DA:270,0
DA:271,0
DA:272,0
DA:273,0
DA:274,0
DA:275,0
DA:276,0
DA:277,0
DA:278,0
DA:279,0
DA:280,0
DA:281,0
DA:282,0
DA:283,0
DA:284,0
DA:285,0
DA:286,0
DA:287,0
DA:288,0
DA:289,0
DA:290,0
DA:291,0
DA:294,46588
DA:295,46588
DA:296,46588
DA:297,93176
DA:305,119524
DA:306,119524
DA:406,7128
DA:408,7128
DA:409,7128
DA:410,7128
DA:415,0
DA:417,0
DA:419,0
DA:420,0
DA:423,0
DA:426,0
DA:427,0
DA:429,0
DA:435,0
DA:441,0
DA:447,0
DA:453,0
DA:459,0
DA:465,0
DA:471,0
DA:477,0
DA:483,0
DA:489,0
DA:495,0
DA:501,0
DA:507,0
DA:513,0
DA:519,0
DA:525,0
DA:531,0
DA:537,0
DA:543,0
DA:549,0
DA:555,0
DA:561,0
DA:567,0
DA:573,0
DA:579,0
DA:588,0
DA:590,0
DA:594,294682
DA:596,294682
DA:597,115953
DA:598,294682
DA:599,294682
DA:602,119524
DA:605,119524
DA:610,119524
DA:613,185865
DA:615,185865
DA:616,185865
DA:620,0
DA:622,0
DA:626,0
DA:628,0
DA:629,0
DA:633,0
DA:635,0
DA:639,0
DA:641,0
DA:642,0
DA:646,269973
DA:648,269973
DA:649,269973
DA:650,106698
DA:652,163275
DA:656,431859
DA:658,431859
DA:662,50632
DA:664,50632
DA:668,0
DA:670,0
DA:674,3571
DA:676,3571
DA:678,3571
DA:681,3571
DA:682,3571
DA:685,3571
DA:688,24997
DA:691,3571
DA:695,3571
DA:698,3571
DA:701,3571
DA:708,3571
DA:709,3571
DA:714,294682
DA:715,294682
DA:716,294682
DA:719,294682
DA:720,3564
DA:722,291118
DA:728,291118
DA:730,291118
DA:731,291118
DA:732,101983
DA:735,189135
DA:737,115960
DA:739,115960
DA:742,115960
DA:743,115957
DA:744,115957
DA:746,3
DA:748,3
DA:749,3
DA:750,0
DA:751,3
DA:754,189132
DA:756,189132
DA:762,0
DA:763,0
DA:768,189132
DA:769,189132
DA:771,70710
DA:772,4
DA:773,70706
DA:777,118422
DA:778,118422
DA:780,2469
DA:781,0
DA:782,2469
DA:783,0
DA:785,2469
DA:786,2469
DA:790,115953
DA:791,0
DA:794,115953
DA:795,115953
DA:796,115953
DA:802,172689
DA:803,172689
DA:804,172689
DA:805,0
DA:806,172689
DA:812,175158
DA:813,175158
DA:814,175158
DA:815,175158
DA:816,175158
DA:820,175158
DA:822,172484
DA:823,172484
DA:824,172484
DA:825,172484
DA:826,172484
DA:827,172484
DA:828,172484
DA:829,172484
DA:830,172484
DA:831,172484
DA:832,172484
DA:833,172484
DA:834,172484
DA:835,172484
DA:836,172484
DA:837,172484
DA:838,172484
DA:839,172484
DA:840,172484
DA:841,172484
DA:842,172484
DA:843,172484
DA:844,172484
DA:845,172484
DA:846,172484
DA:848,0
DA:849,0
DA:850,0
DA:851,0
DA:852,0
DA:860,175158
DA:861,175158
DA:862,175158
DA:863,175158
DA:867,175158
DA:869,175158
DA:872,175158
DA:874,3564
DA:883,117
DA:890,117
DA:892,10539
DA:905,10539
DA:907,9108
DA:925,9108
DA:927,4946
DA:934,4946
DA:936,31
DA:943,31
DA:945,2411
DA:965,2411
DA:967,157
DA:974,157
DA:976,19
DA:983,19
DA:985,137
DA:992,137
DA:994,9
DA:1003,9
DA:1005,71
DA:1012,71
DA:1014,323
DA:1034,323
DA:1036,165
DA:1056,165
DA:1058,190
DA:1090,190
DA:1092,466
DA:1118,466
DA:1120,591
DA:1147,591
DA:1149,128
DA:1182,128
DA:1184,202
DA:1210,202
DA:1212,4351
DA:1232,4351
DA:1234,201
DA:1249,201
DA:1251,42
DA:1265,42
DA:1267,5207
DA:1287,5207
DA:1289,5212
DA:1299,5212
DA:1301,37
DA:1311,37
DA:1313,199
DA:1327,199
DA:1329,5
DA:1343,5
DA:1345,543
DA:1352,543
DA:1354,113
DA:1374,113
DA:1376,96
DA:1400,96
DA:1402,16
DA:1411,16
DA:1413,4930
DA:1427,4930
DA:1429,19
DA:1438,19
DA:1440,4355
DA:1449,4355
DA:1451,28
DA:1464,28
DA:1466,4343
DA:1480,4343
DA:1482,12
DA:1497,12
DA:1499,2411
DA:1513,2411
DA:1515,53
DA:1533,53
DA:1535,17644
DA:1545,17644
DA:1547,850
DA:1568,850
DA:1570,164
DA:1586,164
DA:1588,2849
DA:1597,2849
DA:1599,2603
DA:1612,2603
DA:1614,13344
DA:1628,13344
DA:1630,693
DA:1648,693
DA:1650,163
DA:1659,163
DA:1661,71
DA:1670,71
DA:1672,69
DA:1681,69
DA:1683,11295
DA:1693,11295
DA:1695,820
DA:1705,820
DA:1707,41
DA:1716,41
DA:1718,5
DA:1733,5
DA:1735,15454
DA:1750,15454
DA:1752,713
DA:1767,713
DA:1769,2121
DA:1793,2121
DA:1795,585
DA:1819,585
DA:1821,455
DA:1845,455
DA:1847,79
DA:1871,79
DA:1873,192
DA:1897,192
DA:1899,94
DA:1923,94
DA:1925,215
DA:1949,215
DA:1951,117
DA:1975,117
DA:1977,74
DA:2001,74
DA:2003,69
DA:2027,69
DA:2029,101
DA:2053,101
DA:2055,85
DA:2079,85
DA:2081,165
DA:2105,165
DA:2107,255
DA:2131,255
DA:2133,211
DA:2157,211
DA:2159,833
DA:2183,833
DA:2185,306
DA:2209,306
DA:2211,278
DA:2235,278
DA:2237,82
DA:2261,82
DA:2263,205
DA:2287,205
DA:2289,253
DA:2313,253
DA:2315,116
DA:2333,116
DA:2335,45
DA:2353,45
DA:2355,49
DA:2373,49
DA:2375,69
DA:2393,69
DA:2395,16194
DA:2410,16194
DA:2412,606
DA:2427,606
DA:2429,431
DA:2444,431
DA:2446,749
DA:2466,749
DA:2468,14
DA:2489,14
DA:2491,594
DA:2506,594
DA:2508,127
DA:2517,127
DA:2519,21
DA:2534,21
DA:2536,21
DA:2549,21
DA:2551,5
DA:2565,5
DA:2567,2672
DA:2587,2672
DA:2589,1885
DA:2603,1885
DA:2605,2630
DA:2619,2630
DA:2621,17
DA:2636,17
DA:2638,25
DA:2647,25
DA:2649,616
DA:2663,616
DA:2665,118
DA:2673,118
DA:2675,616
DA:2689,616
DA:2691,2674
DA:2709,2674
DA:2711,329
DA:2732,329
DA:2734,340
DA:2750,340
DA:2752,2621
DA:2767,2621
DA:2769,2674
DA:2778,0
DA:2795,0
DA:2797,0
DA:2798,0
DA:2799,0
DA:2800,0
DA:2802,175158
DA:2803,175158
DA:2804,175158
DA:2807,175158
DA:2808,0
DA:2809,175158
DA:2815,4
DA:2817,4
DA:2819,4
DA:2820,4
DA:2821,4
DA:2822,4
DA:2823,4
DA:2826,0
DA:2827,0
DA:2833,0
DA:2834,0
DA:2835,0
DA:2837,0
DA:2838,0
DA:2843,0
DA:2849,0
DA:2852,0
DA:2857,0
DA:2858,0
DA:2859,0
DA:2860,0
DA:2866,0
DA:2867,0
DA:2869,0
DA:2871,0
DA:2872,0
DA:2874,0
DA:2875,0
DA:2876,0
DA:2878,0
DA:2879,0
DA:2885,0
DA:2886,0
DA:2888,0
DA:2889,0
DA:2890,0
DA:2891,0
DA:2893,0
DA:2894,0
DA:2896,0
DA:2897,0
DA:2900,0
DA:2901,0
DA:2902,0
DA:2903,0
DA:2904,0
DA:2910,3564
DA:2911,3564
DA:2912,3564
DA:2918,0
DA:2919,0
DA:2920,0
DA:2926,3564
DA:2927,3564
DA:2928,0
DA:2932,3564
DA:2933,3564
DA:2934,10692
DA:2936,7128
DA:2937,7128
DA:2940,3564
DA:2943,7
DA:2945,7
DA:2948,7
DA:2949,7
DA:2951,22
DA:2953,15
DA:2954,15
DA:2956,7
DA:2957,7
DA:2959,17848
DA:2962,3
DA:2964,3
DA:2965,0
DA:2968,6481
DA:2970,6481
DA:2984,6481
DA:2990,4
DA:2991,4
DA:2992,4
DA:2993,4
DA:2996,4
DA:2999,4
DA:3004,4
DA:3005,0
DA:3008,252
DA:3010,248
DA:3011,248
DA:3012,248
DA:3013,248
DA:3015,12
DA:3016,0
DA:3017,12
DA:3020,12
DA:3023,4
DA:3024,0
DA:3032,45926
DA:3036,45926
DA:3039,45926
DA:3042,235556
DA:3044,140741
DA:3045,140741
DA:3046,94815
DA:3047,140741
DA:3048,140741
DA:3049,119101
DA:3050,255499
DA:3053,92578
DA:3054,92578
DA:3056,232
DA:3057,232
DA:3063,48163
DA:3064,48163
DA:3066,0
DA:3067,0
DA:3069,48163
DA:3071,45694
DA:3072,45694
DA:3074,2469
DA:3077,94815
DA:3079,94815
DA:3080,94815
DA:3082,94815
DA:3083,94815
DA:3085,459
DA:3088,94356
DA:3090,48674
DA:3091,48674
DA:3095,94815
DA:3098,94815
DA:3099,94815
DA:3100,459
DA:3102,94815
DA:3103,94815
DA:3104,94815
DA:3105,94815
DA:3110,73179
DA:3135,73179
DA:3140,45686
DA:3141,0
DA:3143,45686
DA:3144,45686
DA:3150,119524
DA:3163,119524
DA:3165,45682
DA:3166,0
DA:3167,45682
DA:3169,119524
DA:3173,4
DA:3199,4
DA:3201,4
DA:3202,4
DA:3203,4
DA:3204,4
DA:3211,4
DA:3214,4
DA:3216,4
DA:3217,4
DA:3219,4
DA:3220,4
DA:3228,0
DA:3229,0
DA:3230,0
DA:3231,4
DA:3232,0
DA:3236,4
DA:3238,4
DA:3239,200
DA:3240,196
DA:3242,16
DA:3243,16
DA:3246,376
DA:3247,4
DA:3709,0
DA:3711,0
DA:3712,0
DA:3713,0
DA:3714,0
DA:3715,0
DA:3716,0
DA:3717,0
DA:3718,0
DA:3721,0
DA:3723,0
DA:3724,0
DA:3726,0
DA:3727,0
DA:3729,0
DA:3730,0
DA:3732,0
LF:678
LH:485
end_of_record
TN:
SF:/home/runner/work/fakelua/fakelua/build_cov/src/parser.h
FN:1885,1888,_ZN2yy6parser15make_IDENTIFIERENSt7__cxx1112basic_stringIcSt11char_traitsIcESaIcEEENS_8locationE
FN:1900,1903,_ZN2yy6parser11make_STRINGENSt7__cxx1112basic_stringIcSt11char_traitsIcESaIcEEENS_8locationE
FN:1915,1918,_ZN2yy6parser11make_NUMBERENSt7__cxx1112basic_stringIcSt11char_traitsIcESaIcEEENS_8locationE
FN:2161,2165,_ZN2yy6parser5stackINS0_17stack_symbol_typeESt6vectorIS2_SaIS2_EEE4pushEOS2_
FN:2354,2396,_ZN2yy6parser12basic_symbolINS0_7by_kindEE4moveERS3_
FN:2354,2396,_ZN2yy6parser12basic_symbolINS0_8by_stateEE4moveERS3_
FN:687,690,_ZN2yy6parser12basic_symbolINS0_8by_stateEEC2Ev
FN:791,843,_ZN2yy6parser12basic_symbolINS0_7by_kindEE5clearEv
FN:791,843,_ZN2yy6parser12basic_symbolINS0_8by_stateEE5clearEv
FNDA:34452,_ZN2yy6parser15make_IDENTIFIERENSt7__cxx1112basic_stringIcSt11char_traitsIcESaIcEEENS_8locationE
FNDA:841,_ZN2yy6parser11make_STRINGENSt7__cxx1112basic_stringIcSt11char_traitsIcESaIcEEENS_8locationE
FNDA:11295,_ZN2yy6parser11make_NUMBERENSt7__cxx1112basic_stringIcSt11char_traitsIcESaIcEEENS_8locationE
FNDA:294682,_ZN2yy6parser5stackINS0_17stack_symbol_typeESt6vectorIS2_SaIS2_EEE4pushEOS2_
FNDA:115957,_ZN2yy6parser12basic_symbolINS0_7by_kindEE4moveERS3_
FNDA:294682,_ZN2yy6parser12basic_symbolINS0_8by_stateEE4moveERS3_
FNDA:1194753,_ZN2yy6parser12basic_symbolINS0_8by_stateEEC2Ev
FNDA:119528,_ZN2yy6parser12basic_symbolINS0_7by_kindEE5clearEv
FNDA:1608959,_ZN2yy6parser12basic_symbolINS0_8by_stateEE5clearEv
FNF:9
FNH:9
DA:229,1681899
DA:230,55502667
DA:231,1681899
DA:236,46588
DA:237,46588
DA:240,46588
DA:251,1728487
DA:253,1728487
DA:260,484732
DA:264,484732
DA:265,172484
DA:312,377016
DA:317,163727
DA:328,0
DA:368,312248
DA:370,452012
DA:371,312248
DA:372,46588
DA:386,531320
DA:388,312248
DA:389,46588
DA:390,219072
DA:403,423604
DA:405,306269
DA:414,0
DA:477,3
DA:478,3
DA:479,3
DA:687,1198324
DA:688,1194753
DA:689,1198324
DA:690,1194753
DA:745,483575
DA:747,967150
DA:771,46588
DA:773,93176
DA:774,93176
DA:785,1728487
DA:787,1728487
DA:788,1728487
DA:791,1728487
DA:794,1728487
DA:795,1728487
DA:804,1728487
DA:806,172484
DA:829,341404
DA:832,46588
DA:835,46588
DA:842,1728487
DA:843,1728487
DA:846,6465
DA:848,0
DA:915,119528
DA:921,3571
DA:925,69369
DA:926,138738
DA:933,69369
DA:938,46588
DA:939,93176
DA:946,46588
DA:1000,3564
DA:1002,3564
DA:1045,9006
DA:1047,9006
DA:1060,701
DA:1062,701
DA:1075,2121
DA:1077,2121
DA:1090,455
DA:1092,455
DA:1105,79
DA:1107,79
DA:1120,5713
DA:1122,5713
DA:1135,5709
DA:1137,5709
DA:1150,734
DA:1152,734
DA:1165,734
DA:1167,734
DA:1180,1179
DA:1182,1179
DA:1195,1179
DA:1197,1179
DA:1210,205
DA:1212,205
DA:1225,137
DA:1227,137
DA:1240,1315
DA:1242,1315
DA:1255,190
DA:1257,190
DA:1270,209
DA:1272,209
DA:1285,6532
DA:1287,6532
DA:1300,69
DA:1302,69
DA:1315,921
DA:1317,921
DA:1330,4564
DA:1332,4564
DA:1345,656
DA:1347,656
DA:1360,202
DA:1362,202
DA:1375,5450
DA:1377,5450
DA:1390,163
DA:1392,163
DA:1405,45
DA:1407,45
DA:1420,253
DA:1422,253
DA:1435,165
DA:1437,165
DA:1450,4946
DA:1452,4946
DA:1465,865
DA:1467,865
DA:1480,71
DA:1482,71
DA:1495,165
DA:1497,165
DA:1510,323
DA:1512,323
DA:1525,9
DA:1527,9
DA:1540,192
DA:1542,192
DA:1555,165
DA:1557,165
DA:1570,83
DA:1572,83
DA:1585,278
DA:1587,278
DA:1600,306
DA:1602,306
DA:1615,211
DA:1617,211
DA:1630,82
DA:1632,82
DA:1645,85
DA:1647,85
DA:1660,101
DA:1662,101
DA:1675,38
DA:1677,38
DA:1690,31
DA:1692,31
DA:1705,26
DA:1707,26
DA:1720,7091
DA:1722,7091
DA:1735,192
DA:1737,192
DA:1750,94
DA:1752,94
DA:1765,215
DA:1767,215
DA:1780,117
DA:1782,117
DA:1795,69
DA:1797,69
DA:1810,143
DA:1812,143
DA:1825,875
DA:1827,875
DA:1840,297
DA:1842,297
DA:1855,49
DA:1857,49
DA:1885,34452
DA:1887,68904
DA:1900,841
DA:1902,1682
DA:1915,11295
DA:1917,22590
DA:1933,4
DA:1934,4
DA:2096,1314277
DA:2119,3571
DA:2128,3571
DA:2129,3571
DA:2143,315440
DA:2145,315440
DA:2152,1315186
DA:2154,1606319
DA:2161,294682
DA:2163,589364
DA:2164,294682
DA:2165,294682
DA:2169,185865
DA:2171,476976
DA:2172,291111
DA:2177,3571
DA:2179,7142
DA:2184,1634212
DA:2186,1365830
DA:2191,0
DA:2193,0
DA:2198,0
DA:2200,0
DA:2207,175158
DA:2208,175158
DA:2209,175158
DA:2213,175158
DA:2215,175158
DA:2284,115957
DA:2286,115957
DA:2347,192703
DA:2349,7
DA:2354,410639
DA:2356,410639
DA:2357,410639
DA:2359,172484
DA:2382,172484
DA:2385,93176
DA:2388,186352
DA:2395,410639
DA:2396,410639
DA:2400,3571
DA:2401,3571
DA:2419,115957
DA:2420,115957
DA:2425,235485
DA:2427,235485
DA:2432,115957
DA:2434,115957
DA:2435,115957
DA:2440,745778
DA:2442,745778
LF:232
LH:225
end_of_record
TN:
SF:/home/runner/work/fakelua/fakelua/build_cov/src/parser.y
FN:1805,1810,_ZN2yy6parser5errorERKNS_8locationERKNSt7__cxx1112basic_stringIcSt11char_traitsIcESaIcEEE
FN:37,43,_Z5yylexPN7fakelua8MyFlexerE
FN:45,45,_ZN11yyFlexLexer5yylexEv
FNDA:7,_ZN2yy6parser5errorERKNS_8locationERKNSt7__cxx1112basic_stringIcSt11char_traitsIcESaIcEEE
FNDA:115960,_Z5yylexPN7fakelua8MyFlexerE
FNDA:0,_ZN11yyFlexLexer5yylexEv
FNF:3
FNH:2
DA:37,115960
DA:38,115960
DA:39,115957
DA:40,115957
DA:41,115957
DA:42,115957
DA:43,115957
DA:45,0
DA:149,0
DA:156,3564
DA:157,3564
DA:158,3564
DA:164,117
DA:165,117
DA:166,117
DA:170,10539
DA:171,10539
DA:172,10539
DA:173,10539
DA:174,10539
DA:175,0
DA:177,10539
DA:178,10539
DA:179,21078
DA:182,9108
DA:183,9108
DA:184,9108
DA:185,9108
DA:186,0
DA:187,0
DA:189,9108
DA:190,9108
DA:191,0
DA:192,0
DA:194,9108
DA:195,9108
DA:196,18216
DA:201,4946
DA:202,4946
DA:203,4946
DA:207,31
DA:208,31
DA:209,31
DA:213,2411
DA:214,2411
DA:215,2411
DA:216,2411
DA:217,2411
DA:218,0
DA:219,0
DA:221,2411
DA:222,0
DA:223,0
DA:225,2411
DA:226,2411
DA:227,2411
DA:228,2411
DA:229,7233
DA:232,157
DA:233,157
DA:234,157
DA:238,19
DA:239,19
DA:240,19
DA:244,137
DA:245,137
DA:246,137
DA:250,9
DA:251,9
DA:252,9
DA:253,9
DA:254,9
DA:255,9
DA:258,71
DA:259,71
DA:260,71
DA:264,323
DA:265,323
DA:266,323
DA:267,323
DA:268,323
DA:269,0
DA:270,0
DA:272,323
DA:273,323
DA:274,323
DA:275,0
DA:276,0
DA:278,323
DA:279,323
DA:280,969
DA:283,165
DA:284,165
DA:285,165
DA:286,165
DA:287,165
DA:288,0
DA:289,0
DA:291,165
DA:292,165
DA:293,165
DA:294,0
DA:295,0
DA:297,165
DA:298,165
DA:299,495
DA:302,190
DA:303,190
DA:304,190
DA:305,190
DA:306,190
DA:307,0
DA:308,0
DA:310,190
DA:311,190
DA:312,190
DA:313,0
DA:314,0
DA:316,190
DA:317,190
DA:318,190
DA:319,0
DA:320,0
DA:322,190
DA:323,190
DA:324,190
DA:325,0
DA:326,0
DA:328,190
DA:329,190
DA:330,950
DA:333,466
DA:334,466
DA:335,466
DA:336,466
DA:337,466
DA:338,0
DA:339,0
DA:341,466
DA:342,466
DA:343,466
DA:344,0
DA:345,0
DA:347,466
DA:348,466
DA:349,466
DA:350,0
DA:351,0
DA:353,466
DA:354,466
DA:355,1864
DA:358,591
DA:359,591
DA:360,591
DA:361,591
DA:362,591
DA:363,591
DA:364,0
DA:365,0
DA:367,591
DA:368,591
DA:369,591
DA:370,0
DA:371,0
DA:373,591
DA:374,591
DA:375,591
DA:376,0
DA:377,0
DA:379,591
DA:380,591
DA:381,2364
DA:384,128
DA:385,128
DA:386,128
DA:387,128
DA:388,128
DA:389,128
DA:390,0
DA:391,0
DA:393,128
DA:394,128
DA:395,128
DA:396,0
DA:397,0
DA:399,128
DA:400,128
DA:401,128
DA:402,0
DA:403,0
DA:405,128
DA:406,128
DA:407,128
DA:408,0
DA:409,0
DA:411,128
DA:412,128
DA:413,640
DA:416,202
DA:417,202
DA:418,202
DA:419,202
DA:420,202
DA:421,0
DA:422,0
DA:424,202
DA:425,202
DA:426,202
DA:427,0
DA:428,0
DA:430,202
DA:431,202
DA:432,202
DA:433,0
DA:434,0
DA:436,202
DA:437,202
DA:438,808
DA:441,4351
DA:442,4351
DA:443,4351
DA:444,4351
DA:445,4351
DA:446,0
DA:447,0
DA:449,4351
DA:450,4351
DA:451,4351
DA:452,0
DA:453,0
DA:455,4351
DA:456,4351
DA:457,13053
DA:460,201
DA:461,201
DA:462,201
DA:463,201
DA:464,201
DA:465,201
DA:466,0
DA:467,0
DA:469,201
DA:470,201
DA:471,402
DA:474,42
DA:475,42
DA:476,42
DA:477,42
DA:478,42
DA:479,0
DA:480,0
DA:482,42
DA:483,42
DA:484,84
DA:487,5207
DA:488,5207
DA:489,5207
DA:490,5207
DA:491,5207
DA:492,0
DA:493,0
DA:495,5207
DA:496,5207
DA:497,5207
DA:498,0
DA:499,0
DA:501,5207
DA:502,5207
DA:503,15621
DA:508,5212
DA:509,5212
DA:510,5212
DA:511,5212
DA:512,10424
DA:513,5212
DA:514,5212
DA:517,37
DA:518,37
DA:519,37
DA:520,37
DA:521,37
DA:522,37
DA:523,37
DA:526,199
DA:527,199
DA:528,199
DA:529,199
DA:530,0
DA:531,0
DA:533,199
DA:534,398
DA:535,199
DA:536,199
DA:539,5
DA:540,5
DA:541,5
DA:542,5
DA:543,0
DA:544,0
DA:546,5
DA:547,5
DA:548,5
DA:549,5
DA:554,543
DA:555,543
DA:556,543
DA:560,113
DA:561,113
DA:562,113
DA:563,113
DA:564,113
DA:565,0
DA:566,0
DA:568,226
DA:569,113
DA:570,113
DA:571,0
DA:572,0
DA:574,226
DA:575,113
DA:576,339
DA:579,96
DA:580,96
DA:581,96
DA:582,96
DA:583,0
DA:584,0
DA:586,96
DA:587,96
DA:588,0
DA:589,0
DA:591,192
DA:592,96
DA:593,96
DA:594,0
DA:595,0
DA:597,192
DA:598,96
DA:599,288
DA:604,16
DA:605,16
DA:606,16
DA:607,16
DA:608,16
DA:609,16
DA:612,4930
DA:613,4930
DA:614,4930
DA:615,4930
DA:616,4930
DA:617,0
DA:618,0
DA:620,4930
DA:621,4930
DA:622,9860
DA:627,19
DA:628,19
DA:629,19
DA:630,19
DA:631,19
DA:632,19
DA:637,4355
DA:638,4355
DA:639,4355
DA:640,4355
DA:641,4355
DA:642,4355
DA:645,28
DA:646,28
DA:647,28
DA:648,28
DA:649,0
DA:650,0
DA:652,28
DA:653,28
DA:654,28
DA:659,4343
DA:660,4343
DA:661,4343
DA:662,4343
DA:663,4343
DA:664,0
DA:665,0
DA:667,4343
DA:668,4343
DA:669,8686
DA:672,12
DA:673,12
DA:674,12
DA:675,12
DA:676,12
DA:677,0
DA:678,0
DA:680,12
DA:681,12
DA:682,12
DA:683,24
DA:688,2411
DA:689,2411
DA:690,2411
DA:691,2411
DA:692,2411
DA:693,0
DA:694,0
DA:696,4822
DA:697,2411
DA:698,4822
DA:701,53
DA:702,53
DA:703,53
DA:704,53
DA:705,0
DA:706,0
DA:708,53
DA:709,53
DA:710,0
DA:711,0
DA:713,106
DA:714,53
DA:715,106
DA:720,17644
DA:721,17644
DA:722,17644
DA:723,17644
DA:724,35288
DA:725,17644
DA:726,17644
DA:729,850
DA:730,850
DA:731,850
DA:732,1700
DA:733,850
DA:734,850
DA:735,0
DA:736,0
DA:738,850
DA:739,850
DA:740,850
DA:741,0
DA:742,0
DA:744,850
DA:745,850
DA:746,2550
DA:749,164
DA:750,164
DA:751,164
DA:752,328
DA:753,164
DA:754,164
DA:755,0
DA:756,0
DA:758,164
DA:759,164
DA:760,164
DA:761,328
DA:766,2849
DA:767,2849
DA:768,2849
DA:769,2849
DA:770,2849
DA:771,2849
DA:774,2603
DA:775,2603
DA:776,2603
DA:777,2603
DA:778,0
DA:779,0
DA:781,2603
DA:782,2603
DA:783,2603
DA:788,13344
DA:789,13344
DA:790,13344
DA:791,13344
DA:792,13344
DA:793,0
DA:794,0
DA:796,26688
DA:797,13344
DA:798,26688
DA:801,693
DA:802,693
DA:803,693
DA:804,693
DA:805,0
DA:806,0
DA:808,693
DA:809,693
DA:810,0
DA:811,0
DA:813,1386
DA:814,693
DA:815,1386
DA:820,163
DA:821,163
DA:822,163
DA:823,326
DA:824,163
DA:825,163
DA:828,71
DA:829,71
DA:830,71
DA:831,142
DA:832,71
DA:833,71
DA:836,69
DA:837,69
DA:838,69
DA:839,138
DA:840,69
DA:841,69
DA:844,11295
DA:845,11295
DA:846,11295
DA:847,22590
DA:848,11295
DA:849,11295
DA:850,11295
DA:853,820
DA:854,820
DA:855,820
DA:856,1640
DA:857,1640
DA:858,820
DA:859,820
DA:862,41
DA:863,41
DA:864,41
DA:865,82
DA:866,41
DA:867,41
DA:870,5
DA:871,5
DA:872,5
DA:873,10
DA:874,5
DA:875,5
DA:876,0
DA:877,0
DA:879,5
DA:880,5
DA:881,10
DA:884,15454
DA:885,15454
DA:886,15454
DA:887,30908
DA:888,15454
DA:889,15454
DA:890,0
DA:891,0
DA:893,15454
DA:894,15454
DA:895,30908
DA:898,713
DA:899,713
DA:900,713
DA:901,1426
DA:902,713
DA:903,713
DA:904,0
DA:905,0
DA:907,713
DA:908,713
DA:909,1426
DA:912,2121
DA:913,2121
DA:914,2121
DA:915,4242
DA:916,2121
DA:917,2121
DA:918,0
DA:919,0
DA:921,2121
DA:922,2121
DA:923,2121
DA:924,0
DA:925,0
DA:927,2121
DA:928,2121
DA:929,4242
DA:930,2121
DA:931,2121
DA:932,8484
DA:935,585
DA:936,585
DA:937,585
DA:938,1170
DA:939,585
DA:940,585
DA:941,0
DA:942,0
DA:944,585
DA:945,585
DA:946,585
DA:947,0
DA:948,0
DA:950,585
DA:951,585
DA:952,1170
DA:953,585
DA:954,585
DA:955,2340
DA:958,455
DA:959,455
DA:960,455
DA:961,910
DA:962,455
DA:963,455
DA:964,0
DA:965,0
DA:967,455
DA:968,455
DA:969,455
DA:970,0
DA:971,0
DA:973,455
DA:974,455
DA:975,910
DA:976,455
DA:977,455
DA:978,1820
DA:981,79
DA:982,79
DA:983,79
DA:984,158
DA:985,79
DA:986,79
DA:987,0
DA:988,0
DA:990,79
DA:991,79
DA:992,79
DA:993,0
DA:994,0
DA:996,79
DA:997,79
DA:998,158
DA:999,79
DA:1000,79
DA:1001,316
DA:1004,192
DA:1005,192
DA:1006,192
DA:1007,384
DA:1008,192
DA:1009,192
DA:1010,0
DA:1011,0
DA:1013,192
DA:1014,192
DA:1015,192
DA:1016,0
DA:1017,0
DA:1019,192
DA:1020,192
DA:1021,384
DA:1022,192
DA:1023,192
DA:1024,768
DA:1027,94
DA:1028,94
DA:1029,94
DA:1030,188
DA:1031,94
DA:1032,94
DA:1033,0
DA:1034,0
DA:1036,94
DA:1037,94
DA:1038,94
DA:1039,0
DA:1040,0
DA:1042,94
DA:1043,94
DA:1044,188
DA:1045,94
DA:1046,94
DA:1047,376
DA:1050,215
DA:1051,215
DA:1052,215
DA:1053,430
DA:1054,215
DA:1055,215
DA:1056,0
DA:1057,0
DA:1059,215
DA:1060,215
DA:1061,215
DA:1062,0
DA:1063,0
DA:1065,215
DA:1066,215
DA:1067,430
DA:1068,215
DA:1069,215
DA:1070,860
DA:1073,117
DA:1074,117
DA:1075,117
DA:1076,234
DA:1077,117
DA:1078,117
DA:1079,0
DA:1080,0
DA:1082,117
DA:1083,117
DA:1084,117
DA:1085,0
DA:1086,0
DA:1088,117
DA:1089,117
DA:1090,234
DA:1091,117
DA:1092,117
DA:1093,468
DA:1096,74
DA:1097,74
DA:1098,74
DA:1099,148
DA:1100,74
DA:1101,74
DA:1102,0
DA:1103,0
DA:1105,74
DA:1106,74
DA:1107,74
DA:1108,0
DA:1109,0
DA:1111,74
DA:1112,74
DA:1113,148
DA:1114,74
DA:1115,74
DA:1116,296
DA:1119,69
DA:1120,69
DA:1121,69
DA:1122,138
DA:1123,69
DA:1124,69
DA:1125,0
DA:1126,0
DA:1128,69
DA:1129,69
DA:1130,69
DA:1131,0
DA:1132,0
DA:1134,69
DA:1135,69
DA:1136,138
DA:1137,69
DA:1138,69
DA:1139,276
DA:1142,101
DA:1143,101
DA:1144,101
DA:1145,202
DA:1146,101
DA:1147,101
DA:1148,0
DA:1149,0
DA:1151,101
DA:1152,101
DA:1153,101
DA:1154,0
DA:1155,0
DA:1157,101
DA:1158,101
DA:1159,202
DA:1160,101
DA:1161,101
DA:1162,404
DA:1165,85
DA:1166,85
DA:1167,85
DA:1168,170
DA:1169,85
DA:1170,85
DA:1171,0
DA:1172,0
DA:1174,85
DA:1175,85
DA:1176,85
DA:1177,0
DA:1178,0
DA:1180,85
DA:1181,85
DA:1182,170
DA:1183,85
DA:1184,85
DA:1185,340
DA:1188,165
DA:1189,165
DA:1190,165
DA:1191,330
DA:1192,165
DA:1193,165
DA:1194,0
DA:1195,0
DA:1197,165
DA:1198,165
DA:1199,165
DA:1200,0
DA:1201,0
DA:1203,165
DA:1204,165
DA:1205,330
DA:1206,165
DA:1207,165
DA:1208,660
DA:1211,255
DA:1212,255
DA:1213,255
DA:1214,510
DA:1215,255
DA:1216,255
DA:1217,0
DA:1218,0
DA:1220,255
DA:1221,255
DA:1222,255
DA:1223,0
DA:1224,0
DA:1226,255
DA:1227,255
DA:1228,510
DA:1229,255
DA:1230,255
DA:1231,1020
DA:1234,211
DA:1235,211
DA:1236,211
DA:1237,422
DA:1238,211
DA:1239,211
DA:1240,0
DA:1241,0
DA:1243,211
DA:1244,211
DA:1245,211
DA:1246,0
DA:1247,0
DA:1249,211
DA:1250,211
DA:1251,422
DA:1252,211
DA:1253,211
DA:1254,844
DA:1257,833
DA:1258,833
DA:1259,833
DA:1260,1666
DA:1261,833
DA:1262,833
DA:1263,0
DA:1264,0
DA:1266,833
DA:1267,833
DA:1268,833
DA:1269,0
DA:1270,0
DA:1272,833
DA:1273,833
DA:1274,1666
DA:1275,833
DA:1276,833
DA:1277,3332
DA:1280,306
DA:1281,306
DA:1282,306
DA:1283,612
DA:1284,306
DA:1285,306
DA:1286,0
DA:1287,0
DA:1289,306
DA:1290,306
DA:1291,306
DA:1292,0
DA:1293,0
DA:1295,306
DA:1296,306
DA:1297,612
DA:1298,306
DA:1299,306
DA:1300,1224
DA:1303,278
DA:1304,278
DA:1305,278
DA:1306,556
DA:1307,278
DA:1308,278
DA:1309,0
DA:1310,0
DA:1312,278
DA:1313,278
DA:1314,278
DA:1315,0
DA:1316,0
DA:1318,278
DA:1319,278
DA:1320,556
DA:1321,278
DA:1322,278
DA:1323,1112
DA:1326,82
DA:1327,82
DA:1328,82
DA:1329,164
DA:1330,82
DA:1331,82
DA:1332,0
DA:1333,0
DA:1335,82
DA:1336,82
DA:1337,82
DA:1338,0
DA:1339,0
DA:1341,82
DA:1342,82
DA:1343,164
DA:1344,82
DA:1345,82
DA:1346,328
DA:1349,205
DA:1350,205
DA:1351,205
DA:1352,410
DA:1353,205
DA:1354,205
DA:1355,0
DA:1356,0
DA:1358,205
DA:1359,205
DA:1360,205
DA:1361,0
DA:1362,0
DA:1364,205
DA:1365,205
DA:1366,410
DA:1367,205
DA:1368,205
DA:1369,820
DA:1372,253
DA:1373,253
DA:1374,253
DA:1375,506
DA:1376,253
DA:1377,253
DA:1378,0
DA:1379,0
DA:1381,253
DA:1382,253
DA:1383,253
DA:1384,0
DA:1385,0
DA:1387,253
DA:1388,253
DA:1389,506
DA:1390,253
DA:1391,253
DA:1392,1012
DA:1395,116
DA:1396,116
DA:1397,116
DA:1398,232
DA:1399,116
DA:1400,232
DA:1401,116
DA:1402,116
DA:1403,116
DA:1404,0
DA:1405,0
DA:1407,116
DA:1408,116
DA:1409,348
DA:1412,45
DA:1413,45
DA:1414,45
DA:1415,90
DA:1416,45
DA:1417,90
DA:1418,45
DA:1419,45
DA:1420,45
DA:1421,0
DA:1422,0
DA:1424,45
DA:1425,45
DA:1426,135
DA:1429,49
DA:1430,49
DA:1431,49
DA:1432,98
DA:1433,49
DA:1434,98
DA:1435,49
DA:1436,49
DA:1437,49
DA:1438,0
DA:1439,0
DA:1441,49
DA:1442,49
DA:1443,147
DA:1446,69
DA:1447,69
DA:1448,69
DA:1449,138
DA:1450,69
DA:1451,138
DA:1452,69
DA:1453,69
DA:1454,69
DA:1455,0
DA:1456,0
DA:1458,69
DA:1459,69
DA:1460,207
DA:1465,16194
DA:1466,16194
DA:1467,16194
DA:1468,32388
DA:1469,16194
DA:1470,16194
DA:1471,0
DA:1472,0
DA:1474,16194
DA:1475,16194
DA:1476,32388
DA:1479,606
DA:1480,606
DA:1481,606
DA:1482,1212
DA:1483,606
DA:1484,606
DA:1485,0
DA:1486,0
DA:1488,606
DA:1489,606
DA:1490,1212
DA:1493,431
DA:1494,431
DA:1495,431
DA:1496,862
DA:1497,431
DA:1498,431
DA:1499,0
DA:1500,0
DA:1502,431
DA:1503,431
DA:1504,862
DA:1508,749
DA:1509,749
DA:1510,749
DA:1511,749
DA:1512,749
DA:1513,0
DA:1514,0
DA:1516,749
DA:1517,749
DA:1518,749
DA:1519,0
DA:1520,0
DA:1522,749
DA:1523,749
DA:1524,2247
DA:1527,14
DA:1528,14
DA:1529,14
DA:1530,14
DA:1531,14
DA:1532,0
DA:1533,0
DA:1535,14
DA:1536,14
DA:1537,14
DA:1538,14
DA:1539,0
DA:1540,0
DA:1542,14
DA:1543,14
DA:1544,42
DA:1549,594
DA:1550,594
DA:1551,594
DA:1552,594
DA:1553,594
DA:1554,0
DA:1555,0
DA:1557,594
DA:1558,1188
DA:1559,594
DA:1560,1188
DA:1563,127
DA:1564,127
DA:1565,127
DA:1566,254
DA:1567,127
DA:1568,127
DA:1571,21
DA:1572,21
DA:1573,21
DA:1574,21
DA:1575,21
DA:1576,0
DA:1577,0
DA:1579,21
DA:1580,42
DA:1581,21
DA:1582,42
DA:1585,21
DA:1586,21
DA:1587,21
DA:1588,21
DA:1589,42
DA:1590,42
DA:1591,21
DA:1592,42
DA:1593,21
DA:1594,42
DA:1599,5
DA:1600,5
DA:1601,5
DA:1602,5
DA:1603,5
DA:1604,0
DA:1605,0
DA:1607,5
DA:1608,5
DA:1609,10
DA:1614,2672
DA:1615,2672
DA:1616,2672
DA:1617,2672
DA:1618,2672
DA:1619,0
DA:1620,0
DA:1622,2672
DA:1623,2672
DA:1624,2672
DA:1625,0
DA:1626,0
DA:1628,2672
DA:1629,2672
DA:1630,8016
DA:1633,1885
DA:1634,1885
DA:1635,1885
DA:1636,1885
DA:1637,1885
DA:1638,0
DA:1639,0
DA:1641,1885
DA:1642,1885
DA:1643,3770
DA:1648,2630
DA:1649,2630
DA:1650,2630
DA:1651,2630
DA:1652,2630
DA:1653,0
DA:1654,0
DA:1656,2630
DA:1657,2630
DA:1658,5260
DA:1661,17
DA:1662,17
DA:1663,17
DA:1664,17
DA:1665,17
DA:1666,0
DA:1667,0
DA:1669,17
DA:1670,17
DA:1671,17
DA:1672,34
DA:1675,25
DA:1676,25
DA:1677,25
DA:1678,25
DA:1679,25
DA:1680,25
DA:1685,616
DA:1686,616
DA:1687,616
DA:1688,616
DA:1689,616
DA:1690,0
DA:1691,0
DA:1693,616
DA:1694,616
DA:1695,1232
DA:1698,118
DA:1699,118
DA:1700,118
DA:1701,118
DA:1702,118
DA:1707,616
DA:1708,616
DA:1709,616
DA:1710,616
DA:1711,616
DA:1712,0
DA:1713,0
DA:1715,1232
DA:1716,616
DA:1717,1232
DA:1720,2674
DA:1721,2674
DA:1722,2674
DA:1723,2674
DA:1724,0
DA:1725,0
DA:1727,2674
DA:1728,2674
DA:1729,0
DA:1730,0
DA:1732,5348
DA:1733,2674
DA:1734,5348
DA:1739,329
DA:1740,329
DA:1741,329
DA:1742,329
DA:1743,329
DA:1744,0
DA:1745,0
DA:1747,329
DA:1748,329
DA:1749,329
DA:1750,0
DA:1751,0
DA:1753,329
DA:1754,658
DA:1755,329
DA:1756,987
DA:1759,340
DA:1760,340
DA:1761,340
DA:1762,340
DA:1763,340
DA:1764,0
DA:1765,0
DA:1767,340
DA:1768,340
DA:1769,680
DA:1770,340
DA:1771,680
DA:1774,2621
DA:1775,2621
DA:1776,2621
DA:1777,2621
DA:1778,2621
DA:1779,0
DA:1780,0
DA:1782,2621
DA:1783,5242
DA:1784,2621
DA:1785,5242
DA:1790,2674
DA:1791,2674
DA:1796,0
DA:1797,0
DA:1805,7
DA:1807,7
DA:1808,7
DA:1809,21
DA:1810,7
LF:1269
LH:1016
end_of_record
TN:
SF:/home/runner/work/fakelua/fakelua/build_cov/src/scanner.cpp
FN:1485,1490,_ZN11yyFlexLexerC2EPSiPSo
FN:1494,1499,_ZN11yyFlexLexerC2ERSiRSo
FN:1503,1527,_ZN11yyFlexLexer11ctor_commonEv
FN:1531,1537,_ZN11yyFlexLexerD0Ev
FN:1531,1537,_ZN11yyFlexLexerD2Ev
FN:1541,1549,_ZN11yyFlexLexer14switch_streamsERSiRSo
FN:1553,1564,_ZN11yyFlexLexer14switch_streamsEPSiPSo
FN:1569,1594,_ZN11yyFlexLexer10LexerInputEPci
FN:1596,1599,_ZN11yyFlexLexer11LexerOutputEPKci
FN:1614,1749,_ZN11yyFlexLexer18yy_get_next_bufferEv
FN:1757,1785,_ZN11yyFlexLexer21yy_get_previous_stateEv
FN:1795,1818,_ZN11yyFlexLexer16yy_try_NUL_transEi
FN:1824,1866,_ZN11yyFlexLexer7yyunputEiPc
FN:1874,1946,_ZN11yyFlexLexer7yyinputEv
FN:1958,1970,_ZN11yyFlexLexer9yyrestartERSi
FN:1978,1984,_ZN11yyFlexLexer9yyrestartEPSi
FN:1994,2024,_ZN11yyFlexLexer19yy_switch_to_bufferEP15yy_buffer_state
FN:2029,2040,_ZN11yyFlexLexer20yy_load_buffer_stateEv
FN:2051,2074,_ZN11yyFlexLexer16yy_create_bufferERSii
FN:2083,2086,_ZN11yyFlexLexer16yy_create_bufferEPSii
FN:2096,2110,_ZN11yyFlexLexer16yy_delete_bufferEP15yy_buffer_state
FN:2119,2149,_ZN11yyFlexLexer14yy_init_bufferEP15yy_buffer_stateRSi
FN:2158,2180,_ZN11yyFlexLexer15yy_flush_bufferEP15yy_buffer_state
FN:2192,2217,_ZN11yyFlexLexer19yypush_buffer_stateEP15yy_buffer_state
FN:2228,2243,_ZN11yyFlexLexer18yypop_buffer_stateEv
FN:2253,2295,_ZN11yyFlexLexer21yyensure_buffer_stackEv
FN:2310,2334,_ZN11yyFlexLexer13yy_push_stateEi
FN:2339,2346,_ZN11yyFlexLexer12yy_pop_stateEv
FN:2351,2355,_ZN11yyFlexLexer12yy_top_stateEv
FN:2364,2368,_ZN11yyFlexLexer10LexerErrorEPKc
FN:2435,2438,_Z7yyallocm
FN:2440,2451,_Z9yyreallocPvm
FN:2453,2456,_Z6yyfreePv
FN:388,388,_ZN11yyFlexLexer6yywrapEv
FN:843,843,_ZN7fakelua8MyFlexer7MyYylexEv
FNDA:3581,_ZN11yyFlexLexerC2EPSiPSo
FNDA:0,_ZN11yyFlexLexerC2ERSiRSo
FNDA:3581,_ZN11yyFlexLexer11ctor_commonEv
FNDA:0,_ZN11yyFlexLexerD0Ev
FNDA:3581,_ZN11yyFlexLexerD2Ev
FNDA:3571,_ZN11yyFlexLexer14switch_streamsERSiRSo
FNDA:3571,_ZN11yyFlexLexer14switch_streamsEPSiPSo
FNDA:7103,_ZN11yyFlexLexer10LexerInputEPci
FNDA:0,_ZN11yyFlexLexer11LexerOutputEPKci
FNDA:10635,_ZN11yyFlexLexer18yy_get_next_bufferEv
FNDA:7071,_ZN11yyFlexLexer21yy_get_previous_stateEv
FNDA:0,_ZN11yyFlexLexer16yy_try_NUL_transEi
FNDA:0,_ZN11yyFlexLexer7yyunputEiPc
FNDA:0,_ZN11yyFlexLexer7yyinputEv
FNDA:3564,_ZN11yyFlexLexer9yyrestartERSi
FNDA:0,_ZN11yyFlexLexer9yyrestartEPSi
FNDA:3571,_ZN11yyFlexLexer19yy_switch_to_bufferEP15yy_buffer_state
FNDA:14270,_ZN11yyFlexLexer20yy_load_buffer_stateEv
FNDA:3571,_ZN11yyFlexLexer16yy_create_bufferERSii
FNDA:0,_ZN11yyFlexLexer16yy_create_bufferEPSii
FNDA:7152,_ZN11yyFlexLexer16yy_delete_bufferEP15yy_buffer_state
FNDA:7135,_ZN11yyFlexLexer14yy_init_bufferEP15yy_buffer_stateRSi
FNDA:7135,_ZN11yyFlexLexer15yy_flush_bufferEP15yy_buffer_state
FNDA:0,_ZN11yyFlexLexer19yypush_buffer_stateEP15yy_buffer_state
FNDA:0,_ZN11yyFlexLexer18yypop_buffer_stateEv
FNDA:3571,_ZN11yyFlexLexer21yyensure_buffer_stackEv
FNDA:4977,_ZN11yyFlexLexer13yy_push_stateEi
FNDA:4972,_ZN11yyFlexLexer12yy_pop_stateEv
FNDA:0,_ZN11yyFlexLexer12yy_top_stateEv
FNDA:0,_ZN11yyFlexLexer10LexerErrorEPKc
FNDA:12168,_Z7yyallocm
FNDA:0,_Z9yyreallocPvm
FNDA:14304,_Z6yyfreePv
FNDA:3564,_ZN11yyFlexLexer6yywrapEv
FNDA:115960,_ZN7fakelua8MyFlexer7MyYylexEv
FNF:35
FNH:22
DA:388,3564
DA:843,115960
DA:845,115960
DA:846,115960
DA:847,115960
DA:849,115960
DA:851,3571
DA:857,3571
DA:858,3571
DA:860,3571
DA:864,0
DA:867,3571
DA:871,0
DA:874,3571
DA:875,0
DA:876,0
DA:877,0
DA:880,3571
DA:883,115960
DA:897,507076
DA:900,507076
DA:903,507076
DA:908,507076
DA:911,507076
DA:912,1262009
DA:913,1262009
DA:915,1262009
DA:916,1262009
DA:918,747689
DA:919,747689
DA:921,2153164
DA:923,891155
DA:924,891155
DA:925,380540
DA:927,1262009
DA:928,1262009
DA:930,1262009
DA:931,510615
DA:932,510615
DA:934,514147
DA:936,514147
DA:938,514147
DA:942,514147
DA:945,70596
DA:946,37824
DA:948,33238
DA:952,481375
DA:955,517711
DA:957,0
DA:958,0
DA:959,0
DA:960,0
DA:961,0
DA:962,0
DA:963,0
DA:964,0
DA:965,0
DA:967,0
DA:970,517711
DA:973,0
DA:975,0
DA:976,0
DA:977,0
DA:978,0
DA:980,5
DA:981,5
DA:1342,10635
DA:1343,10635
DA:1345,10635
DA:1348,10635
DA:1351,10635
DA:1362,3571
DA:1366,3571
DA:1368,3571
DA:1378,10635
DA:1380,0
DA:1382,0
DA:1384,0
DA:1395,0
DA:1397,0
DA:1399,0
DA:1402,0
DA:1403,0
DA:1404,0
DA:1410,0
DA:1411,0
DA:1412,0
DA:1416,10635
DA:1418,3564
DA:1419,3564
DA:1420,3564
DA:1422,3564
DA:1433,3564
DA:1435,3564
DA:1436,3564
DA:1441,0
DA:1442,0
DA:1447,3539
DA:1448,3539
DA:1449,3539
DA:1451,3539
DA:1453,3539
DA:1454,3539
DA:1455,3539
DA:1457,3532
DA:1458,3532
DA:1459,3532
DA:1461,3532
DA:1463,3532
DA:1464,3532
DA:1465,3532
DA:1470,0
DA:1471,0
DA:1485,3581
DA:1486,3581
DA:1487,7162
DA:1489,3581
DA:1490,3581
DA:1494,0
DA:1495,0
DA:1496,0
DA:1498,0
DA:1499,0
DA:1503,3581
DA:1505,3581
DA:1506,3581
DA:1507,3581
DA:1508,3581
DA:1509,3581
DA:1511,3581
DA:1513,3581
DA:1514,3581
DA:1515,3581
DA:1516,3581
DA:1518,3581
DA:1519,3581
DA:1521,3581
DA:1522,3581
DA:1523,3581
DA:1525,3581
DA:1527,3581
DA:1531,3581
DA:1533,3581
DA:1534,3581
DA:1535,3581
DA:1536,3581
DA:1537,3581
DA:1541,3571
DA:1544,3571
DA:1545,3571
DA:1548,3571
DA:1549,3571
DA:1553,3571
DA:1555,3571
DA:1556,0
DA:1559,3571
DA:1560,3571
DA:1563,3571
DA:1564,3571
DA:1569,7103
DA:1572,7103
DA:1587,3571
DA:1589,3571
DA:1592,3571
DA:1596,0
DA:1598,0
DA:1599,0
DA:1614,10635
DA:1617,10635
DA:1618,10635
DA:1619,10635
DA:1620,10635
DA:1622,10635
DA:1623,0
DA:1626,10635
DA:1628,0
DA:1641,0
DA:1648,10635
DA:1650,14259
DA:1651,3624
DA:1653,10635
DA:1657,3532
DA:1661,7103
DA:1662,7103
DA:1664,7103
DA:1668,0
DA:1670,0
DA:1671,0
DA:1673,0
DA:1675,0
DA:1677,0
DA:1678,0
DA:1680,0
DA:1682,0
DA:1684,0
DA:1685,0
DA:1689,0
DA:1691,0
DA:1692,0
DA:1695,0
DA:1697,0
DA:1702,7103
DA:1706,7103
DA:1707,7103
DA:1709,7103
DA:1712,10635
DA:1714,7096
DA:1716,3564
DA:1717,3564
DA:1722,3532
DA:1723,3532
DA:1731,10635
DA:1733,0
DA:1734,0
DA:1735,0
DA:1736,0
DA:1737,0
DA:1739,0
DA:1742,10635
DA:1743,10635
DA:1744,10635
DA:1746,10635
DA:1748,10635
DA:1757,7071
DA:1760,7071
DA:1761,7071
DA:1764,7071
DA:1766,10695
DA:1769,3624
DA:1770,3624
DA:1772,67
DA:1773,67
DA:1775,3644
DA:1777,20
DA:1778,20
DA:1779,20
DA:1781,3624
DA:1784,7071
DA:1795,0
DA:1798,0
DA:1800,0
DA:1802,0
DA:1803,0
DA:1805,0
DA:1806,0
DA:1808,0
DA:1810,0
DA:1811,0
DA:1812,0
DA:1814,0
DA:1815,0
DA:1817,0
DA:1824,0
DA:1827,0
DA:1829,0
DA:1832,0
DA:1834,0
DA:1837,0
DA:1838,0
DA:1839,0
DA:1840,0
DA:1841,0
DA:1843,0
DA:1844,0
DA:1846,0
DA:1847,0
DA:1848,0
DA:1849,0
DA:1851,0
DA:1852,0
DA:1855,0
DA:1859,0
DA:1860,0
DA:1863,0
DA:1864,0
DA:1865,0
DA:1866,0
DA:1874,0
DA:1877,0
DA:1879,0
DA:1881,0
DA:1887,0
DA:1889,0
DA:1893,0
DA:1894,0
DA:1896,0
DA:1898,0
DA:1910,0
DA:1914,0
DA:1915,0
DA:1916,0
DA:1919,0
DA:1920,0
DA:1922,0
DA:1928,0
DA:1929,0
DA:1930,0
DA:1935,0
DA:1936,0
DA:1937,0
DA:1940,0
DA:1942,0
DA:1958,3564
DA:1962,3564
DA:1963,0
DA:1964,0
DA:1965,0
DA:1968,3564
DA:1969,3564
DA:1970,3564
DA:1978,0
DA:1980,0
DA:1981,0
DA:1983,0
DA:1984,0
DA:1994,3571
DA:2003,3571
DA:2004,3571
DA:2007,3571
DA:2010,0
DA:2011,0
DA:2012,0
DA:2015,3571
DA:2016,3571
DA:2023,3571
DA:2029,14270
DA:2032,14270
DA:2033,14270
DA:2037,14270
DA:2039,14270
DA:2040,14270
DA:2051,3571
DA:2054,3571
DA:2056,3571
DA:2057,3571
DA:2058,0
DA:2060,3571
DA:2065,3571
DA:2066,3571
DA:2067,0
DA:2069,3571
DA:2071,3571
DA:2073,3571
DA:2083,0
DA:2085,0
DA:2096,7152
DA:2100,7152
DA:2103,3571
DA:2104,3571
DA:2106,3571
DA:2107,3571
DA:2109,3571
DA:2119,7135
DA:2123,7135
DA:2125,7135
DA:2130,7135
DA:2132,7135
DA:2138,7135
DA:2139,3571
DA:2140,3571
DA:2146,7135
DA:2148,7135
DA:2149,7135
DA:2158,7135
DA:2161,7135
DA:2164,7135
DA:2170,7135
DA:2171,7135
DA:2173,7135
DA:2175,7135
DA:2176,7135
DA:2178,7135
DA:2179,3564
DA:2192,0
DA:2195,0
DA:2198,0
DA:2201,0
DA:2204,0
DA:2205,0
DA:2206,0
DA:2210,0
DA:2211,0
DA:2212,0
DA:2215,0
DA:2216,0
DA:2228,0
DA:2231,0
DA:2234,0
DA:2235,0
DA:2236,0
DA:2237,0
DA:2239,0
DA:2240,0
DA:2241,0
DA:2253,3571
DA:2256,3571
DA:2258,3571
DA:2264,3571
DA:2265,7142
DA:2266,3571
DA:2268,3571
DA:2269,0
DA:2271,3571
DA:2273,3571
DA:2274,3571
DA:2275,3571
DA:2278,0
DA:2281,0
DA:2283,0
DA:2284,0
DA:2285,0
DA:2288,0
DA:2289,0
DA:2292,0
DA:2293,0
DA:2310,4977
DA:2313,4977
DA:2315,1455
DA:2317,1455
DA:2318,1455
DA:2320,1455
DA:2321,1455
DA:2324,0
DA:2327,1455
DA:2328,0
DA:2331,4977
DA:2333,4977
DA:2334,4977
DA:2339,4972
DA:2342,4972
DA:2343,0
DA:2345,4972
DA:2346,4972
DA:2351,0
DA:2354,0
DA:2364,0
DA:2366,0
DA:2367,0
DA:2435,12168
DA:2437,12168
DA:2440,0
DA:2450,0
DA:2453,14304
DA:2455,14304
DA:2456,14304
LF:445
LH:255
end_of_record
TN:
SF:/home/runner/work/fakelua/fakelua/build_cov/src/scanner.l
FNF:0
FNH:0
DA:54,115960
DA:56,115960
DA:59,5
DA:60,10
DA:61,20
DA:62,145
DA:63,130
DA:64,140
DA:65,14906
DA:66,283132
DA:67,278165
DA:68,283132
DA:69,129816
DA:70,26954
DA:71,0
DA:72,27169
DA:73,332
DA:74,69
DA:75,260
DA:76,944
DA:77,440
DA:78,924
DA:79,391
DA:80,80
DA:81,120
DA:82,7122
DA:83,218
DA:84,7256
DA:85,275
DA:86,443
DA:87,389
DA:88,489
DA:89,388
DA:90,296
DA:91,183
DA:92,123
DA:93,9107
DA:94,739
DA:95,11127
DA:96,1156
DA:97,2200
DA:98,6168
DA:99,5788
DA:100,6447
DA:101,6443
DA:102,1913
DA:103,1913
DA:104,1384
DA:105,1316
DA:106,1520
DA:107,327
DA:108,1524
DA:109,6722
DA:110,278
DA:111,7453
DA:112,4633
DA:113,930
DA:114,5220
DA:115,211
DA:116,6106
DA:117,365
DA:118,5495
DA:119,416
DA:120,210
DA:121,5199
DA:122,1030
DA:123,5017
DA:124,1030
DA:125,394
DA:126,357
DA:127,323
DA:128,11487
DA:129,11295
DA:130,34452
DA:131,34452
DA:132,841
DA:133,3
DA:134,850
DA:135,3
DA:136,3564
DA:137,3564
DA:138,3564
DA:139,0
LF:83
LH:81
end_of_record
TN:
SF:/home/runner/work/fakelua/fakelua/include/fakelua.h
FN:100,102,_ZNK7fakelua13SimpleVarImpl8ViGetIntEv
FN:104,106,_ZNK7fakelua13SimpleVarImpl10ViGetFloatEv
FN:108,110,_ZNK7fakelua13SimpleVarImpl11ViGetStringEv
FN:112,114,_ZNK7fakelua13SimpleVarImpl14ViGetTableSizeEv
FN:116,118,_ZNK7fakelua13SimpleVarImpl12ViGetTableKvEi
FN:120,147,_ZNK7fakelua13SimpleVarImpl10ViToStringB5cxx11Ei
FN:150,177,_ZN7fakelua13SimpleVarImpl11ViSortTableEv
FN:151,171,_ZZN7fakelua13SimpleVarImpl11ViSortTableEvENKUlRKT_RKT0_E_clISt4pairIPNS_12VarInterfaceESB_ESC_EEDaS3_S6_
FN:521,562,_ZN7fakelua4CallINS_4CVarEJDnRA3_KcEEEvPNS_5StateENS_7JITTypeERKSt17basic_string_viewIcSt11char_traitsIcEERT_DpOT0_
FN:521,562,_ZN7fakelua4CallINS_4CVarEJEEEvPNS_5StateENS_7JITTypeERKSt17basic_string_viewIcSt11char_traitsIcEERT_DpOT0_
FN:521,562,_ZN7fakelua4CallINS_4CVarEJbiEEEvPNS_5StateENS_7JITTypeERKSt17basic_string_viewIcSt11char_traitsIcEERT_DpOT0_
FN:521,562,_ZN7fakelua4CallINS_4CVarEJiiiEEEvPNS_5StateENS_7JITTypeERKSt17basic_string_viewIcSt11char_traitsIcEERT_DpOT0_
FN:521,562,_ZN7fakelua4CallINSt7__cxx1112basic_stringIcSt11char_traitsIcESaIcEEEJEEEvPNS_5StateENS_7JITTypeERKSt17basic_string_viewIcS4_ERT_DpOT0_
FN:521,562,_ZN7fakelua4CallINSt7__cxx1112basic_stringIcSt11char_traitsIcESaIcEEEJbdEEEvPNS_5StateENS_7JITTypeERKSt17basic_string_viewIcS4_ERT_DpOT0_
FN:521,562,_ZN7fakelua4CallINSt7__cxx1112basic_stringIcSt11char_traitsIcESaIcEEEJbiEEEvPNS_5StateENS_7JITTypeERKSt17basic_string_viewIcS4_ERT_DpOT0_
FN:521,562,_ZN7fakelua4CallINSt7__cxx1112basic_stringIcSt11char_traitsIcESaIcEEEJdRA5_KcbiEEEvPNS_5StateENS_7JITTypeERKSt17basic_string_viewIcS4_ERT_DpOT0_
FN:521,562,_ZN7fakelua4CallINSt7__cxx1112basic_stringIcSt11char_traitsIcESaIcEEEJiEEEvPNS_5StateENS_7JITTypeERKSt17basic_string_viewIcS4_ERT_DpOT0_
FN:521,562,_ZN7fakelua4CallINSt7__cxx1112basic_stringIcSt11char_traitsIcESaIcEEEJiRA2_KcEEEvPNS_5StateENS_7JITTypeERKSt17basic_string_viewIcS4_ERT_DpOT0_
FN:521,562,_ZN7fakelua4CallINSt7__cxx1112basic_stringIcSt11char_traitsIcESaIcEEEJiS6_EEEvPNS_5StateENS_7JITTypeERKSt17basic_string_viewIcS4_ERT_DpOT0_
FN:521,562,_ZN7fakelua4CallINSt7__cxx1112basic_stringIcSt11char_traitsIcESaIcEEEJidbRA5_KcEEEvPNS_5StateENS_7JITTypeERKSt17basic_string_viewIcS4_ERT_DpOT0_
FN:521,562,_ZN7fakelua4CallINSt7__cxx1112basic_stringIcSt11char_traitsIcESaIcEEEJiiEEEvPNS_5StateENS_7JITTypeERKSt17basic_string_viewIcS4_ERT_DpOT0_
FN:521,562,_ZN7fakelua4CallIPNS_12VarInterfaceEJEEEvPNS_5StateENS_7JITTypeERKSt17basic_string_viewIcSt11char_traitsIcEERT_DpOT0_
FN:521,562,_ZN7fakelua4CallISt17basic_string_viewIcSt11char_traitsIcEEJiEEEvPNS_5StateENS_7JITTypeERKS4_RT_DpOT0_
FN:521,562,_ZN7fakelua4CallIbJDnEEEvPNS_5StateENS_7JITTypeERKSt17basic_string_viewIcSt11char_traitsIcEERT_DpOT0_
FN:521,562,_ZN7fakelua4CallIbJEEEvPNS_5StateENS_7JITTypeERKSt17basic_string_viewIcSt11char_traitsIcEERT_DpOT0_
FN:521,562,_ZN7fakelua4CallIbJRA3_KcS3_EEEvPNS_5StateENS_7JITTypeERKSt17basic_string_viewIcSt11char_traitsIcEERT_DpOT0_
FN:521,562,_ZN7fakelua4CallIbJbbEEEvPNS_5StateENS_7JITTypeERKSt17basic_string_viewIcSt11char_traitsIcEERT_DpOT0_
FN:521,562,_ZN7fakelua4CallIbJbiEEEvPNS_5StateENS_7JITTypeERKSt17basic_string_viewIcSt11char_traitsIcEERT_DpOT0_
FN:521,562,_ZN7fakelua4CallIbJdRA5_KcbiEEEvPNS_5StateENS_7JITTypeERKSt17basic_string_viewIcSt11char_traitsIcEERT_DpOT0_
FN:521,562,_ZN7fakelua4CallIbJdiEEEvPNS_5StateENS_7JITTypeERKSt17basic_string_viewIcSt11char_traitsIcEERT_DpOT0_
FN:521,562,_ZN7fakelua4CallIbJiEEEvPNS_5StateENS_7JITTypeERKSt17basic_string_viewIcSt11char_traitsIcEERT_DpOT0_
FN:521,562,_ZN7fakelua4CallIbJidEEEvPNS_5StateENS_7JITTypeERKSt17basic_string_viewIcSt11char_traitsIcEERT_DpOT0_
FN:521,562,_ZN7fakelua4CallIbJiiEEEvPNS_5StateENS_7JITTypeERKSt17basic_string_viewIcSt11char_traitsIcEERT_DpOT0_
FN:521,562,_ZN7fakelua4CallIcJRA2_KcEEEvPNS_5StateENS_7JITTypeERKSt17basic_string_viewIcSt11char_traitsIcEERT_DpOT0_
FN:521,562,_ZN7fakelua4CallIdJEEEvPNS_5StateENS_7JITTypeERKSt17basic_string_viewIcSt11char_traitsIcEERT_DpOT0_
FN:521,562,_ZN7fakelua4CallIdJRA2_KcEEEvPNS_5StateENS_7JITTypeERKSt17basic_string_viewIcSt11char_traitsIcEERT_DpOT0_
FN:521,562,_ZN7fakelua4CallIdJdRA5_KcbiEEEvPNS_5StateENS_7JITTypeERKSt17basic_string_viewIcSt11char_traitsIcEERT_DpOT0_
FN:521,562,_ZN7fakelua4CallIdJddEEEvPNS_5StateENS_7JITTypeERKSt17basic_string_viewIcSt11char_traitsIcEERT_DpOT0_
FN:521,562,_ZN7fakelua4CallIdJidEEEvPNS_5StateENS_7JITTypeERKSt17basic_string_viewIcSt11char_traitsIcEERT_DpOT0_
FN:521,562,_ZN7fakelua4CallIdJiiEEEvPNS_5StateENS_7JITTypeERKSt17basic_string_viewIcSt11char_traitsIcEERT_DpOT0_
FN:521,562,_ZN7fakelua4CallIfJDniiEEEvPNS_5StateENS_7JITTypeERKSt17basic_string_viewIcSt11char_traitsIcEERT_DpOT0_
FN:521,562,_ZN7fakelua4CallIfJRA2_KcEEEvPNS_5StateENS_7JITTypeERKSt17basic_string_viewIcSt11char_traitsIcEERT_DpOT0_
FN:521,562,_ZN7fakelua4CallIfJidEEEvPNS_5StateENS_7JITTypeERKSt17basic_string_viewIcSt11char_traitsIcEERT_DpOT0_
FN:521,562,_ZN7fakelua4CallIhJRA2_KcEEEvPNS_5StateENS_7JITTypeERKSt17basic_string_viewIcSt11char_traitsIcEERT_DpOT0_
FN:521,562,_ZN7fakelua4CallIiJDniEEEvPNS_5StateENS_7JITTypeERKSt17basic_string_viewIcSt11char_traitsIcEERT_DpOT0_
FN:521,562,_ZN7fakelua4CallIiJEEEvPNS_5StateENS_7JITTypeERKSt17basic_string_viewIcSt11char_traitsIcEERT_DpOT0_
FN:521,562,_ZN7fakelua4CallIiJNSt7__cxx1112basic_stringIcSt11char_traitsIcESaIcEEEEEEvPNS_5StateENS_7JITTypeERKSt17basic_string_viewIcS4_ERT_DpOT0_
FN:521,562,_ZN7fakelua4CallIiJNSt7__cxx1112basic_stringIcSt11char_traitsIcESaIcEEEiEEEvPNS_5StateENS_7JITTypeERKSt17basic_string_viewIcS4_ERT_DpOT0_
FN:521,562,_ZN7fakelua4CallIiJRA2_KcEEEvPNS_5StateENS_7JITTypeERKSt17basic_string_viewIcSt11char_traitsIcEERT_DpOT0_
FN:521,562,_ZN7fakelua4CallIiJRA4_KcEEEvPNS_5StateENS_7JITTypeERKSt17basic_string_viewIcSt11char_traitsIcEERT_DpOT0_
FN:521,562,_ZN7fakelua4CallIiJbdEEEvPNS_5StateENS_7JITTypeERKSt17basic_string_viewIcSt11char_traitsIcEERT_DpOT0_
FN:521,562,_ZN7fakelua4CallIiJbiEEEvPNS_5StateENS_7JITTypeERKSt17basic_string_viewIcSt11char_traitsIcEERT_DpOT0_
FN:521,562,_ZN7fakelua4CallIiJdRA5_KcbiEEEvPNS_5StateENS_7JITTypeERKSt17basic_string_viewIcSt11char_traitsIcEERT_DpOT0_
FN:521,562,_ZN7fakelua4CallIiJiEEEvPNS_5StateENS_7JITTypeERKSt17basic_string_viewIcSt11char_traitsIcEERT_DpOT0_
FN:521,562,_ZN7fakelua4CallIiJiNSt7__cxx1112basic_stringIcSt11char_traitsIcESaIcEEEEEEvPNS_5StateENS_7JITTypeERKSt17basic_string_viewIcS4_ERT_DpOT0_
FN:521,562,_ZN7fakelua4CallIiJiRA2_KcEEEvPNS_5StateENS_7JITTypeERKSt17basic_string_viewIcSt11char_traitsIcEERT_DpOT0_
FN:521,562,_ZN7fakelua4CallIiJidEEEvPNS_5StateENS_7JITTypeERKSt17basic_string_viewIcSt11char_traitsIcEERT_DpOT0_
FN:521,562,_ZN7fakelua4CallIiJiiEEEvPNS_5StateENS_7JITTypeERKSt17basic_string_viewIcSt11char_traitsIcEERT_DpOT0_
FN:521,562,_ZN7fakelua4CallIiJiiiEEEvPNS_5StateENS_7JITTypeERKSt17basic_string_viewIcSt11char_traitsIcEERT_DpOT0_
FN:521,562,_ZN7fakelua4CallIiJiiiiiEEEvPNS_5StateENS_7JITTypeERKSt17basic_string_viewIcSt11char_traitsIcEERT_DpOT0_
FN:521,562,_ZN7fakelua4CallIjJRA2_KcEEEvPNS_5StateENS_7JITTypeERKSt17basic_string_viewIcSt11char_traitsIcEERT_DpOT0_
FN:521,562,_ZN7fakelua4CallIlJRA2_KcEEEvPNS_5StateENS_7JITTypeERKSt17basic_string_viewIcSt11char_traitsIcEERT_DpOT0_
FN:521,562,_ZN7fakelua4CallImJRA2_KcEEEvPNS_5StateENS_7JITTypeERKSt17basic_string_viewIcSt11char_traitsIcEERT_DpOT0_
FN:521,562,_ZN7fakelua4CallIsJRA2_KcEEEvPNS_5StateENS_7JITTypeERKSt17basic_string_viewIcSt11char_traitsIcEERT_DpOT0_
FN:521,562,_ZN7fakelua4CallItJRA2_KcEEEvPNS_5StateENS_7JITTypeERKSt17basic_string_viewIcSt11char_traitsIcEERT_DpOT0_
FN:521,562,_ZN7fakelua4CallIxJRA2_KcEEEvPNS_5StateENS_7JITTypeERKSt17basic_string_viewIcSt11char_traitsIcEERT_DpOT0_
FN:521,562,_ZN7fakelua4CallIyJRA2_KcEEEvPNS_5StateENS_7JITTypeERKSt17basic_string_viewIcSt11char_traitsIcEERT_DpOT0_
FN:61,61,_ZN7fakelua13SimpleVarImplD0Ev
FN:61,61,_ZN7fakelua13SimpleVarImplD2Ev
FN:63,65,_ZNK7fakelua13SimpleVarImpl9ViGetTypeEv
FN:67,69,_ZN7fakelua13SimpleVarImpl8ViSetNilEv
FN:71,74,_ZN7fakelua13SimpleVarImpl9ViSetBoolEb
FN:76,79,_ZN7fakelua13SimpleVarImpl8ViSetIntEl
FN:81,84,_ZN7fakelua13SimpleVarImpl10ViSetFloatEd
FN:86,89,_ZN7fakelua13SimpleVarImpl11ViSetStringERKSt17basic_string_viewIcSt11char_traitsIcEE
FN:91,94,_ZN7fakelua13SimpleVarImpl10ViSetTableERKSt6vectorISt4pairIPNS_12VarInterfaceES4_ESaIS5_EE
FN:96,98,_ZNK7fakelua13SimpleVarImpl9ViGetBoolEv
FNDA:420,_ZNK7fakelua13SimpleVarImpl8ViGetIntEv
FNDA:14,_ZNK7fakelua13SimpleVarImpl10ViGetFloatEv
FNDA:186,_ZNK7fakelua13SimpleVarImpl11ViGetStringEv
FNDA:28,_ZNK7fakelua13SimpleVarImpl14ViGetTableSizeEv
FNDA:12,_ZNK7fakelua13SimpleVarImpl12ViGetTableKvEi
FNDA:947,_ZNK7fakelua13SimpleVarImpl10ViToStringB5cxx11Ei
FNDA:51,_ZN7fakelua13SimpleVarImpl11ViSortTableEv
FNDA:409,_ZZN7fakelua13SimpleVarImpl11ViSortTableEvENKUlRKT_RKT0_E_clISt4pairIPNS_12VarInterfaceESB_ESC_EEDaS3_S6_
FNDA:16,_ZN7fakelua4CallINS_4CVarEJDnRA3_KcEEEvPNS_5StateENS_7JITTypeERKSt17basic_string_viewIcSt11char_traitsIcEERT_DpOT0_
FNDA:112,_ZN7fakelua4CallINS_4CVarEJEEEvPNS_5StateENS_7JITTypeERKSt17basic_string_viewIcSt11char_traitsIcEERT_DpOT0_
FNDA:16,_ZN7fakelua4CallINS_4CVarEJbiEEEvPNS_5StateENS_7JITTypeERKSt17basic_string_viewIcSt11char_traitsIcEERT_DpOT0_
FNDA:8,_ZN7fakelua4CallINS_4CVarEJiiiEEEvPNS_5StateENS_7JITTypeERKSt17basic_string_viewIcSt11char_traitsIcEERT_DpOT0_
FNDA:68,_ZN7fakelua4CallINSt7__cxx1112basic_stringIcSt11char_traitsIcESaIcEEEJEEEvPNS_5StateENS_7JITTypeERKSt17basic_string_viewIcS4_ERT_DpOT0_
FNDA:16,_ZN7fakelua4CallINSt7__cxx1112basic_stringIcSt11char_traitsIcESaIcEEEJbdEEEvPNS_5StateENS_7JITTypeERKSt17basic_string_viewIcS4_ERT_DpOT0_
FNDA:16,_ZN7fakelua4CallINSt7__cxx1112basic_stringIcSt11char_traitsIcESaIcEEEJbiEEEvPNS_5StateENS_7JITTypeERKSt17basic_string_viewIcS4_ERT_DpOT0_
FNDA:16,_ZN7fakelua4CallINSt7__cxx1112basic_stringIcSt11char_traitsIcESaIcEEEJdRA5_KcbiEEEvPNS_5StateENS_7JITTypeERKSt17basic_string_viewIcS4_ERT_DpOT0_
FNDA:4,_ZN7fakelua4CallINSt7__cxx1112basic_stringIcSt11char_traitsIcESaIcEEEJiEEEvPNS_5StateENS_7JITTypeERKSt17basic_string_viewIcS4_ERT_DpOT0_
FNDA:16,_ZN7fakelua4CallINSt7__cxx1112basic_stringIcSt11char_traitsIcESaIcEEEJiRA2_KcEEEvPNS_5StateENS_7JITTypeERKSt17basic_string_viewIcS4_ERT_DpOT0_
FNDA:16,_ZN7fakelua4CallINSt7__cxx1112basic_stringIcSt11char_traitsIcESaIcEEEJiS6_EEEvPNS_5StateENS_7JITTypeERKSt17basic_string_viewIcS4_ERT_DpOT0_
FNDA:16,_ZN7fakelua4CallINSt7__cxx1112basic_stringIcSt11char_traitsIcESaIcEEEJidbRA5_KcEEEvPNS_5StateENS_7JITTypeERKSt17basic_string_viewIcS4_ERT_DpOT0_
FNDA:16,_ZN7fakelua4CallINSt7__cxx1112basic_stringIcSt11char_traitsIcESaIcEEEJiiEEEvPNS_5StateENS_7JITTypeERKSt17basic_string_viewIcS4_ERT_DpOT0_
FNDA:64,_ZN7fakelua4CallIPNS_12VarInterfaceEJEEEvPNS_5StateENS_7JITTypeERKSt17basic_string_viewIcSt11char_traitsIcEERT_DpOT0_
FNDA:4,_ZN7fakelua4CallISt17basic_string_viewIcSt11char_traitsIcEEJiEEEvPNS_5StateENS_7JITTypeERKS4_RT_DpOT0_
FNDA:16,_ZN7fakelua4CallIbJDnEEEvPNS_5StateENS_7JITTypeERKSt17basic_string_viewIcSt11char_traitsIcEERT_DpOT0_
FNDA:32,_ZN7fakelua4CallIbJEEEvPNS_5StateENS_7JITTypeERKSt17basic_string_viewIcSt11char_traitsIcEERT_DpOT0_
FNDA:32,_ZN7fakelua4CallIbJRA3_KcS3_EEEvPNS_5StateENS_7JITTypeERKSt17basic_string_viewIcSt11char_traitsIcEERT_DpOT0_
FNDA:32,_ZN7fakelua4CallIbJbbEEEvPNS_5StateENS_7JITTypeERKSt17basic_string_viewIcSt11char_traitsIcEERT_DpOT0_
FNDA:16,_ZN7fakelua4CallIbJbiEEEvPNS_5StateENS_7JITTypeERKSt17basic_string_viewIcSt11char_traitsIcEERT_DpOT0_
FNDA:16,_ZN7fakelua4CallIbJdRA5_KcbiEEEvPNS_5StateENS_7JITTypeERKSt17basic_string_viewIcSt11char_traitsIcEERT_DpOT0_
FNDA:16,_ZN7fakelua4CallIbJdiEEEvPNS_5StateENS_7JITTypeERKSt17basic_string_viewIcSt11char_traitsIcEERT_DpOT0_
FNDA:20,_ZN7fakelua4CallIbJiEEEvPNS_5StateENS_7JITTypeERKSt17basic_string_viewIcSt11char_traitsIcEERT_DpOT0_
FNDA:128,_ZN7fakelua4CallIbJidEEEvPNS_5StateENS_7JITTypeERKSt17basic_string_viewIcSt11char_traitsIcEERT_DpOT0_
FNDA:176,_ZN7fakelua4CallIbJiiEEEvPNS_5StateENS_7JITTypeERKSt17basic_string_viewIcSt11char_traitsIcEERT_DpOT0_
FNDA:4,_ZN7fakelua4CallIcJRA2_KcEEEvPNS_5StateENS_7JITTypeERKSt17basic_string_viewIcSt11char_traitsIcEERT_DpOT0_
FNDA:292,_ZN7fakelua4CallIdJEEEvPNS_5StateENS_7JITTypeERKSt17basic_string_viewIcSt11char_traitsIcEERT_DpOT0_
FNDA:4,_ZN7fakelua4CallIdJRA2_KcEEEvPNS_5StateENS_7JITTypeERKSt17basic_string_viewIcSt11char_traitsIcEERT_DpOT0_
FNDA:16,_ZN7fakelua4CallIdJdRA5_KcbiEEEvPNS_5StateENS_7JITTypeERKSt17basic_string_viewIcSt11char_traitsIcEERT_DpOT0_
FNDA:112,_ZN7fakelua4CallIdJddEEEvPNS_5StateENS_7JITTypeERKSt17basic_string_viewIcSt11char_traitsIcEERT_DpOT0_
FNDA:64,_ZN7fakelua4CallIdJidEEEvPNS_5StateENS_7JITTypeERKSt17basic_string_viewIcSt11char_traitsIcEERT_DpOT0_
FNDA:48,_ZN7fakelua4CallIdJiiEEEvPNS_5StateENS_7JITTypeERKSt17basic_string_viewIcSt11char_traitsIcEERT_DpOT0_
FNDA:16,_ZN7fakelua4CallIfJDniiEEEvPNS_5StateENS_7JITTypeERKSt17basic_string_viewIcSt11char_traitsIcEERT_DpOT0_
FNDA:4,_ZN7fakelua4CallIfJRA2_KcEEEvPNS_5StateENS_7JITTypeERKSt17basic_string_viewIcSt11char_traitsIcEERT_DpOT0_
FNDA:32,_ZN7fakelua4CallIfJidEEEvPNS_5StateENS_7JITTypeERKSt17basic_string_viewIcSt11char_traitsIcEERT_DpOT0_
FNDA:4,_ZN7fakelua4CallIhJRA2_KcEEEvPNS_5StateENS_7JITTypeERKSt17basic_string_viewIcSt11char_traitsIcEERT_DpOT0_
FNDA:16,_ZN7fakelua4CallIiJDniEEEvPNS_5StateENS_7JITTypeERKSt17basic_string_viewIcSt11char_traitsIcEERT_DpOT0_
FNDA:712,_ZN7fakelua4CallIiJEEEvPNS_5StateENS_7JITTypeERKSt17basic_string_viewIcSt11char_traitsIcEERT_DpOT0_
FNDA:16,_ZN7fakelua4CallIiJNSt7__cxx1112basic_stringIcSt11char_traitsIcESaIcEEEEEEvPNS_5StateENS_7JITTypeERKSt17basic_string_viewIcS4_ERT_DpOT0_
FNDA:32,_ZN7fakelua4CallIiJNSt7__cxx1112basic_stringIcSt11char_traitsIcESaIcEEEiEEEvPNS_5StateENS_7JITTypeERKSt17basic_string_viewIcS4_ERT_DpOT0_
FNDA:4,_ZN7fakelua4CallIiJRA2_KcEEEvPNS_5StateENS_7JITTypeERKSt17basic_string_viewIcSt11char_traitsIcEERT_DpOT0_
FNDA:32,_ZN7fakelua4CallIiJRA4_KcEEEvPNS_5StateENS_7JITTypeERKSt17basic_string_viewIcSt11char_traitsIcEERT_DpOT0_
FNDA:32,_ZN7fakelua4CallIiJbdEEEvPNS_5StateENS_7JITTypeERKSt17basic_string_viewIcSt11char_traitsIcEERT_DpOT0_
FNDA:32,_ZN7fakelua4CallIiJbiEEEvPNS_5StateENS_7JITTypeERKSt17basic_string_viewIcSt11char_traitsIcEERT_DpOT0_
FNDA:16,_ZN7fakelua4CallIiJdRA5_KcbiEEEvPNS_5StateENS_7JITTypeERKSt17basic_string_viewIcSt11char_traitsIcEERT_DpOT0_
FNDA:604,_ZN7fakelua4CallIiJiEEEvPNS_5StateENS_7JITTypeERKSt17basic_string_viewIcSt11char_traitsIcEERT_DpOT0_
FNDA:16,_ZN7fakelua4CallIiJiNSt7__cxx1112basic_stringIcSt11char_traitsIcESaIcEEEEEEvPNS_5StateENS_7JITTypeERKSt17basic_string_viewIcS4_ERT_DpOT0_
FNDA:16,_ZN7fakelua4CallIiJiRA2_KcEEEvPNS_5StateENS_7JITTypeERKSt17basic_string_viewIcSt11char_traitsIcEERT_DpOT0_
FNDA:16,_ZN7fakelua4CallIiJidEEEvPNS_5StateENS_7JITTypeERKSt17basic_string_viewIcSt11char_traitsIcEERT_DpOT0_
FNDA:1504,_ZN7fakelua4CallIiJiiEEEvPNS_5StateENS_7JITTypeERKSt17basic_string_viewIcSt11char_traitsIcEERT_DpOT0_
FNDA:64,_ZN7fakelua4CallIiJiiiEEEvPNS_5StateENS_7JITTypeERKSt17basic_string_viewIcSt11char_traitsIcEERT_DpOT0_
FNDA:12,_ZN7fakelua4CallIiJiiiiiEEEvPNS_5StateENS_7JITTypeERKSt17basic_string_viewIcSt11char_traitsIcEERT_DpOT0_
FNDA:4,_ZN7fakelua4CallIjJRA2_KcEEEvPNS_5StateENS_7JITTypeERKSt17basic_string_viewIcSt11char_traitsIcEERT_DpOT0_
FNDA:4,_ZN7fakelua4CallIlJRA2_KcEEEvPNS_5StateENS_7JITTypeERKSt17basic_string_viewIcSt11char_traitsIcEERT_DpOT0_
FNDA:4,_ZN7fakelua4CallImJRA2_KcEEEvPNS_5StateENS_7JITTypeERKSt17basic_string_viewIcSt11char_traitsIcEERT_DpOT0_
FNDA:4,_ZN7fakelua4CallIsJRA2_KcEEEvPNS_5StateENS_7JITTypeERKSt17basic_string_viewIcSt11char_traitsIcEERT_DpOT0_
FNDA:4,_ZN7fakelua4CallItJRA2_KcEEEvPNS_5StateENS_7JITTypeERKSt17basic_string_viewIcSt11char_traitsIcEERT_DpOT0_
FNDA:4,_ZN7fakelua4CallIxJRA2_KcEEEvPNS_5StateENS_7JITTypeERKSt17basic_string_viewIcSt11char_traitsIcEERT_DpOT0_
FNDA:4,_ZN7fakelua4CallIyJRA2_KcEEEvPNS_5StateENS_7JITTypeERKSt17basic_string_viewIcSt11char_traitsIcEERT_DpOT0_
FNDA:936,_ZN7fakelua13SimpleVarImplD0Ev
FNDA:0,_ZN7fakelua13SimpleVarImplD2Ev
FNDA:1740,_ZNK7fakelua13SimpleVarImpl9ViGetTypeEv
FNDA:8,_ZN7fakelua13SimpleVarImpl8ViSetNilEv
FNDA:8,_ZN7fakelua13SimpleVarImpl9ViSetBoolEb
FNDA:664,_ZN7fakelua13SimpleVarImpl8ViSetIntEl
FNDA:8,_ZN7fakelua13SimpleVarImpl10ViSetFloatEd
FNDA:176,_ZN7fakelua13SimpleVarImpl11ViSetStringERKSt17basic_string_viewIcSt11char_traitsIcEE
FNDA:112,_ZN7fakelua13SimpleVarImpl10ViSetTableERKSt6vectorISt4pairIPNS_12VarInterfaceES4_ESaIS5_EE
FNDA:16,_ZNK7fakelua13SimpleVarImpl9ViGetBoolEv
FNF:77
FNH:76
DA:14,1034
DA:26,991
DA:59,1013
DA:61,943
DA:63,1740
DA:64,1740
DA:67,8
DA:68,8
DA:69,8
DA:71,18
DA:72,18
DA:73,15
DA:74,8
DA:76,692
DA:77,692
DA:78,677
DA:79,664
DA:81,18
DA:82,18
DA:83,15
DA:84,8
DA:86,184
DA:87,184
DA:88,192
DA:89,184
DA:91,129
DA:92,129
DA:93,129
DA:94,129
DA:96,16
DA:97,16
DA:100,420
DA:101,420
DA:104,14
DA:105,14
DA:108,186
DA:109,186
DA:112,28
DA:113,28
DA:116,12
DA:117,12
DA:120,947
DA:121,947
DA:122,947
DA:123,6
DA:124,6
DA:126,6
DA:127,6
DA:129,664
DA:130,664
DA:131,664
DA:132,6
DA:133,6
DA:134,6
DA:135,160
DA:136,160
DA:137,160
DA:138,105
DA:139,105
DA:140,545
DA:141,880
DA:146,947
DA:147,0
DA:150,51
DA:151,51
DA:152,409
DA:153,97
DA:155,312
DA:158,4
DA:159,4
DA:160,208
DA:161,208
DA:162,3
DA:163,3
DA:164,88
DA:165,88
DA:166,3
DA:167,3
DA:172,283
DA:173,232
DA:174,16
DA:177,51
DA:194,19639
DA:239,4
DA:245,3321
DA:263,706
DA:266,706
DA:267,706
DA:268,706
DA:270,192
DA:347,6228
DA:350,64
DA:354,272
DA:374,4932
DA:402,608
DA:406,272
DA:414,80
DA:450,4628
DA:452,484
DA:454,4
DA:456,4
DA:458,4
DA:460,4
DA:462,3060
DA:464,4
DA:466,4
DA:468,4
DA:470,4
DA:472,4
DA:474,52
DA:476,536
DA:478,168
DA:480,4
DA:482,144
DA:487,64
DA:505,4628
DA:506,4628
DA:509,4628
DA:510,56
DA:511,4628
DA:521,4636
DA:522,4636
DA:523,4636
DA:524,4636
DA:525,8
DA:528,4632
DA:529,8
DA:533,4628
DA:534,4628
DA:536,4628
DA:538,4628
DA:540,1280
DA:542,760
DA:544,2496
DA:546,80
DA:548,80
DA:550,12
DA:561,4572
DA:562,4568
LF:139
LH:138
end_of_record
TN:
SF:/home/runner/work/fakelua/fakelua/src/compile/c_gen.cpp
FN:10,11,_ZN7fakelua4CGenC2EPNS_5StateE
FN:1069,1120,_ZN7fakelua4CGen23GenerateEntryDispatcherERKNSt7__cxx1112basic_stringIcSt11char_traitsIcESaIcEEERKSt6vectorIS6_SaIS6_EERKS9_IiSaIiEE
FN:1122,1130,_ZN7fakelua4CGen12SpecFuncNameERKNSt7__cxx1112basic_stringIcSt11char_traitsIcESaIcEEERKSt6vectorIiSaIiEEi
FN:1132,1199,_ZNK7fakelua4CGen19InferArgTypeForSpecERKSt10shared_ptrINS_19SyntaxTreeInterfaceEE
FN:1201,1207,_ZN7fakelua4CGen20TryCompileNativeExprB5cxx11ERKSt10shared_ptrINS_19SyntaxTreeInterfaceEE
FN:1209,1216,_ZN7fakelua4CGen16CompileStmtBlockERKSt10shared_ptrINS_19SyntaxTreeInterfaceEE
FN:1218,1290,_ZN7fakelua4CGen11CompileStmtERKSt10shared_ptrINS_19SyntaxTreeInterfaceEE
FN:1292,1326,_ZN7fakelua4CGen17CompileStmtReturnERKSt10shared_ptrINS_19SyntaxTreeInterfaceEE
FN:13,15,_ZN7fakelua4CGen19EnterNativeVarScopeEv
FN:1328,1367,_ZN7fakelua4CGen19CompileStmtLocalVarERKSt10shared_ptrINS_19SyntaxTreeInterfaceEE
FN:1369,1405,_ZN7fakelua4CGen17CompileStmtAssignERKSt10shared_ptrINS_19SyntaxTreeInterfaceEE
FN:1407,1409,_ZN7fakelua4CGen23CompileStmtFunctioncallERKSt10shared_ptrINS_19SyntaxTreeInterfaceEE
FN:1411,1431,_ZN7fakelua4CGen16CompileStmtWhileERKSt10shared_ptrINS_19SyntaxTreeInterfaceEE
FN:1433,1452,_ZN7fakelua4CGen17CompileStmtRepeatERKSt10shared_ptrINS_19SyntaxTreeInterfaceEE
FN:1454,1511,_ZN7fakelua4CGen13CompileStmtIfERKSt10shared_ptrINS_19SyntaxTreeInterfaceEE
FN:1513,1515,_ZN7fakelua4CGen16CompileStmtBreakERKSt10shared_ptrINS_19SyntaxTreeInterfaceEE
FN:1517,1669,_ZN7fakelua4CGen18CompileStmtForLoopERKSt10shared_ptrINS_19SyntaxTreeInterfaceEE
FN:1671,1769,_ZN7fakelua4CGen16CompileStmtForInERKSt10shared_ptrINS_19SyntaxTreeInterfaceEE
FN:17,21,_ZN7fakelua4CGen18ExitNativeVarScopeEv
FN:1771,1834,_ZN7fakelua4CGen10CompileExpB5cxx11ERKSt10shared_ptrINS_19SyntaxTreeInterfaceEE
FN:1836,1852,_ZN7fakelua4CGen16CompilePrefixexpB5cxx11ERKSt10shared_ptrINS_19SyntaxTreeInterfaceEE
FN:1854,1901,_ZN7fakelua4CGen23CompileTableconstructorB5cxx11ERKSt10shared_ptrINS_19SyntaxTreeInterfaceEE
FN:1903,2006,_ZN7fakelua4CGen12CompileBinopB5cxx11ERKSt10shared_ptrINS_19SyntaxTreeInterfaceEES5_S5_
FN:2008,2036,_ZN7fakelua4CGen11CompileUnopB5cxx11ERKSt10shared_ptrINS_19SyntaxTreeInterfaceEES5_
FN:2038,2088,_ZN7fakelua4CGen10CompileVarB5cxx11ERKSt10shared_ptrINS_19SyntaxTreeInterfaceEE
FN:2090,2208,_ZN7fakelua4CGen17CompileNumericExpB5cxx11ERKSt10shared_ptrINS_19SyntaxTreeInterfaceEE
FN:2210,2218,_ZNK7fakelua4CGen14BoxNativeValueERKNSt7__cxx1112basic_stringIcSt11char_traitsIcESaIcEEENS_12InferredTypeE
FN:2220,2370,_ZN7fakelua4CGen19CompileFunctioncallB5cxx11ERKSt10shared_ptrINS_19SyntaxTreeInterfaceEE
FN:23,28,_ZN7fakelua4CGen16DeclareNativeVarERKNSt7__cxx1112basic_stringIcSt11char_traitsIcESaIcEEEb
FN:30,37,_ZNK7fakelua4CGen16IsTypedNativeVarERKNSt7__cxx1112basic_stringIcSt11char_traitsIcESaIcEEE
FN:39,62,_ZN7fakelua4CGen8GenerateERNS_13CompileResultERKNS_13CompileConfigE
FN:64,84,_ZN7fakelua4CGen5BuildB5cxx11ERNS_13CompileResultERKNS_13CompileConfigE
FN:723,780,_ZN7fakelua4CGen14GenerateGlobalERNS_13CompileResultE
FN:782,857,_ZN7fakelua4CGen13GenerateDeclsERNS_13CompileResultE
FN:859,879,_ZN7fakelua4CGen15CompileFuncNameB5cxx11ERKSt10shared_ptrINS_19SyntaxTreeInterfaceEE
FN:86,721,_ZN7fakelua4CGen14GenerateHeaderEv
FN:881,884,_ZN7fakelua4CGen10ThrowErrorERKNSt7__cxx1112basic_stringIcSt11char_traitsIcESaIcEEERKSt10shared_ptrINS_19SyntaxTreeInterfaceEE
FN:886,888,_ZNK7fakelua4CGen6GenTabB5cxx11Ev
FN:890,918,_ZN7fakelua4CGen14CompileParListB5cxx11ERKSt10shared_ptrINS_19SyntaxTreeInterfaceEE
FN:920,986,_ZN7fakelua4CGen12GenerateImplERNS_13CompileResultE
FN:988,1067,_ZN7fakelua4CGen15CompileFuncBodyERKNSt7__cxx1112basic_stringIcSt11char_traitsIcESaIcEEERKSt6vectorIS6_SaIS6_EERKSt10shared_ptrINS_19SyntaxTreeInterfaceEEi
FNDA:3097,_ZN7fakelua4CGenC2EPNS_5StateE
FNDA:835,_ZN7fakelua4CGen23GenerateEntryDispatcherERKNSt7__cxx1112basic_stringIcSt11char_traitsIcESaIcEEERKSt6vectorIS6_SaIS6_EERKS9_IiSaIiEE
FNDA:8888,_ZN7fakelua4CGen12SpecFuncNameERKNSt7__cxx1112basic_stringIcSt11char_traitsIcESaIcEEERKSt6vectorIiSaIiEEi
FNDA:876,_ZNK7fakelua4CGen19InferArgTypeForSpecERKSt10shared_ptrINS_19SyntaxTreeInterfaceEE
FNDA:372,_ZN7fakelua4CGen20TryCompileNativeExprB5cxx11ERKSt10shared_ptrINS_19SyntaxTreeInterfaceEE
FNDA:9329,_ZN7fakelua4CGen16CompileStmtBlockERKSt10shared_ptrINS_19SyntaxTreeInterfaceEE
FNDA:18464,_ZN7fakelua4CGen11CompileStmtERKSt10shared_ptrINS_19SyntaxTreeInterfaceEE
FNDA:6703,_ZN7fakelua4CGen17CompileStmtReturnERKSt10shared_ptrINS_19SyntaxTreeInterfaceEE
FNDA:9329,_ZN7fakelua4CGen19EnterNativeVarScopeEv
FNDA:6049,_ZN7fakelua4CGen19CompileStmtLocalVarERKSt10shared_ptrINS_19SyntaxTreeInterfaceEE
FNDA:2372,_ZN7fakelua4CGen17CompileStmtAssignERKSt10shared_ptrINS_19SyntaxTreeInterfaceEE
FNDA:464,_ZN7fakelua4CGen23CompileStmtFunctioncallERKSt10shared_ptrINS_19SyntaxTreeInterfaceEE
FNDA:345,_ZN7fakelua4CGen16CompileStmtWhileERKSt10shared_ptrINS_19SyntaxTreeInterfaceEE
FNDA:160,_ZN7fakelua4CGen17CompileStmtRepeatERKSt10shared_ptrINS_19SyntaxTreeInterfaceEE
FNDA:859,_ZN7fakelua4CGen13CompileStmtIfERKSt10shared_ptrINS_19SyntaxTreeInterfaceEE
FNDA:180,_ZN7fakelua4CGen16CompileStmtBreakERKSt10shared_ptrINS_19SyntaxTreeInterfaceEE
FNDA:1090,_ZN7fakelua4CGen18CompileStmtForLoopERKSt10shared_ptrINS_19SyntaxTreeInterfaceEE
FNDA:160,_ZN7fakelua4CGen16CompileStmtForInERKSt10shared_ptrINS_19SyntaxTreeInterfaceEE
FNDA:9325,_ZN7fakelua4CGen18ExitNativeVarScopeEv
FNDA:33674,_ZN7fakelua4CGen10CompileExpB5cxx11ERKSt10shared_ptrINS_19SyntaxTreeInterfaceEE
FNDA:17258,_ZN7fakelua4CGen16CompilePrefixexpB5cxx11ERKSt10shared_ptrINS_19SyntaxTreeInterfaceEE
FNDA:784,_ZN7fakelua4CGen23CompileTableconstructorB5cxx11ERKSt10shared_ptrINS_19SyntaxTreeInterfaceEE
FNDA:6555,_ZN7fakelua4CGen12CompileBinopB5cxx11ERKSt10shared_ptrINS_19SyntaxTreeInterfaceEES5_S5_
FNDA:224,_ZN7fakelua4CGen11CompileUnopB5cxx11ERKSt10shared_ptrINS_19SyntaxTreeInterfaceEES5_
FNDA:16244,_ZN7fakelua4CGen10CompileVarB5cxx11ERKSt10shared_ptrINS_19SyntaxTreeInterfaceEE
FNDA:15307,_ZN7fakelua4CGen17CompileNumericExpB5cxx11ERKSt10shared_ptrINS_19SyntaxTreeInterfaceEE
FNDA:50,_ZNK7fakelua4CGen14BoxNativeValueERKNSt7__cxx1112basic_stringIcSt11char_traitsIcESaIcEEENS_12InferredTypeE
FNDA:918,_ZN7fakelua4CGen19CompileFunctioncallB5cxx11ERKSt10shared_ptrINS_19SyntaxTreeInterfaceEE
FNDA:16841,_ZN7fakelua4CGen16DeclareNativeVarERKNSt7__cxx1112basic_stringIcSt11char_traitsIcESaIcEEEb
FNDA:8935,_ZNK7fakelua4CGen16IsTypedNativeVarERKNSt7__cxx1112basic_stringIcSt11char_traitsIcESaIcEEE
FNDA:3097,_ZN7fakelua4CGen8GenerateERNS_13CompileResultERKNS_13CompileConfigE
FNDA:3097,_ZN7fakelua4CGen5BuildB5cxx11ERNS_13CompileResultERKNS_13CompileConfigE
FNDA:3097,_ZN7fakelua4CGen14GenerateGlobalERNS_13CompileResultE
FNDA:3093,_ZN7fakelua4CGen13GenerateDeclsERNS_13CompileResultE
FNDA:7974,_ZN7fakelua4CGen15CompileFuncNameB5cxx11ERKSt10shared_ptrINS_19SyntaxTreeInterfaceEE
FNDA:3097,_ZN7fakelua4CGen14GenerateHeaderEv
FNDA:16,_ZN7fakelua4CGen10ThrowErrorERKNSt7__cxx1112basic_stringIcSt11char_traitsIcESaIcEEERKSt10shared_ptrINS_19SyntaxTreeInterfaceEE
FNDA:46499,_ZNK7fakelua4CGen6GenTabB5cxx11Ev
FNDA:5098,_ZN7fakelua4CGen14CompileParListB5cxx11ERKSt10shared_ptrINS_19SyntaxTreeInterfaceEE
FNDA:3085,_ZN7fakelua4CGen12GenerateImplERNS_13CompileResultE
FNDA:6184,_ZN7fakelua4CGen15CompileFuncBodyERKNSt7__cxx1112basic_stringIcSt11char_traitsIcESaIcEEERKSt6vectorIS6_SaIS6_EERKSt10shared_ptrINS_19SyntaxTreeInterfaceEEi
FNF:41
FNH:41
DA:10,3097
DA:11,3097
DA:13,9329
DA:14,9329
DA:15,9329
DA:17,9325
DA:18,9325
DA:19,9325
DA:21,9325
DA:23,16841
DA:24,16841
DA:25,0
DA:27,16841
DA:28,16841
DA:30,8935
DA:31,13909
DA:32,13905
DA:33,8931
DA:39,3097
DA:40,3097
DA:42,3097
DA:45,3097
DA:47,3081
DA:48,2896
DA:49,1448
DA:50,1448
DA:51,1448
DA:52,1448
DA:53,1448
DA:55,0
DA:56,1448
DA:57,1448
DA:59,3081
DA:61,3081
DA:62,3081
DA:64,3097
DA:66,3097
DA:67,3097
DA:69,3097
DA:70,3097
DA:71,3097
DA:72,3097
DA:73,3093
DA:74,3093
DA:75,3085
DA:76,3085
DA:77,3085
DA:78,3081
DA:81,257
DA:83,6162
DA:86,3097
DA:87,3097
DA:104,3097
DA:106,3097
DA:721,3097
DA:723,3097
DA:724,3097
DA:726,3097
DA:730,3097
DA:731,3097
DA:732,3097
DA:735,3097
DA:736,3101
DA:738,7388
DA:739,4295
DA:740,128
DA:741,128
DA:742,128
DA:744,128
DA:745,0
DA:748,132
DA:749,132
DA:751,128
DA:752,128
DA:753,128
DA:754,128
DA:756,252
DA:757,128
DA:758,128
DA:761,128
DA:762,8
DA:766,124
DA:769,124
DA:772,124
DA:773,124
DA:774,640
DA:775,4
DA:777,3093
DA:779,3093
DA:780,3093
DA:782,3093
DA:783,3093
DA:785,3093
DA:787,3093
DA:788,3101
DA:789,7372
DA:790,4287
DA:791,4287
DA:792,4287
DA:793,3991
DA:794,3991
DA:795,3991
DA:796,4287
DA:797,176
DA:798,352
DA:799,176
DA:800,176
DA:802,4287
DA:803,120
DA:806,4175
DA:807,4167
DA:808,4167
DA:809,4167
DA:810,4167
DA:811,2553
DA:813,4159
DA:814,15190
DA:816,11403
DA:818,4159
DA:819,9020
DA:820,4861
DA:821,2316
DA:823,4861
DA:825,4159
DA:828,4159
DA:831,4159
DA:832,4159
DA:833,835
DA:834,835
DA:835,3695
DA:836,2860
DA:837,2860
DA:838,8872
DA:839,6012
DA:840,6012
DA:841,6012
DA:842,5240
DA:843,7860
DA:845,6012
DA:848,2860
DA:851,2860
DA:852,2860
DA:856,3085
DA:857,3093
DA:859,7974
DA:860,7974
DA:862,7974
DA:863,7974
DA:865,7974
DA:867,7974
DA:868,7974
DA:869,7974
DA:870,7974
DA:873,7974
DA:876,15948
DA:878,15948
DA:879,23922
DA:881,16
DA:882,16
DA:883,16
DA:886,46499
DA:887,46499
DA:890,5098
DA:891,5098
DA:892,5098
DA:895,5106
DA:897,5098
DA:898,5106
DA:899,5098
DA:900,5098
DA:902,5098
DA:903,5110
DA:904,12
DA:907,14824
DA:908,9734
DA:909,24
DA:911,9726
DA:914,5090
DA:915,15294
DA:917,0
DA:918,5090
DA:920,3085
DA:921,3085
DA:922,3089
DA:923,7356
DA:924,4275
DA:925,4275
DA:926,4275
DA:927,3983
DA:928,3983
DA:929,3983
DA:930,4275
DA:931,176
DA:932,352
DA:933,176
DA:934,176
DA:936,4275
DA:937,116
DA:940,4163
DA:941,4159
DA:942,4159
DA:943,4159
DA:944,4159
DA:945,2545
DA:948,4159
DA:949,4159
DA:950,4159
DA:952,835
DA:953,835
DA:954,3695
DA:955,2860
DA:957,2860
DA:958,8872
DA:959,6012
DA:960,6012
DA:961,6012
DA:962,5240
DA:963,7860
DA:965,6012
DA:968,2860
DA:969,2860
DA:970,2860
DA:971,2860
DA:973,835
DA:976,3324
DA:977,6506
DA:978,3182
DA:979,3182
DA:981,3324
DA:982,3324
DA:983,3320
DA:985,18227
DA:986,3081
DA:988,6184
DA:993,6184
DA:994,6184
DA:995,15228
DA:996,6184
DA:998,6184
DA:999,2860
DA:1000,8100
DA:1001,5240
DA:1002,7860
DA:1003,5240
DA:1007,2860
DA:1008,2860
DA:1009,2860
DA:1010,2860
DA:1011,2860
DA:1012,2860
DA:1024,6184
DA:1025,6184
DA:1026,2860
DA:1027,77866
DA:1029,80726
DA:1030,77866
DA:1034,12368
DA:1035,6184
DA:1036,12368
DA:1037,6184
DA:1038,6184
DA:1039,6184
DA:1040,15378
DA:1044,9194
DA:1046,6184
DA:1047,6184
DA:1048,6184
DA:1049,6180
DA:1050,6180
DA:1051,6180
DA:1052,6180
DA:1053,6184
DA:1056,6180
DA:1057,80726
DA:1058,77866
DA:1063,6180
DA:1064,6180
DA:1065,6180
DA:1066,6180
DA:1067,6180
DA:1069,835
DA:1072,835
DA:1073,835
DA:1076,835
DA:1077,2514
DA:1078,1679
DA:1079,1679
DA:1081,835
DA:1084,835
DA:1085,2265
DA:1086,1430
DA:1087,1430
DA:1088,1430
DA:1089,0
DA:1090,1670
DA:1092,0
DA:1093,1190
DA:1096,835
DA:1099,835
DA:1100,3695
DA:1101,2860
DA:1102,5720
DA:1103,8872
DA:1104,6012
DA:1105,6012
DA:1106,6012
DA:1107,6012
DA:1108,5240
DA:1109,5240
DA:1110,7860
DA:1112,6012
DA:1115,2860
DA:1116,2860
DA:1117,835
DA:1118,835
DA:1119,835
DA:1120,835
DA:1122,8888
DA:1124,8888
DA:1125,24980
DA:1126,16092
DA:1127,40254
DA:1129,8888
DA:1130,0
DA:1132,876
DA:1133,876
DA:1134,876
DA:1135,876
DA:1137,876
DA:1139,244
DA:1140,0
DA:1142,0
DA:1143,0
DA:1144,0
DA:1145,0
DA:1148,0
DA:1150,632
DA:1151,404
DA:1152,404
DA:1153,808
DA:1154,404
DA:1155,1212
DA:1156,404
DA:1158,404
DA:1159,356
DA:1162,48
DA:1163,48
DA:1164,48
DA:1165,808
DA:1166,0
DA:1167,0
DA:1170,404
DA:1172,228
DA:1173,228
DA:1174,228
DA:1175,228
DA:1176,228
DA:1177,228
DA:1178,228
DA:1179,228
DA:1180,228
DA:1181,0
DA:1182,358
DA:1184,0
DA:1185,0
DA:1186,0
DA:1189,456
DA:1191,0
DA:1192,0
DA:1193,0
DA:1194,0
DA:1196,0
DA:1199,1752
DA:1201,372
DA:1202,372
DA:1203,372
DA:1204,0
DA:1205,0
DA:1206,0
DA:1209,9329
DA:1210,9329
DA:1211,9329
DA:1213,27789
DA:1214,18464
DA:1216,9325
DA:1218,18464
DA:1219,18464
DA:1220,6703
DA:1221,6703
DA:1222,6703
DA:1224,6049
DA:1225,6049
DA:1226,6049
DA:1228,2372
DA:1229,2372
DA:1230,2372
DA:1232,464
DA:1233,464
DA:1234,464
DA:1236,0
DA:1238,0
DA:1241,0
DA:1243,0
DA:1246,66
DA:1249,132
DA:1250,66
DA:1251,66
DA:1252,66
DA:1253,66
DA:1254,66
DA:1255,132
DA:1256,66
DA:1258,345
DA:1259,345
DA:1260,345
DA:1262,160
DA:1263,160
DA:1264,160
DA:1266,859
DA:1267,859
DA:1268,859
DA:1270,180
DA:1271,180
DA:1272,180
DA:1274,1090
DA:1275,1090
DA:1276,1090
DA:1278,160
DA:1279,160
DA:1280,160
DA:1286,0
DA:1287,0
DA:1290,18460
DA:1292,6703
DA:1293,6703
DA:1294,6703
DA:1296,6703
DA:1297,6703
DA:1299,16
DA:1300,16
DA:1301,32
DA:1302,64
DA:1303,16
DA:1305,6703
DA:1306,6703
DA:1308,0
DA:1309,0
DA:1310,0
DA:1311,0
DA:1313,6703
DA:1316,6703
DA:1323,6703
DA:1325,20109
DA:1326,33515
DA:1328,6049
DA:1329,6049
DA:1330,6049
DA:1331,6049
DA:1333,6049
DA:1334,0
DA:1337,6053
DA:1338,6049
DA:1339,6049
DA:1341,6049
DA:1342,6049
DA:1343,6017
DA:1344,6017
DA:1345,6017
DA:1346,6017
DA:1348,12286
DA:1349,6241
DA:1351,6241
DA:1352,8
DA:1355,6237
DA:1356,8628
DA:1357,2157
DA:1358,4080
DA:1359,4956
DA:1360,1239
DA:1362,2841
DA:1363,5682
DA:1364,2841
DA:1365,2841
DA:1367,24192
DA:1369,2372
DA:1370,2372
DA:1371,2372
DA:1373,2372
DA:1374,2372
DA:1375,2372
DA:1376,2372
DA:1378,2372
DA:1379,2372
DA:1380,2372
DA:1381,2372
DA:1382,2372
DA:1383,2372
DA:1386,2372
DA:1387,2372
DA:1389,2372
DA:1390,2372
DA:1394,4744
DA:1399,4744
DA:1400,4416
DA:1402,1268
DA:1403,3804
DA:1404,3640
DA:1405,9488
DA:1407,464
DA:1408,464
DA:1409,464
DA:1411,345
DA:1412,345
DA:1413,345
DA:1415,345
DA:1416,345
DA:1418,690
DA:1419,345
DA:1421,345
DA:1422,1035
DA:1423,1035
DA:1425,345
DA:1426,345
DA:1427,345
DA:1429,345
DA:1430,1035
DA:1431,690
DA:1433,160
DA:1434,160
DA:1435,160
DA:1437,160
DA:1438,160
DA:1440,320
DA:1441,160
DA:1443,160
DA:1444,160
DA:1445,160
DA:1446,160
DA:1447,480
DA:1448,480
DA:1450,160
DA:1451,480
DA:1452,320
DA:1454,859
DA:1455,859
DA:1456,859
DA:1458,859
DA:1459,859
DA:1461,859
DA:1462,2577
DA:1463,2577
DA:1464,859
DA:1465,859
DA:1466,859
DA:1467,859
DA:1468,859
DA:1469,1718
DA:1471,859
DA:1472,859
DA:1473,859
DA:1474,1075
DA:1475,216
DA:1476,216
DA:1477,216
DA:1479,216
DA:1480,216
DA:1482,216
DA:1483,648
DA:1484,648
DA:1485,216
DA:1486,216
DA:1487,216
DA:1488,216
DA:1489,216
DA:1490,648
DA:1491,216
DA:1492,859
DA:1494,859
DA:1495,249
DA:1496,249
DA:1497,249
DA:1498,249
DA:1499,249
DA:1500,249
DA:1501,747
DA:1502,0
DA:1504,1075
DA:1505,216
DA:1506,216
DA:1507,648
DA:1510,859
DA:1511,1718
DA:1513,180
DA:1514,360
DA:1515,180
DA:1517,1090
DA:1518,1090
DA:1519,1090
DA:1521,3270
DA:1522,3044
DA:1523,1885
DA:1524,1090
DA:1525,549
DA:1526,549
DA:1527,549
DA:1529,549
DA:1530,549
DA:1531,549
DA:1533,2745
DA:1534,2745
DA:1535,647
DA:1536,490
DA:1538,1353
DA:1541,549
DA:1542,549
DA:1543,549
DA:1544,549
DA:1545,549
DA:1546,1996
DA:1547,1497
DA:1549,250
DA:1550,150
DA:1552,549
DA:1553,549
DA:1554,549
DA:1555,1098
DA:1556,549
DA:1557,549
DA:1561,1082
DA:1562,641
DA:1563,541
DA:1564,1082
DA:1565,1623
DA:1566,1899
DA:1567,541
DA:1568,461
DA:1569,461
DA:1570,461
DA:1572,461
DA:1573,461
DA:1574,461
DA:1576,2305
DA:1577,2305
DA:1578,655
DA:1579,970
DA:1581,801
DA:1584,461
DA:1585,461
DA:1586,461
DA:1587,461
DA:1588,461
DA:1589,1844
DA:1590,1383
DA:1592,0
DA:1593,0
DA:1595,461
DA:1596,461
DA:1597,461
DA:1598,922
DA:1599,461
DA:1600,461
DA:1603,80
DA:1604,80
DA:1605,80
DA:1606,80
DA:1607,80
DA:1608,80
DA:1610,80
DA:1611,80
DA:1612,80
DA:1613,80
DA:1614,80
DA:1615,80
DA:1618,80
DA:1619,160
DA:1621,80
DA:1622,160
DA:1624,80
DA:1625,0
DA:1626,0
DA:1627,0
DA:1628,240
DA:1632,160
DA:1633,80
DA:1634,80
DA:1635,160
DA:1637,160
DA:1638,80
DA:1641,160
DA:1642,80
DA:1643,240
DA:1644,80
DA:1645,160
DA:1646,80
DA:1647,240
DA:1648,80
DA:1649,160
DA:1651,240
DA:1652,240
DA:1655,80
DA:1656,160
DA:1657,80
DA:1658,80
DA:1661,80
DA:1662,80
DA:1665,240
DA:1667,80
DA:1668,240
DA:1669,1170
DA:1671,160
DA:1672,160
DA:1673,160
DA:1676,160
DA:1677,160
DA:1678,160
DA:1679,160
DA:1681,160
DA:1684,160
DA:1685,160
DA:1686,160
DA:1688,160
DA:1691,160
DA:1692,160
DA:1693,160
DA:1695,320
DA:1696,160
DA:1697,160
DA:1698,160
DA:1700,320
DA:1701,160
DA:1702,160
DA:1703,160
DA:1706,160
DA:1707,160
DA:1708,160
DA:1709,320
DA:1710,160
DA:1711,160
DA:1712,160
DA:1715,160
DA:1716,160
DA:1717,160
DA:1719,320
DA:1720,160
DA:1721,160
DA:1723,160
DA:1726,160
DA:1729,160
DA:1730,160
DA:1731,160
DA:1733,160
DA:1734,160
DA:1735,160
DA:1738,320
DA:1739,320
DA:1740,320
DA:1742,320
DA:1743,160
DA:1746,160
DA:1747,160
DA:1748,160
DA:1749,320
DA:1750,480
DA:1752,0
DA:1753,0
DA:1754,0
DA:1755,0
DA:1756,0
DA:1759,160
DA:1760,160
DA:1761,160
DA:1762,160
DA:1764,160
DA:1765,160
DA:1767,160
DA:1768,480
DA:1769,3040
DA:1771,33674
DA:1772,33674
DA:1774,33674
DA:1775,33674
DA:1776,33674
DA:1778,33674
DA:1782,33674
DA:1783,160
DA:1784,16
DA:1786,144
DA:1788,33514
DA:1789,48
DA:1790,16
DA:1792,32
DA:1794,33466
DA:1795,48
DA:1796,16
DA:1798,32
DA:1800,33418
DA:1801,8754
DA:1803,8601
DA:1804,8601
DA:1806,153
DA:1807,153
DA:1809,24664
DA:1810,707
DA:1811,707
DA:1812,23957
DA:1813,16410
DA:1814,16410
DA:1815,23957
DA:1817,0
DA:1818,7547
DA:1819,768
DA:1820,768
DA:1821,7547
DA:1822,6555
DA:1823,6555
DA:1824,6555
DA:1825,6555
DA:1826,19889
DA:1827,224
DA:1828,224
DA:1829,224
DA:1830,448
DA:1832,0
DA:1834,67348
DA:1836,17258
DA:1837,17258
DA:1838,17258
DA:1840,17258
DA:1841,17258
DA:1843,17258
DA:1845,17258
DA:1846,16244
DA:1847,1014
DA:1848,454
DA:1850,560
DA:1852,34516
DA:1854,784
DA:1856,784
DA:1858,784
DA:1859,784
DA:1861,784
DA:1863,784
DA:1864,1568
DA:1866,784
DA:1867,688
DA:1868,688
DA:1870,688
DA:1871,5088
DA:1872,4400
DA:1873,4400
DA:1874,4400
DA:1876,4400
DA:1877,4400
DA:1879,4400
DA:1880,4400
DA:1882,272
DA:1883,272
DA:1884,272
DA:1885,272
DA:1887,4128
DA:1888,4128
DA:1889,320
DA:1891,3808
DA:1892,3808
DA:1893,4128
DA:1896,13200
DA:1897,13200
DA:1898,688
DA:1900,784
DA:1901,784
DA:1903,6555
DA:1905,6555
DA:1907,6555
DA:1908,6555
DA:1912,6555
DA:1913,688
DA:1915,688
DA:1916,688
DA:1917,688
DA:1918,688
DA:1920,2064
DA:1922,688
DA:1924,960
DA:1925,320
DA:1926,960
DA:1927,320
DA:1928,640
DA:1929,320
DA:1930,320
DA:1931,960
DA:1932,320
DA:1933,960
DA:1934,320
DA:1936,1104
DA:1937,368
DA:1938,1104
DA:1939,368
DA:1940,736
DA:1941,368
DA:1942,368
DA:1943,1104
DA:1944,368
DA:1945,1104
DA:1946,368
DA:1948,1376
DA:1949,688
DA:1951,5867
DA:1952,5867
DA:1954,5867
DA:1955,5867
DA:1960,5867
DA:1961,5867
DA:1963,5867
DA:1964,5532
DA:1965,4023
DA:1966,1488
DA:1967,3527
DA:1968,1137
DA:1969,3148
DA:1970,0
DA:1971,3148
DA:1972,48
DA:1973,3132
DA:1974,0
DA:1975,3132
DA:1976,384
DA:1977,3004
DA:1978,528
DA:1979,2828
DA:1980,288
DA:1981,2732
DA:1982,288
DA:1983,2636
DA:1984,576
DA:1985,2444
DA:1986,480
DA:1987,2284
DA:1988,432
DA:1989,2140
DA:1990,699
DA:1991,1907
DA:1992,753
DA:1993,1656
DA:1994,2823
DA:1995,715
DA:1996,918
DA:1997,409
DA:1998,1035
DA:1999,64
DA:2000,192
DA:2002,0
DA:2005,11734
DA:2006,18977
DA:2008,224
DA:2010,224
DA:2012,224
DA:2013,224
DA:2015,224
DA:2017,224
DA:2018,224
DA:2021,224
DA:2023,224
DA:2024,96
DA:2025,192
DA:2026,384
DA:2027,64
DA:2028,96
DA:2029,32
DA:2030,96
DA:2032,0
DA:2035,224
DA:2036,448
DA:2038,16244
DA:2039,16244
DA:2040,16244
DA:2042,34472
DA:2044,32488
DA:2045,15396
DA:2047,15396
DA:2050,15396
DA:2051,2636
DA:2052,1158
DA:2054,1478
DA:2056,12760
DA:2057,2357
DA:2059,10403
DA:2060,1532
DA:2062,24267
DA:2063,16244
DA:2065,752
DA:2066,752
DA:2067,752
DA:2068,752
DA:2069,752
DA:2072,752
DA:2073,2256
DA:2075,96
DA:2076,96
DA:2077,96
DA:2078,96
DA:2080,96
DA:2081,192
DA:2082,96
DA:2083,96
DA:2086,96
DA:2087,16532
DA:2088,16244
DA:2090,15307
DA:2091,15307
DA:2093,15307
DA:2095,30614
DA:2096,5606
DA:2097,15468
DA:2099,450
DA:2100,1350
DA:2102,0
DA:2103,9701
DA:2104,5675
DA:2105,5675
DA:2106,11350
DA:2107,5504
DA:2108,16512
DA:2109,0
DA:2111,5504
DA:2113,5504
DA:2114,3250
DA:2116,2254
DA:2118,7733
DA:2122,25
DA:2123,0
DA:2125,25
DA:2126,11008
DA:2127,342
DA:2128,342
DA:2130,0
DA:2131,9701
DA:2132,3926
DA:2133,3926
DA:2134,3926
DA:2135,3926
DA:2136,3926
DA:2139,3926
DA:2140,1605
DA:2142,2321
DA:2143,895
DA:2145,1426
DA:2146,308
DA:2150,1118
DA:2151,153
DA:2155,965
DA:2156,153
DA:2160,812
DA:2161,260
DA:2162,139
DA:2164,121
DA:2168,552
DA:2169,267
DA:2170,98
DA:2172,169
DA:2176,285
DA:2177,57
DA:2179,228
DA:2180,57
DA:2182,171
DA:2183,57
DA:2185,114
DA:2186,57
DA:2188,57
DA:2189,57
DA:2192,0
DA:2193,7952
DA:2194,100
DA:2195,100
DA:2196,100
DA:2197,100
DA:2198,100
DA:2199,75
DA:2201,25
DA:2202,25
DA:2204,0
DA:2205,15507
DA:2207,0
DA:2208,15307
DA:2210,50
DA:2211,50
DA:2212,50
DA:2214,0
DA:2215,0
DA:2217,0
DA:2220,918
DA:2222,918
DA:2224,918
DA:2225,918
DA:2228,1836
DA:2231,918
DA:2232,918
DA:2233,918
DA:2234,918
DA:2237,918
DA:2238,918
DA:2239,918
DA:2244,2754
DA:2245,820
DA:2246,1640
DA:2247,820
DA:2248,820
DA:2249,820
DA:2250,356
DA:2251,356
DA:2252,356
DA:2253,356
DA:2254,356
DA:2257,356
DA:2258,356
DA:2259,728
DA:2260,420
DA:2261,420
DA:2265,420
DA:2266,420
DA:2270,372
DA:2273,356
DA:2275,308
DA:2276,680
DA:2277,372
DA:2278,372
DA:2279,372
DA:2280,0
DA:2281,0
DA:2283,744
DA:2284,372
DA:2286,0
DA:2288,308
DA:2289,308
DA:2290,760
DA:2291,452
DA:2292,452
DA:2293,452
DA:2294,824
DA:2296,160
DA:2299,308
DA:2300,308
DA:2301,308
DA:2302,616
DA:2303,616
DA:2304,308
DA:2305,308
DA:2306,712
DA:2307,820
DA:2308,820
DA:2311,610
DA:2312,610
DA:2313,512
DA:2314,512
DA:2315,512
DA:2316,1904
DA:2317,2784
DA:2319,1122
DA:2320,48
DA:2321,82
DA:2322,48
DA:2325,610
DA:2326,1220
DA:2327,1220
DA:2328,1220
DA:2330,304
DA:2331,0
DA:2333,304
DA:2334,304
DA:2335,912
DA:2336,912
DA:2337,608
DA:2338,610
DA:2340,274
DA:2341,722
DA:2342,448
DA:2343,240
DA:2345,896
DA:2347,274
DA:2351,32
DA:2352,96
DA:2353,128
DA:2355,306
DA:2356,304
DA:2359,306
DA:2360,304
DA:2363,0
DA:2365,306
DA:2366,306
DA:2367,612
DA:2369,612
DA:2370,5506
LF:1191
LH:1121
end_of_record
TN:
SF:/home/runner/work/fakelua/fakelua/src/compile/c_gen.h
FN:16,16,_ZN7fakelua4CGenD2Ev
FNDA:3097,_ZN7fakelua4CGenD2Ev
FNF:1
FNH:1
DA:16,3097
LF:1
LH:1
end_of_record
TN:
SF:/home/runner/work/fakelua/fakelua/src/compile/compile_common.h
FNF:0
FNH:0
DA:22,39684
DA:23,13112
DA:27,10480
DA:28,10480
DA:32,16092
DA:33,16092
DA:37,3571
LF:7
LH:7
end_of_record
TN:
SF:/home/runner/work/fakelua/fakelua/src/compile/compiler.cpp
FN:13,14,_ZN7fakelua8CompilerC2EPNS_5StateE
FN:17,22,_ZN7fakelua8Compiler11CompileFileERKNSt7__cxx1112basic_stringIcSt11char_traitsIcESaIcEEERKNS_13CompileConfigE
FN:25,30,_ZN7fakelua8Compiler13CompileStringERKNSt7__cxx1112basic_stringIcSt11char_traitsIcESaIcEEERKNS_13CompileConfigE
FN:33,86,_ZN7fakelua8Compiler7CompileERNS_8MyFlexerERKNS_13CompileConfigE
FNDA:2018,_ZN7fakelua8CompilerC2EPNS_5StateE
FNDA:3531,_ZN7fakelua8Compiler11CompileFileERKNSt7__cxx1112basic_stringIcSt11char_traitsIcESaIcEEERKNS_13CompileConfigE
FNDA:50,_ZN7fakelua8Compiler13CompileStringERKNSt7__cxx1112basic_stringIcSt11char_traitsIcESaIcEEERKNS_13CompileConfigE
FNDA:3571,_ZN7fakelua8Compiler7CompileERNS_8MyFlexerERKNS_13CompileConfigE
FNF:4
FNH:4
DA:13,2018
DA:14,2018
DA:17,3531
DA:18,3531
DA:19,3531
DA:20,3531
DA:21,6702
DA:22,3531
DA:25,50
DA:26,50
DA:27,50
DA:28,50
DA:29,88
DA:30,50
DA:33,3571
DA:34,3571
DA:36,3571
DA:37,7142
DA:40,3571
DA:41,3571
DA:42,3564
DA:45,3564
DA:46,0
DA:48,3564
DA:51,3564
DA:52,3862
DA:55,3564
DA:60,3418
DA:61,3418
DA:64,3097
DA:65,3097
DA:68,3097
DA:69,3097
DA:72,3081
DA:73,2824
DA:74,2824
DA:76,3073
DA:77,2816
DA:78,2816
DA:81,3073
DA:82,257
DA:85,3073
DA:86,3971
LF:43
LH:42
end_of_record
TN:
SF:/home/runner/work/fakelua/fakelua/src/compile/compiler.h
FNF:0
FNH:0
DA:18,1953
DA:29,257
LF:2
LH:2
end_of_record
TN:
SF:/home/runner/work/fakelua/fakelua/src/compile/my_flexer.cpp
FN:21,27,_ZN7fakelua8MyFlexer11InputStringERKNSt7__cxx1112basic_stringIcSt11char_traitsIcESaIcEEE
FN:30,32,_ZN7fakelua8MyFlexer8SetChunkERKSt10shared_ptrINS_19SyntaxTreeInterfaceEE
FN:35,37,_ZNK7fakelua8MyFlexer8GetChunkEv
FN:40,53,_ZN7fakelua8MyFlexer12RemoveQuotesERKNSt7__cxx1112basic_stringIcSt11char_traitsIcESaIcEEE
FN:56,63,_ZN7fakelua8MyFlexer15GenerateTmpFileERKNSt7__cxx1112basic_stringIcSt11char_traitsIcESaIcEEE
FN:9,18,_ZN7fakelua8MyFlexer9InputFileERKNSt7__cxx1112basic_stringIcSt11char_traitsIcESaIcEEE
FNDA:50,_ZN7fakelua8MyFlexer11InputStringERKNSt7__cxx1112basic_stringIcSt11char_traitsIcESaIcEEE
FNDA:3564,_ZN7fakelua8MyFlexer8SetChunkERKSt10shared_ptrINS_19SyntaxTreeInterfaceEE
FNDA:3564,_ZNK7fakelua8MyFlexer8GetChunkEv
FNDA:841,_ZN7fakelua8MyFlexer12RemoveQuotesERKNSt7__cxx1112basic_stringIcSt11char_traitsIcESaIcEEE
FNDA:50,_ZN7fakelua8MyFlexer15GenerateTmpFileERKNSt7__cxx1112basic_stringIcSt11char_traitsIcESaIcEEE
FNDA:3531,_ZN7fakelua8MyFlexer9InputFileERKNSt7__cxx1112basic_stringIcSt11char_traitsIcESaIcEEE
FNF:6
FNH:6
DA:9,3531
DA:10,3531
DA:11,3531
DA:12,10
DA:14,3521
DA:15,3521
DA:16,3521
DA:17,3521
DA:18,3521
DA:21,50
DA:22,50
DA:23,50
DA:24,50
DA:25,50
DA:26,50
DA:27,50
DA:30,3564
DA:31,3564
DA:32,3564
DA:35,3564
DA:36,3564
DA:40,841
DA:41,841
DA:43,841
DA:45,1672
DA:48,5
DA:49,5
DA:51,5
DA:56,50
DA:57,100
DA:58,50
DA:59,50
DA:60,50
DA:61,50
DA:62,50
DA:63,50
LF:36
LH:36
end_of_record
TN:
SF:/home/runner/work/fakelua/fakelua/src/compile/my_flexer.h
FN:15,15,_ZN7fakelua8MyFlexerC2Ev
FN:17,17,_ZN7fakelua8MyFlexerD0Ev
FN:17,17,_ZN7fakelua8MyFlexerD2Ev
FNDA:3581,_ZN7fakelua8MyFlexerC2Ev
FNDA:0,_ZN7fakelua8MyFlexerD0Ev
FNDA:3581,_ZN7fakelua8MyFlexerD2Ev
FNF:3
FNH:2
DA:15,3581
DA:17,7145
DA:38,3867
DA:39,7438
LF:4
LH:4
end_of_record
TN:
SF:/home/runner/work/fakelua/fakelua/src/compile/preprocessor.cpp
FN:10,11,_ZN7fakelua12PreProcessorC2EPNS_5StateE
FN:13,37,_ZN7fakelua12PreProcessor7ProcessERKNS_13CompileResultERKNS_13CompileConfigE
FN:142,145,_ZN7fakelua12PreProcessor22PreprocessTableAssignsERKSt10shared_ptrINS_19SyntaxTreeInterfaceEE
FN:147,233,_ZN7fakelua12PreProcessor21PreprocessTableAssignERKSt10shared_ptrINS_19SyntaxTreeInterfaceEE
FN:235,277,_ZN7fakelua12PreProcessor22CheckUnsupportedSyntaxERKSt10shared_ptrINS_19SyntaxTreeInterfaceEE
FN:279,396,_ZN7fakelua12PreProcessor9CheckNodeERKSt10shared_ptrINS_19SyntaxTreeInterfaceEE
FN:39,45,_ZN7fakelua12PreProcessor13DumpDebugFileERKSt10shared_ptrINS_19SyntaxTreeInterfaceEEi
FN:398,419,_ZN7fakelua12PreProcessor19CheckGlobalConstExpERKSt10shared_ptrINS_19SyntaxTreeInterfaceEE
FN:47,49,_ZN7fakelua12PreProcessor10ThrowErrorERKNSt7__cxx1112basic_stringIcSt11char_traitsIcESaIcEEERKSt10shared_ptrINS_19SyntaxTreeInterfaceEE
FN:51,53,_ZN7fakelua12PreProcessor11LocationStrB5cxx11ERKSt10shared_ptrINS_19SyntaxTreeInterfaceEE
FN:55,58,_ZN7fakelua12PreProcessor22PreprocessSplitAssignsERKSt10shared_ptrINS_19SyntaxTreeInterfaceEE
FN:60,140,_ZN7fakelua12PreProcessor21PreprocessSplitAssignERKSt10shared_ptrINS_19SyntaxTreeInterfaceEE
FNDA:3418,_ZN7fakelua12PreProcessorC2EPNS_5StateE
FNDA:3418,_ZN7fakelua12PreProcessor7ProcessERKNS_13CompileResultERKNS_13CompileConfigE
FNDA:3097,_ZN7fakelua12PreProcessor22PreprocessTableAssignsERKSt10shared_ptrINS_19SyntaxTreeInterfaceEE
FNDA:141947,_ZN7fakelua12PreProcessor21PreprocessTableAssignERKSt10shared_ptrINS_19SyntaxTreeInterfaceEE
FNDA:3418,_ZN7fakelua12PreProcessor22CheckUnsupportedSyntaxERKSt10shared_ptrINS_19SyntaxTreeInterfaceEE
FNDA:142056,_ZN7fakelua12PreProcessor9CheckNodeERKSt10shared_ptrINS_19SyntaxTreeInterfaceEE
FNDA:2928,_ZN7fakelua12PreProcessor13DumpDebugFileERKSt10shared_ptrINS_19SyntaxTreeInterfaceEEi
FNDA:676,_ZN7fakelua12PreProcessor19CheckGlobalConstExpERKSt10shared_ptrINS_19SyntaxTreeInterfaceEE
FNDA:321,_ZN7fakelua12PreProcessor10ThrowErrorERKNSt7__cxx1112basic_stringIcSt11char_traitsIcESaIcEEERKSt10shared_ptrINS_19SyntaxTreeInterfaceEE
FNDA:321,_ZN7fakelua12PreProcessor11LocationStrB5cxx11ERKSt10shared_ptrINS_19SyntaxTreeInterfaceEE
FNDA:3100,_ZN7fakelua12PreProcessor22PreprocessSplitAssignsERKSt10shared_ptrINS_19SyntaxTreeInterfaceEE
FNDA:141454,_ZN7fakelua12PreProcessor21PreprocessSplitAssignERKSt10shared_ptrINS_19SyntaxTreeInterfaceEE
FNF:12
FNH:12
DA:10,3418
DA:11,3418
DA:13,3418
DA:14,3418
DA:16,3418
DA:17,3418
DA:19,3418
DA:22,3418
DA:25,3100
DA:26,3097
DA:27,1464
DA:31,3097
DA:32,3097
DA:33,1464
DA:36,3418
DA:37,3097
DA:39,2928
DA:40,5856
DA:41,2928
DA:42,2928
DA:43,5856
DA:44,2928
DA:45,2928
DA:47,321
DA:48,642
DA:51,321
DA:52,321
DA:55,3100
DA:56,3100
DA:57,144554
DA:58,3097
DA:60,141454
DA:61,141454
DA:62,131745
DA:65,9709
DA:66,9709
DA:67,27382
DA:68,17676
DA:69,2237
DA:70,2237
DA:71,2237
DA:72,2240
DA:73,2240
DA:74,2237
DA:75,2237
DA:76,2237
DA:77,2237
DA:80,2237
DA:81,9
DA:85,2234
DA:86,2202
DA:89,32
DA:90,32
DA:91,32
DA:93,96
DA:96,64
DA:97,64
DA:98,64
DA:99,64
DA:100,64
DA:101,32
DA:104,32
DA:105,32
DA:106,32
DA:107,32
DA:110,96
DA:111,64
DA:113,64
DA:114,64
DA:115,64
DA:117,64
DA:118,64
DA:119,128
DA:121,64
DA:122,128
DA:123,64
DA:124,128
DA:125,64
DA:126,64
DA:128,64
DA:129,128
DA:130,64
DA:132,64
DA:133,384
DA:134,96
DA:135,11185
DA:136,15439
DA:138,9709
DA:139,9706
DA:140,19415
DA:142,3097
DA:143,3097
DA:144,145044
DA:145,3097
DA:147,141947
DA:148,141947
DA:149,132241
DA:152,9706
DA:153,9706
DA:154,27443
DA:155,17737
DA:156,2266
DA:157,2266
DA:158,2266
DA:159,2266
DA:160,2266
DA:161,2266
DA:162,2266
DA:163,2266
DA:164,2266
DA:167,2266
DA:168,0
DA:169,0
DA:173,2266
DA:174,2266
DA:177,2266
DA:178,6574
DA:181,240
DA:182,240
DA:183,240
DA:184,480
DA:185,480
DA:186,480
DA:187,240
DA:188,240
DA:190,240
DA:191,240
DA:194,240
DA:195,240
DA:196,240
DA:197,480
DA:198,240
DA:199,720
DA:200,240
DA:203,240
DA:204,480
DA:205,224
DA:206,448
DA:207,224
DA:208,16
DA:209,32
DA:210,48
DA:211,48
DA:212,16
DA:216,240
DA:217,240
DA:220,240
DA:221,480
DA:222,240
DA:224,240
DA:225,1200
DA:226,2026
DA:227,2266
DA:228,11330
DA:229,15471
DA:231,9706
DA:232,9706
DA:233,19412
DA:235,3418
DA:236,3418
DA:237,3418
DA:240,8216
DA:241,5004
DA:242,4125
DA:243,4125
DA:244,4125
DA:245,8250
DA:246,9
DA:248,4122
DA:249,4122
DA:250,6
DA:252,4122
DA:253,8250
DA:255,4998
DA:256,680
DA:257,680
DA:258,680
DA:259,200
DA:261,680
DA:262,680
DA:263,680
DA:264,8
DA:265,204
DA:268,1156
DA:269,676
DA:271,1360
DA:272,1360
DA:276,148686
DA:277,3100
DA:279,142056
DA:280,142056
DA:281,4
DA:282,8
DA:283,4
DA:284,4
DA:285,8
DA:286,600
DA:287,600
DA:288,600
DA:289,1200
DA:290,4
DA:292,600
DA:293,600
DA:294,4
DA:296,600
DA:297,1200
DA:298,4
DA:300,600
DA:301,1800
DA:302,8
DA:304,596
DA:305,2400
DA:306,2633
DA:307,2633
DA:308,2633
DA:309,68
DA:311,2601
DA:312,2601
DA:313,2601
DA:314,8
DA:316,2597
DA:317,5234
DA:318,4633
DA:319,4633
DA:320,4633
DA:321,4617
DA:322,4617
DA:323,56
DA:325,4645
DA:326,4605
DA:327,4633
DA:328,192
DA:329,192
DA:332,192
DA:333,192
DA:334,36
DA:338,188
DA:339,188
DA:340,32
DA:344,184
DA:345,184
DA:346,552
DA:347,28
DA:349,180
DA:350,540
DA:351,24
DA:353,176
DA:354,176
DA:355,176
DA:356,528
DA:357,20
DA:359,172
DA:360,592
DA:361,8
DA:362,20
DA:366,168
DA:367,168
DA:368,504
DA:369,12
DA:371,164
DA:372,164
DA:373,164
DA:374,8
DA:375,8
DA:378,328
DA:379,508
DA:380,176
DA:381,176
DA:382,180
DA:383,184
DA:384,160
DA:385,572
DA:386,32713
DA:387,32713
DA:388,65426
DA:389,8
DA:391,32709
DA:392,32709
DA:396,141944
DA:398,676
DA:399,676
DA:400,676
DA:401,676
DA:403,676
DA:404,40
DA:405,656
DA:406,304
DA:407,504
DA:408,212
DA:409,488
DA:410,8
DA:411,8
DA:412,16
DA:413,8
DA:414,8
DA:415,12
DA:418,8
DA:419,1156
LF:298
LH:296
end_of_record
TN:
SF:/home/runner/work/fakelua/fakelua/src/compile/preprocessor.h
FNF:0
FNH:0
DA:14,3418
LF:1
LH:1
end_of_record
TN:
SF:/home/runner/work/fakelua/fakelua/src/compile/syntax_tree.cpp
FN:100,107,_ZNK7fakelua26SyntaxTreeTableconstructor4DumpB5cxx11Ei
FN:11,18,_ZNK7fakelua15SyntaxTreeBlock4DumpB5cxx11Ei
FN:110,117,_ZNK7fakelua19SyntaxTreeFieldlist4DumpB5cxx11Ei
FN:120,137,_ZNK7fakelua15SyntaxTreeField4DumpB5cxx11Ei
FN:140,144,_ZNK7fakelua15SyntaxTreeBreak4DumpB5cxx11Ei
FN:147,152,_ZNK7fakelua14SyntaxTreeGoto4DumpB5cxx11Ei
FN:155,161,_ZNK7fakelua15SyntaxTreeWhile4DumpB5cxx11Ei
FN:164,170,_ZNK7fakelua16SyntaxTreeRepeat4DumpB5cxx11Ei
FN:173,183,_ZNK7fakelua12SyntaxTreeIf4DumpB5cxx11Ei
FN:186,194,_ZNK7fakelua20SyntaxTreeElseiflist4DumpB5cxx11Ei
FN:197,208,_ZNK7fakelua17SyntaxTreeForLoop4DumpB5cxx11Ei
FN:21,25,_ZNK7fakelua15SyntaxTreeLabel4DumpB5cxx11Ei
FN:211,218,_ZNK7fakelua15SyntaxTreeForIn4DumpB5cxx11Ei
FN:221,233,_ZNK7fakelua18SyntaxTreeNamelist4DumpB5cxx11Ei
FN:236,242,_ZNK7fakelua18SyntaxTreeFunction4DumpB5cxx11Ei
FN:245,252,_ZNK7fakelua22SyntaxTreeFuncnamelist4DumpB5cxx11Ei
FN:255,261,_ZNK7fakelua18SyntaxTreeFuncname4DumpB5cxx11Ei
FN:264,272,_ZNK7fakelua18SyntaxTreeFuncbody4DumpB5cxx11Ei
FN:275,280,_ZNK7fakelua21SyntaxTreeFunctiondef4DumpB5cxx11Ei
FN:28,35,_ZNK7fakelua16SyntaxTreeReturn4DumpB5cxx11Ei
FN:283,293,_ZNK7fakelua17SyntaxTreeParlist4DumpB5cxx11Ei
FN:296,302,_ZNK7fakelua23SyntaxTreeLocalFunction4DumpB5cxx11Ei
FN:305,313,_ZNK7fakelua18SyntaxTreeLocalVar4DumpB5cxx11Ei
FN:316,331,_ZNK7fakelua13SyntaxTreeExp4DumpB5cxx11Ei
FN:334,339,_ZNK7fakelua15SyntaxTreeBinop4DumpB5cxx11Ei
FN:342,347,_ZNK7fakelua14SyntaxTreeUnop4DumpB5cxx11Ei
FN:350,365,_ZNK7fakelua14SyntaxTreeArgs4DumpB5cxx11Ei
FN:368,374,_ZNK7fakelua19SyntaxTreePrefixexp4DumpB5cxx11Ei
FN:377,616,_ZN7fakelua14WalkSyntaxTreeERKSt10shared_ptrINS_19SyntaxTreeInterfaceEERKSt8functionIFvS4_EE
FN:38,44,_ZNK7fakelua16SyntaxTreeAssign4DumpB5cxx11Ei
FN:47,54,_ZNK7fakelua17SyntaxTreeVarlist4DumpB5cxx11Ei
FN:57,64,_ZNK7fakelua17SyntaxTreeExplist4DumpB5cxx11Ei
FN:6,8,_ZNK7fakelua15SyntaxTreeEmpty4DumpB5cxx11Ei
FN:67,85,_ZNK7fakelua13SyntaxTreeVar4DumpB5cxx11Ei
FN:88,97,_ZNK7fakelua22SyntaxTreeFunctioncall4DumpB5cxx11Ei
FNDA:670,_ZNK7fakelua26SyntaxTreeTableconstructor4DumpB5cxx11Ei
FNDA:9463,_ZNK7fakelua15SyntaxTreeBlock4DumpB5cxx11Ei
FNDA:564,_ZNK7fakelua19SyntaxTreeFieldlist4DumpB5cxx11Ei
FNDA:3134,_ZNK7fakelua15SyntaxTreeField4DumpB5cxx11Ei
FNDA:141,_ZNK7fakelua15SyntaxTreeBreak4DumpB5cxx11Ei
FNDA:5,_ZNK7fakelua14SyntaxTreeGoto4DumpB5cxx11Ei
FNDA:318,_ZNK7fakelua15SyntaxTreeWhile4DumpB5cxx11Ei
FNDA:165,_ZNK7fakelua16SyntaxTreeRepeat4DumpB5cxx11Ei
FNDA:630,_ZNK7fakelua12SyntaxTreeIf4DumpB5cxx11Ei
FNDA:630,_ZNK7fakelua20SyntaxTreeElseiflist4DumpB5cxx11Ei
FNDA:639,_ZNK7fakelua17SyntaxTreeForLoop4DumpB5cxx11Ei
FNDA:15,_ZNK7fakelua15SyntaxTreeLabel4DumpB5cxx11Ei
FNDA:170,_ZNK7fakelua15SyntaxTreeForIn4DumpB5cxx11Ei
FNDA:6859,_ZNK7fakelua18SyntaxTreeNamelist4DumpB5cxx11Ei
FNDA:3826,_ZNK7fakelua18SyntaxTreeFunction4DumpB5cxx11Ei
FNDA:3826,_ZNK7fakelua22SyntaxTreeFuncnamelist4DumpB5cxx11Ei
FNDA:3826,_ZNK7fakelua18SyntaxTreeFuncname4DumpB5cxx11Ei
FNDA:4012,_ZNK7fakelua18SyntaxTreeFuncbody4DumpB5cxx11Ei
FNDA:5,_ZNK7fakelua21SyntaxTreeFunctiondef4DumpB5cxx11Ei
FNDA:4405,_ZNK7fakelua16SyntaxTreeReturn4DumpB5cxx11Ei
FNDA:2615,_ZNK7fakelua17SyntaxTreeParlist4DumpB5cxx11Ei
FNDA:181,_ZNK7fakelua23SyntaxTreeLocalFunction4DumpB5cxx11Ei
FNDA:4079,_ZNK7fakelua18SyntaxTreeLocalVar4DumpB5cxx11Ei
FNDA:32069,_ZNK7fakelua13SyntaxTreeExp4DumpB5cxx11Ei
FNDA:6202,_ZNK7fakelua15SyntaxTreeBinop4DumpB5cxx11Ei
FNDA:223,_ZNK7fakelua14SyntaxTreeUnop4DumpB5cxx11Ei
FNDA:791,_ZNK7fakelua14SyntaxTreeArgs4DumpB5cxx11Ei
FNDA:15693,_ZNK7fakelua19SyntaxTreePrefixexp4DumpB5cxx11Ei
FNDA:3747170,_ZN7fakelua14WalkSyntaxTreeERKSt10shared_ptrINS_19SyntaxTreeInterfaceEERKSt8functionIFvS4_EE
FNDA:2166,_ZNK7fakelua16SyntaxTreeAssign4DumpB5cxx11Ei
FNDA:2166,_ZNK7fakelua17SyntaxTreeVarlist4DumpB5cxx11Ei
FNDA:11430,_ZNK7fakelua17SyntaxTreeExplist4DumpB5cxx11Ei
FNDA:31,_ZNK7fakelua15SyntaxTreeEmpty4DumpB5cxx11Ei
FNDA:16939,_ZNK7fakelua13SyntaxTreeVar4DumpB5cxx11Ei
FNDA:791,_ZNK7fakelua22SyntaxTreeFunctioncall4DumpB5cxx11Ei
FNF:35
FNH:35
DA:6,31
DA:7,93
DA:11,9463
DA:12,9463
DA:13,37852
DA:14,26572
DA:15,34218
DA:17,9463
DA:18,0
DA:21,15
DA:22,15
DA:23,75
DA:24,15
DA:25,0
DA:28,4405
DA:29,4405
DA:30,17620
DA:31,4405
DA:32,8778
DA:34,4405
DA:35,0
DA:38,2166
DA:39,2166
DA:40,8664
DA:41,4332
DA:42,4332
DA:43,2166
DA:44,0
DA:47,2166
DA:48,2166
DA:49,8664
DA:50,4342
DA:51,4352
DA:53,2166
DA:54,0
DA:57,11430
DA:58,11430
DA:59,45720
DA:60,23529
DA:61,24198
DA:63,11430
DA:64,0
DA:67,16939
DA:68,16939
DA:69,67756
DA:70,16939
DA:71,48183
DA:72,80305
DA:73,878
DA:74,2202
DA:75,1468
DA:76,1468
DA:77,144
DA:78,432
DA:79,288
DA:80,720
DA:82,0
DA:84,16939
DA:85,0
DA:88,791
DA:89,791
DA:90,3164
DA:91,1582
DA:92,791
DA:93,50
DA:95,1582
DA:96,791
DA:97,0
DA:100,670
DA:101,670
DA:102,2680
DA:103,670
DA:104,1128
DA:106,670
DA:107,0
DA:110,564
DA:111,564
DA:112,2256
DA:113,3698
DA:114,6268
DA:116,564
DA:117,0
DA:120,3134
DA:121,3134
DA:122,12536
DA:123,3134
DA:124,8526
DA:125,2842
DA:126,650
DA:128,5684
DA:129,292
DA:130,876
DA:131,1460
DA:132,584
DA:134,0
DA:136,3134
DA:137,0
DA:140,141
DA:141,141
DA:142,564
DA:143,141
DA:144,0
DA:147,5
DA:148,5
DA:149,20
DA:150,25
DA:151,5
DA:152,0
DA:155,318
DA:156,318
DA:157,1272
DA:158,636
DA:159,636
DA:160,318
DA:161,0
DA:164,165
DA:165,165
DA:166,660
DA:167,330
DA:168,330
DA:169,165
DA:170,0
DA:173,630
DA:174,630
DA:175,2520
DA:176,1260
DA:177,1260
DA:178,1260
DA:179,630
DA:180,370
DA:182,630
DA:183,0
DA:186,630
DA:187,630
DA:188,2520
DA:189,839
DA:190,418
DA:191,418
DA:193,630
DA:194,0
DA:197,639
DA:198,639
DA:199,2556
DA:200,3195
DA:201,1278
DA:202,1278
DA:203,639
DA:204,226
DA:206,1278
DA:207,639
DA:208,0
DA:211,170
DA:212,170
DA:213,680
DA:214,340
DA:215,340
DA:216,340
DA:217,170
DA:218,0
DA:221,6859
DA:222,6859
DA:223,27436
DA:224,6859
DA:225,16401
DA:226,47710
DA:227,9542
DA:228,210
DA:230,9542
DA:232,6859
DA:233,0
DA:236,3826
DA:237,3826
DA:238,15304
DA:239,7652
DA:240,7652
DA:241,3826
DA:242,0
DA:245,3826
DA:246,3826
DA:247,15304
DA:248,7662
DA:249,19180
DA:251,3826
DA:252,0
DA:255,3826
DA:256,3826
DA:257,15304
DA:258,7652
DA:259,19130
DA:260,3826
DA:261,0
DA:264,4012
DA:265,4012
DA:266,16048
DA:267,4012
DA:268,5230
DA:270,8024
DA:271,4012
DA:272,0
DA:275,5
DA:276,5
DA:277,20
DA:278,10
DA:279,5
DA:280,0
DA:283,2615
DA:284,2615
DA:285,10460
DA:286,2615
DA:287,5220
DA:289,2615
DA:290,40
DA:292,2615
DA:293,0
DA:296,181
DA:297,181
DA:298,724
DA:299,905
DA:300,362
DA:301,181
DA:302,0
DA:305,4079
DA:306,4079
DA:307,16316
DA:308,8158
DA:309,4079
DA:310,8074
DA:312,4079
DA:313,0
DA:316,32069
DA:317,32069
DA:318,128276
DA:319,160345
DA:320,160345
DA:321,32069
DA:322,12404
DA:324,32069
DA:325,12850
DA:327,32069
DA:328,42206
DA:330,32069
DA:331,0
DA:334,6202
DA:335,6202
DA:336,24808
DA:337,31010
DA:338,6202
DA:339,0
DA:342,223
DA:343,223
DA:344,892
DA:345,1115
DA:346,223
DA:347,0
DA:350,791
DA:351,791
DA:352,3164
DA:353,791
DA:354,1336
DA:355,123
DA:356,42
DA:357,102
DA:358,42
DA:359,81
DA:360,324
DA:362,0
DA:364,791
DA:365,0
DA:368,15693
DA:369,15693
DA:370,62772
DA:371,78465
DA:372,31386
DA:373,15693
DA:374,0
DA:377,3747170
DA:378,3747170
DA:381,2061890
DA:382,87
DA:383,87
DA:384,174
DA:385,87
DA:386,87
DA:387,120464
DA:388,120464
DA:389,241112
DA:390,341564
DA:391,221287
DA:393,120277
DA:394,120464
DA:395,23
DA:396,23
DA:397,46
DA:398,19
DA:399,23
DA:400,74023
DA:401,74023
DA:402,148046
DA:403,74027
DA:404,73991
DA:405,74023
DA:406,27304
DA:407,27304
DA:408,54608
DA:409,27304
DA:410,27304
DA:411,27304
DA:412,27304
DA:413,27304
DA:414,27304
DA:415,54608
DA:416,54688
DA:417,27384
DA:419,27304
DA:420,27304
DA:421,176817
DA:422,176817
DA:423,353642
DA:424,366551
DA:425,189742
DA:427,176809
DA:428,176817
DA:429,302626
DA:430,302626
DA:431,605252
DA:432,302626
DA:433,302626
DA:434,302626
DA:435,302626
DA:436,13213
DA:437,13213
DA:438,26426
DA:439,13209
DA:440,13213
DA:441,13209
DA:442,13213
DA:443,7938
DA:444,7938
DA:445,15876
DA:446,7938
DA:447,7938
DA:448,7938
DA:449,7004
DA:450,7004
DA:451,14008
DA:452,50122
DA:453,43118
DA:455,7004
DA:456,7004
DA:457,43118
DA:458,43118
DA:459,86236
DA:460,43118
DA:461,43118
DA:462,43118
DA:463,43118
DA:464,2401
DA:465,2401
DA:466,4802
DA:467,2401
DA:468,2401
DA:469,13
DA:470,13
DA:471,26
DA:472,9
DA:473,13
DA:474,5186
DA:475,5186
DA:476,10372
DA:477,5186
DA:478,5186
DA:479,5186
DA:480,5186
DA:481,2405
DA:482,2405
DA:483,4810
DA:484,2405
DA:485,2405
DA:486,2405
DA:487,2405
DA:488,10839
DA:489,10839
DA:490,21678
DA:491,10839
DA:492,10839
DA:493,10839
DA:494,10839
DA:495,10839
DA:496,10839
DA:497,10839
DA:498,10839
DA:499,21678
DA:500,13982
DA:501,3143
DA:503,13982
DA:504,3143
DA:506,10839
DA:507,10839
DA:508,10953
DA:509,10953
DA:510,21906
DA:511,10953
DA:512,10953
DA:513,10953
DA:514,10953
DA:515,10953
DA:516,10953
DA:517,2394
DA:518,2394
DA:519,4788
DA:520,2362
DA:521,2362
DA:522,2394
DA:523,2362
DA:524,2394
DA:525,75172
DA:526,75172
DA:527,150344
DA:528,75172
DA:529,75172
DA:530,18344
DA:531,18344
DA:532,36688
DA:533,18344
DA:534,18440
DA:535,18248
DA:536,18344
DA:537,18344
DA:538,18344
DA:539,36688
DA:540,18344
DA:541,18344
DA:542,18344
DA:543,18344
DA:544,36688
DA:545,18344
DA:546,18344
DA:547,18344
DA:548,19178
DA:549,19178
DA:550,38356
DA:551,19214
DA:552,19250
DA:553,19070
DA:554,19178
DA:555,5
DA:556,5
DA:557,10
DA:558,5
DA:559,5
DA:560,5
DA:561,11711
DA:562,11711
DA:563,23422
DA:564,11711
DA:565,11675
DA:566,11711
DA:567,829
DA:568,829
DA:569,1658
DA:570,841
DA:571,817
DA:572,829
DA:573,61160
DA:574,61160
DA:575,122320
DA:576,61160
DA:577,61164
DA:578,61156
DA:579,61160
DA:580,557428
DA:581,557428
DA:582,1114856
DA:583,557424
DA:584,557424
DA:585,557432
DA:586,557420
DA:587,557428
DA:588,127180
DA:589,127180
DA:590,254360
DA:591,127180
DA:592,127180
DA:593,3307
DA:594,3307
DA:595,6614
DA:596,3307
DA:597,3307
DA:598,13209
DA:599,13209
DA:600,26418
DA:601,13209
DA:602,13209
DA:603,13209
DA:604,13209
DA:605,13209
DA:606,292728
DA:607,292728
DA:608,585456
DA:609,292732
DA:610,292724
DA:611,292728
DA:612,0
DA:613,3746631
LF:504
LH:467
end_of_record
TN:
SF:/home/runner/work/fakelua/fakelua/src/compile/syntax_tree.h
FN:1019,1019,_ZN7fakelua18SyntaxTreeNamelistD0Ev
FN:1019,1019,_ZN7fakelua18SyntaxTreeNamelistD2Ev
FN:1022,1024,_ZNK7fakelua18SyntaxTreeNamelist4TypeEv
FN:1055,1055,_ZN7fakelua18SyntaxTreeFunctionD0Ev
FN:1055,1055,_ZN7fakelua18SyntaxTreeFunctionD2Ev
FN:1058,1060,_ZNK7fakelua18SyntaxTreeFunction4TypeEv
FN:1096,1096,_ZN7fakelua22SyntaxTreeFuncnamelistD0Ev
FN:1096,1096,_ZN7fakelua22SyntaxTreeFuncnamelistD2Ev
FN:1099,1101,_ZNK7fakelua22SyntaxTreeFuncnamelist4TypeEv
FN:1126,1126,_ZN7fakelua18SyntaxTreeFuncnameD0Ev
FN:1126,1126,_ZN7fakelua18SyntaxTreeFuncnameD2Ev
FN:1129,1131,_ZNK7fakelua18SyntaxTreeFuncname4TypeEv
FN:1167,1167,_ZN7fakelua18SyntaxTreeFuncbodyD0Ev
FN:1167,1167,_ZN7fakelua18SyntaxTreeFuncbodyD2Ev
FN:1170,1172,_ZNK7fakelua18SyntaxTreeFuncbody4TypeEv
FN:1208,1208,_ZN7fakelua21SyntaxTreeFunctiondefD0Ev
FN:1208,1208,_ZN7fakelua21SyntaxTreeFunctiondefD2Ev
FN:1211,1213,_ZNK7fakelua21SyntaxTreeFunctiondef4TypeEv
FN:1238,1238,_ZN7fakelua17SyntaxTreeParlistD0Ev
FN:1238,1238,_ZN7fakelua17SyntaxTreeParlistD2Ev
FN:1241,1243,_ZNK7fakelua17SyntaxTreeParlist4TypeEv
FN:1279,1279,_ZN7fakelua23SyntaxTreeLocalFunctionD0Ev
FN:1279,1279,_ZN7fakelua23SyntaxTreeLocalFunctionD2Ev
FN:1282,1284,_ZNK7fakelua23SyntaxTreeLocalFunction4TypeEv
FN:1320,1320,_ZN7fakelua18SyntaxTreeLocalVarD0Ev
FN:1320,1320,_ZN7fakelua18SyntaxTreeLocalVarD2Ev
FN:1323,1325,_ZNK7fakelua18SyntaxTreeLocalVar4TypeEv
FN:1361,1361,_ZN7fakelua13SyntaxTreeExpD0Ev
FN:1361,1361,_ZN7fakelua13SyntaxTreeExpD2Ev
FN:1364,1366,_ZNK7fakelua13SyntaxTreeExp4TypeEv
FN:1435,1435,_ZN7fakelua15SyntaxTreeBinopD0Ev
FN:1435,1435,_ZN7fakelua15SyntaxTreeBinopD2Ev
FN:1438,1440,_ZNK7fakelua15SyntaxTreeBinop4TypeEv
FN:1465,1465,_ZN7fakelua14SyntaxTreeUnopD0Ev
FN:1465,1465,_ZN7fakelua14SyntaxTreeUnopD2Ev
FN:1468,1470,_ZNK7fakelua14SyntaxTreeUnop4TypeEv
FN:1495,1495,_ZN7fakelua14SyntaxTreeArgsD0Ev
FN:1495,1495,_ZN7fakelua14SyntaxTreeArgsD2Ev
FN:1498,1500,_ZNK7fakelua14SyntaxTreeArgs4TypeEv
FN:1558,1558,_ZN7fakelua19SyntaxTreePrefixexpD0Ev
FN:1558,1558,_ZN7fakelua19SyntaxTreePrefixexpD2Ev
FN:1561,1563,_ZNK7fakelua19SyntaxTreePrefixexp4TypeEv
FN:164,170,_ZNK7fakelua19SyntaxTreeInterface6GenTabB5cxx11Ei
FN:173,179,_ZNK7fakelua19SyntaxTreeInterface6LocStrB5cxx11Ev
FN:197,199,_ZNK7fakelua15SyntaxTreeEmpty4TypeEv
FN:211,211,_ZN7fakelua15SyntaxTreeBlockD0Ev
FN:211,211,_ZN7fakelua15SyntaxTreeBlockD2Ev
FN:214,216,_ZNK7fakelua15SyntaxTreeBlock4TypeEv
FN:246,246,_ZN7fakelua15SyntaxTreeLabelD0Ev
FN:246,246,_ZN7fakelua15SyntaxTreeLabelD2Ev
FN:249,251,_ZNK7fakelua15SyntaxTreeLabel4TypeEv
FN:271,271,_ZN7fakelua16SyntaxTreeReturnD0Ev
FN:271,271,_ZN7fakelua16SyntaxTreeReturnD2Ev
FN:274,276,_ZNK7fakelua16SyntaxTreeReturn4TypeEv
FN:301,301,_ZN7fakelua16SyntaxTreeAssignD0Ev
FN:301,301,_ZN7fakelua16SyntaxTreeAssignD2Ev
FN:304,306,_ZNK7fakelua16SyntaxTreeAssign4TypeEv
FN:342,342,_ZN7fakelua17SyntaxTreeVarlistD0Ev
FN:342,342,_ZN7fakelua17SyntaxTreeVarlistD2Ev
FN:345,347,_ZNK7fakelua17SyntaxTreeVarlist4TypeEv
FN:372,372,_ZN7fakelua17SyntaxTreeExplistD0Ev
FN:372,372,_ZN7fakelua17SyntaxTreeExplistD2Ev
FN:375,377,_ZNK7fakelua17SyntaxTreeExplist4TypeEv
FN:402,402,_ZN7fakelua13SyntaxTreeVarD0Ev
FN:402,402,_ZN7fakelua13SyntaxTreeVarD2Ev
FN:405,407,_ZNK7fakelua13SyntaxTreeVar4TypeEv
FN:475,475,_ZN7fakelua22SyntaxTreeFunctioncallD0Ev
FN:475,475,_ZN7fakelua22SyntaxTreeFunctioncallD2Ev
FN:478,480,_ZNK7fakelua22SyntaxTreeFunctioncall4TypeEv
FN:527,527,_ZN7fakelua26SyntaxTreeTableconstructorD0Ev
FN:527,527,_ZN7fakelua26SyntaxTreeTableconstructorD2Ev
FN:530,532,_ZNK7fakelua26SyntaxTreeTableconstructor4TypeEv
FN:55,130,_ZN7fakelua22SyntaxTreeTypeToStringB5cxx11ENS_14SyntaxTreeTypeE
FN:557,557,_ZN7fakelua19SyntaxTreeFieldlistD0Ev
FN:557,557,_ZN7fakelua19SyntaxTreeFieldlistD2Ev
FN:560,562,_ZNK7fakelua19SyntaxTreeFieldlist4TypeEv
FN:587,587,_ZN7fakelua15SyntaxTreeFieldD0Ev
FN:587,587,_ZN7fakelua15SyntaxTreeFieldD2Ev
FN:590,592,_ZNK7fakelua15SyntaxTreeField4TypeEv
FN:650,650,_ZN7fakelua15SyntaxTreeBreakD0Ev
FN:650,650,_ZN7fakelua15SyntaxTreeBreakD2Ev
FN:653,655,_ZNK7fakelua15SyntaxTreeBreak4TypeEv
FN:667,667,_ZN7fakelua14SyntaxTreeGotoD0Ev
FN:667,667,_ZN7fakelua14SyntaxTreeGotoD2Ev
FN:670,672,_ZNK7fakelua14SyntaxTreeGoto4TypeEv
FN:692,692,_ZN7fakelua15SyntaxTreeWhileD0Ev
FN:692,692,_ZN7fakelua15SyntaxTreeWhileD2Ev
FN:695,697,_ZNK7fakelua15SyntaxTreeWhile4TypeEv
FN:733,733,_ZN7fakelua16SyntaxTreeRepeatD0Ev
FN:733,733,_ZN7fakelua16SyntaxTreeRepeatD2Ev
FN:736,738,_ZNK7fakelua16SyntaxTreeRepeat4TypeEv
FN:774,774,_ZN7fakelua12SyntaxTreeIfD0Ev
FN:774,774,_ZN7fakelua12SyntaxTreeIfD2Ev
FN:777,779,_ZNK7fakelua12SyntaxTreeIf4TypeEv
FN:837,837,_ZN7fakelua20SyntaxTreeElseiflistD0Ev
FN:837,837,_ZN7fakelua20SyntaxTreeElseiflistD2Ev
FN:840,842,_ZNK7fakelua20SyntaxTreeElseiflist4TypeEv
FN:893,893,_ZN7fakelua17SyntaxTreeForLoopD0Ev
FN:893,893,_ZN7fakelua17SyntaxTreeForLoopD2Ev
FN:896,898,_ZNK7fakelua17SyntaxTreeForLoop4TypeEv
FN:967,967,_ZN7fakelua15SyntaxTreeForInD0Ev
FN:967,967,_ZN7fakelua15SyntaxTreeForInD2Ev
FN:970,972,_ZNK7fakelua15SyntaxTreeForIn4TypeEv
FNDA:0,_ZN7fakelua18SyntaxTreeNamelistD0Ev
FNDA:0,_ZN7fakelua18SyntaxTreeNamelistD2Ev
FNDA:112384,_ZNK7fakelua18SyntaxTreeNamelist4TypeEv
FNDA:0,_ZN7fakelua18SyntaxTreeFunctionD0Ev
FNDA:4351,_ZN7fakelua18SyntaxTreeFunctionD2Ev
FNDA:70613,_ZNK7fakelua18SyntaxTreeFunction4TypeEv
FNDA:0,_ZN7fakelua22SyntaxTreeFuncnamelistD0Ev
FNDA:0,_ZN7fakelua22SyntaxTreeFuncnamelistD2Ev
FNDA:38403,_ZNK7fakelua22SyntaxTreeFuncnamelist4TypeEv
FNDA:0,_ZN7fakelua18SyntaxTreeFuncnameD0Ev
FNDA:4355,_ZN7fakelua18SyntaxTreeFuncnameD2Ev
FNDA:38403,_ZNK7fakelua18SyntaxTreeFuncname4TypeEv
FNDA:0,_ZN7fakelua18SyntaxTreeFuncbodyD0Ev
FNDA:4557,_ZN7fakelua18SyntaxTreeFuncbodyD2Ev
FNDA:44300,_ZNK7fakelua18SyntaxTreeFuncbody4TypeEv
FNDA:0,_ZN7fakelua21SyntaxTreeFunctiondefD0Ev
FNDA:0,_ZN7fakelua21SyntaxTreeFunctiondefD2Ev
FNDA:5,_ZNK7fakelua21SyntaxTreeFunctiondef4TypeEv
FNDA:0,_ZN7fakelua17SyntaxTreeParlistD0Ev
FNDA:0,_ZN7fakelua17SyntaxTreeParlistD2Ev
FNDA:24548,_ZNK7fakelua17SyntaxTreeParlist4TypeEv
FNDA:0,_ZN7fakelua23SyntaxTreeLocalFunctionD0Ev
FNDA:201,_ZN7fakelua23SyntaxTreeLocalFunctionD2Ev
FNDA:3697,_ZNK7fakelua23SyntaxTreeLocalFunction4TypeEv
FNDA:0,_ZN7fakelua18SyntaxTreeLocalVarD0Ev
FNDA:5281,_ZN7fakelua18SyntaxTreeLocalVarD2Ev
FNDA:143024,_ZNK7fakelua18SyntaxTreeLocalVar4TypeEv
FNDA:0,_ZN7fakelua13SyntaxTreeExpD0Ev
FNDA:36138,_ZN7fakelua13SyntaxTreeExpD2Ev
FNDA:910594,_ZNK7fakelua13SyntaxTreeExp4TypeEv
FNDA:0,_ZN7fakelua15SyntaxTreeBinopD0Ev
FNDA:0,_ZN7fakelua15SyntaxTreeBinopD2Ev
FNDA:150040,_ZNK7fakelua15SyntaxTreeBinop4TypeEv
FNDA:0,_ZN7fakelua14SyntaxTreeUnopD0Ev
FNDA:0,_ZN7fakelua14SyntaxTreeUnopD2Ev
FNDA:4087,_ZNK7fakelua14SyntaxTreeUnop4TypeEv
FNDA:0,_ZN7fakelua14SyntaxTreeArgsD0Ev
FNDA:1003,_ZN7fakelua14SyntaxTreeArgsD2Ev
FNDA:21813,_ZNK7fakelua14SyntaxTreeArgs4TypeEv
FNDA:0,_ZN7fakelua19SyntaxTreePrefixexpD0Ev
FNDA:17535,_ZN7fakelua19SyntaxTreePrefixexpD2Ev
FNDA:472011,_ZNK7fakelua19SyntaxTreePrefixexp4TypeEv
FNDA:279677,_ZNK7fakelua19SyntaxTreeInterface6GenTabB5cxx11Ei
FNDA:138679,_ZNK7fakelua19SyntaxTreeInterface6LocStrB5cxx11Ev
FNDA:215,_ZNK7fakelua15SyntaxTreeEmpty4TypeEv
FNDA:0,_ZN7fakelua15SyntaxTreeBlockD0Ev
FNDA:0,_ZN7fakelua15SyntaxTreeBlockD2Ev
FNDA:186558,_ZNK7fakelua15SyntaxTreeBlock4TypeEv
FNDA:0,_ZN7fakelua15SyntaxTreeLabelD0Ev
FNDA:0,_ZN7fakelua15SyntaxTreeLabelD2Ev
FNDA:27,_ZNK7fakelua15SyntaxTreeLabel4TypeEv
FNDA:0,_ZN7fakelua16SyntaxTreeReturnD0Ev
FNDA:0,_ZN7fakelua16SyntaxTreeReturnD2Ev
FNDA:165898,_ZNK7fakelua16SyntaxTreeReturn4TypeEv
FNDA:0,_ZN7fakelua16SyntaxTreeAssignD0Ev
FNDA:2475,_ZN7fakelua16SyntaxTreeAssignD2Ev
FNDA:63017,_ZNK7fakelua16SyntaxTreeAssign4TypeEv
FNDA:0,_ZN7fakelua17SyntaxTreeVarlistD0Ev
FNDA:0,_ZN7fakelua17SyntaxTreeVarlistD2Ev
FNDA:42063,_ZNK7fakelua17SyntaxTreeVarlist4TypeEv
FNDA:0,_ZN7fakelua17SyntaxTreeExplistD0Ev
FNDA:0,_ZN7fakelua17SyntaxTreeExplistD2Ev
FNDA:266418,_ZNK7fakelua17SyntaxTreeExplist4TypeEv
FNDA:0,_ZN7fakelua13SyntaxTreeVarD0Ev
FNDA:18962,_ZN7fakelua13SyntaxTreeVarD2Ev
FNDA:480098,_ZNK7fakelua13SyntaxTreeVar4TypeEv
FNDA:0,_ZN7fakelua22SyntaxTreeFunctioncallD0Ev
FNDA:1003,_ZN7fakelua22SyntaxTreeFunctioncallD2Ev
FNDA:24477,_ZNK7fakelua22SyntaxTreeFunctioncall4TypeEv
FNDA:0,_ZN7fakelua26SyntaxTreeTableconstructorD0Ev
FNDA:0,_ZN7fakelua26SyntaxTreeTableconstructorD2Ev
FNDA:11174,_ZNK7fakelua26SyntaxTreeTableconstructor4TypeEv
FNDA:0,_ZN7fakelua22SyntaxTreeTypeToStringB5cxx11ENS_14SyntaxTreeTypeE
FNDA:0,_ZN7fakelua19SyntaxTreeFieldlistD0Ev
FNDA:0,_ZN7fakelua19SyntaxTreeFieldlistD2Ev
FNDA:9808,_ZNK7fakelua19SyntaxTreeFieldlist4TypeEv
FNDA:0,_ZN7fakelua15SyntaxTreeFieldD0Ev
FNDA:3290,_ZN7fakelua15SyntaxTreeFieldD2Ev
FNDA:59458,_ZNK7fakelua15SyntaxTreeField4TypeEv
FNDA:0,_ZN7fakelua15SyntaxTreeBreakD0Ev
FNDA:0,_ZN7fakelua15SyntaxTreeBreakD2Ev
FNDA:5077,_ZNK7fakelua15SyntaxTreeBreak4TypeEv
FNDA:0,_ZN7fakelua14SyntaxTreeGotoD0Ev
FNDA:0,_ZN7fakelua14SyntaxTreeGotoD2Ev
FNDA:17,_ZNK7fakelua14SyntaxTreeGoto4TypeEv
FNDA:0,_ZN7fakelua15SyntaxTreeWhileD0Ev
FNDA:323,_ZN7fakelua15SyntaxTreeWhileD2Ev
FNDA:11533,_ZNK7fakelua15SyntaxTreeWhile4TypeEv
FNDA:0,_ZN7fakelua16SyntaxTreeRepeatD0Ev
FNDA:165,_ZN7fakelua16SyntaxTreeRepeatD2Ev
FNDA:5413,_ZNK7fakelua16SyntaxTreeRepeat4TypeEv
FNDA:0,_ZN7fakelua12SyntaxTreeIfD0Ev
FNDA:656,_ZN7fakelua12SyntaxTreeIfD2Ev
FNDA:24199,_ZNK7fakelua12SyntaxTreeIf4TypeEv
FNDA:0,_ZN7fakelua20SyntaxTreeElseiflistD0Ev
FNDA:0,_ZN7fakelua20SyntaxTreeElseiflistD2Ev
FNDA:13304,_ZNK7fakelua20SyntaxTreeElseiflist4TypeEv
FNDA:0,_ZN7fakelua17SyntaxTreeForLoopD0Ev
FNDA:719,_ZN7fakelua17SyntaxTreeForLoopD2Ev
FNDA:25163,_ZNK7fakelua17SyntaxTreeForLoop4TypeEv
FNDA:0,_ZN7fakelua15SyntaxTreeForInD0Ev
FNDA:202,_ZN7fakelua15SyntaxTreeForInD2Ev
FNDA:5306,_ZNK7fakelua15SyntaxTreeForIn4TypeEv
FNF:103
FNH:53
DA:55,0
DA:56,0
DA:57,0
DA:58,0
DA:59,0
DA:60,0
DA:61,0
DA:62,0
DA:63,0
DA:64,0
DA:65,0
DA:66,0
DA:67,0
DA:68,0
DA:69,0
DA:70,0
DA:71,0
DA:72,0
DA:73,0
DA:74,0
DA:75,0
DA:76,0
DA:77,0
DA:78,0
DA:79,0
DA:80,0
DA:81,0
DA:82,0
DA:83,0
DA:84,0
DA:85,0
DA:86,0
DA:87,0
DA:88,0
DA:89,0
DA:90,0
DA:91,0
DA:92,0
DA:93,0
DA:94,0
DA:95,0
DA:96,0
DA:97,0
DA:98,0
DA:99,0
DA:100,0
DA:101,0
DA:102,0
DA:103,0
DA:104,0
DA:105,0
DA:106,0
DA:107,0
DA:108,0
DA:109,0
DA:110,0
DA:111,0
DA:112,0
DA:113,0
DA:114,0
DA:115,0
DA:116,0
DA:117,0
DA:118,0
DA:119,0
DA:120,0
DA:121,0
DA:122,0
DA:123,0
DA:124,0
DA:125,0
DA:126,0
DA:127,0
DA:128,0
DA:138,157407
DA:141,157407
DA:150,2048
DA:151,928
DA:154,851443
DA:155,475018
DA:156,10926
DA:158,461219
DA:159,451220
DA:164,279677
DA:165,279677
DA:166,2451872
DA:167,2172195
DA:169,279677
DA:170,0
DA:173,138679
DA:174,138679
DA:175,277358
DA:176,138679
DA:177,277358
DA:178,138679
DA:179,0
DA:191,31
DA:193,31
DA:197,215
DA:198,215
DA:208,10656
DA:211,10656
DA:214,186558
DA:215,186558
DA:222,19647
DA:223,19647
DA:224,19647
DA:227,19415
DA:228,206025
DA:232,19412
DA:233,19412
DA:234,19412
DA:243,19
DA:246,19
DA:249,27
DA:250,27
DA:257,19
DA:258,38
DA:259,19
DA:268,4946
DA:271,4946
DA:274,165898
DA:275,165898
DA:282,4946
DA:283,4946
DA:287,98568
DA:288,98568
DA:298,2475
DA:301,4950
DA:304,63017
DA:305,63017
DA:312,2475
DA:313,2475
DA:317,2475
DA:318,2475
DA:322,39299
DA:323,39299
DA:327,39575
DA:328,39575
DA:339,2475
DA:342,2475
DA:345,42063
DA:346,42063
DA:353,2528
DA:354,2528
DA:355,2528
DA:359,48987
DA:369,13696
DA:372,13696
DA:375,266418
DA:376,266418
DA:383,14901
DA:384,14901
DA:385,14901
DA:388,29809
DA:389,250688
DA:399,18962
DA:402,20826
DA:405,480098
DA:406,480098
DA:413,18112
DA:414,36224
DA:415,18112
DA:418,1014
DA:419,1014
DA:423,305498
DA:424,305498
DA:428,850
DA:429,850
DA:433,305146
DA:434,305146
DA:438,18962
DA:439,37924
DA:440,18962
DA:443,78015
DA:444,108689
DA:458,104283
DA:459,154707
DA:472,1003
DA:475,2006
DA:478,24477
DA:479,24477
DA:486,1003
DA:487,1003
DA:491,1003
DA:492,1003
DA:496,14
DA:497,28
DA:498,14
DA:501,17559
DA:502,17559
DA:506,16951
DA:507,16951
DA:511,1518
DA:512,3036
DA:524,734
DA:527,734
DA:530,11174
DA:531,11174
DA:538,616
DA:539,616
DA:543,8762
DA:544,8762
DA:554,616
DA:557,616
DA:560,9808
DA:561,9808
DA:568,3290
DA:569,3290
DA:570,3290
DA:574,7732
DA:584,3290
DA:587,6580
DA:590,59458
DA:591,59458
DA:598,329
DA:599,329
DA:603,3290
DA:604,3290
DA:608,340
DA:609,680
DA:610,340
DA:613,3290
DA:614,6580
DA:615,3290
DA:618,47326
DA:619,47326
DA:623,47598
DA:624,47598
DA:628,272
DA:629,544
DA:633,4400
DA:634,8800
DA:647,137
DA:650,137
DA:653,5077
DA:654,5077
DA:664,9
DA:667,9
DA:670,17
DA:671,17
DA:678,9
DA:679,18
DA:680,9
DA:689,323
DA:692,646
DA:695,11533
DA:696,11533
DA:703,323
DA:704,323
DA:708,323
DA:709,323
DA:713,6454
DA:714,6454
DA:718,6525
DA:719,6525
DA:730,165
DA:733,330
DA:736,5413
DA:737,5413
DA:744,165
DA:745,165
DA:749,165
DA:750,165
DA:754,2981
DA:755,2981
DA:759,3005
DA:760,3005
DA:771,656
DA:774,2158
DA:777,24199
DA:778,24199
DA:785,656
DA:786,656
DA:790,656
DA:791,656
DA:795,656
DA:796,656
DA:800,190
DA:801,190
DA:805,13724
DA:806,13724
DA:810,13823
DA:811,13823
DA:815,13823
DA:816,13823
DA:820,13823
DA:821,13823
DA:834,656
DA:837,656
DA:840,13304
DA:841,13304
DA:848,209
DA:849,209
DA:850,209
DA:853,209
DA:854,209
DA:855,209
DA:858,3824
DA:859,3824
DA:864,10839
DA:869,10839
DA:873,828
DA:874,828
DA:878,840
DA:879,840
DA:890,719
DA:893,3004
DA:896,25163
DA:897,25163
DA:904,719
DA:905,1438
DA:906,719
DA:909,719
DA:910,719
DA:914,719
DA:915,719
DA:919,719
DA:920,719
DA:924,128
DA:925,128
DA:929,6108
DA:930,12216
DA:934,14149
DA:935,14149
DA:939,23100
DA:940,22484
DA:944,22758
DA:945,21588
DA:949,19766
DA:950,18400
DA:964,202
DA:967,606
DA:970,5306
DA:971,5306
DA:978,202
DA:979,202
DA:983,202
DA:984,202
DA:988,202
DA:989,202
DA:993,3154
DA:994,3154
DA:998,3150
DA:999,3150
DA:1003,2962
DA:1004,2962
DA:1016,8130
DA:1019,8130
DA:1022,112384
DA:1023,112384
DA:1030,10969
DA:1031,10969
DA:1032,10969
DA:1035,5453
DA:1036,5453
DA:1037,5453
DA:1040,6401
DA:1041,28240
DA:1052,4351
DA:1055,8702
DA:1058,70613
DA:1059,70613
DA:1066,4351
DA:1067,4351
DA:1071,4351
DA:1072,4351
DA:1076,32582
DA:1077,32582
DA:1081,30596
DA:1082,30596
DA:1093,4355
DA:1096,4355
DA:1099,38403
DA:1100,38403
DA:1107,4383
DA:1108,4383
DA:1109,4383
DA:1113,14235
DA:1123,4355
DA:1126,4355
DA:1129,38403
DA:1130,38403
DA:1137,4355
DA:1138,4355
DA:1142,12
DA:1143,24
DA:1144,12
DA:1147,32579
DA:1148,32579
DA:1152,12099
DA:1153,24198
DA:1164,4557
DA:1167,9114
DA:1170,44300
DA:1171,44300
DA:1178,2672
DA:1179,2672
DA:1183,4557
DA:1184,4557
DA:1188,31958
DA:1189,31958
DA:1193,26831
DA:1194,26831
DA:1205,5
DA:1208,5
DA:1211,5
DA:1212,5
DA:1219,5
DA:1220,5
DA:1224,5
DA:1225,5
DA:1235,2672
DA:1238,2672
DA:1241,24548
DA:1242,24548
DA:1249,2647
DA:1250,2647
DA:1254,42
DA:1255,42
DA:1259,21980
DA:1260,21980
DA:1264,7731
DA:1265,7731
DA:1276,201
DA:1279,402
DA:1282,3697
DA:1283,3697
DA:1290,201
DA:1291,402
DA:1292,201
DA:1295,201
DA:1296,201
DA:1300,440
DA:1301,880
DA:1305,1357
DA:1306,1357
DA:1317,5281
DA:1320,10520
DA:1323,143024
DA:1324,143024
DA:1331,5281
DA:1332,5281
DA:1336,5239
DA:1337,5239
DA:1341,89469
DA:1342,89469
DA:1346,89469
DA:1347,89469
DA:1358,36138
DA:1361,73497
DA:1364,910594
DA:1365,910594
DA:1372,36138
DA:1373,72276
DA:1374,36138
DA:1377,12248
DA:1378,24496
DA:1379,12248
DA:1382,6775
DA:1383,6775
DA:1387,7054
DA:1388,7054
DA:1392,23530
DA:1393,23530
DA:1397,188816
DA:1398,284076
DA:1402,58346
DA:1403,116692
DA:1407,591672
DA:1408,591672
DA:1412,584591
DA:1413,584591
DA:1417,664203
DA:1418,664203
DA:1432,6775
DA:1435,6775
DA:1438,150040
DA:1439,150040
DA:1446,6775
DA:1447,13550
DA:1448,6775
DA:1451,26271
DA:1452,52542
DA:1462,279
DA:1465,279
DA:1468,4087
DA:1469,4087
DA:1476,279
DA:1477,558
DA:1478,279
DA:1481,896
DA:1482,1792
DA:1492,1003
DA:1495,1045
DA:1498,21813
DA:1499,21813
DA:1506,834
DA:1507,834
DA:1511,21
DA:1512,21
DA:1516,21
DA:1517,21
DA:1521,1003
DA:1522,2006
DA:1523,1003
DA:1526,1246
DA:1527,2492
DA:1531,16897
DA:1532,16897
DA:1536,15721
DA:1537,15721
DA:1541,15721
DA:1542,15721
DA:1555,17535
DA:1558,17535
DA:1561,472011
DA:1562,472011
DA:1569,17535
DA:1570,17535
DA:1574,17535
DA:1575,35070
DA:1576,17535
DA:1579,371073
DA:1580,371073
DA:1584,78634
DA:1585,104958
LF:527
LH:451
end_of_record
TN:
SF:/home/runner/work/fakelua/fakelua/src/compile/type_inferencer.cpp
FN:10,12,_ZN7fakelua15TypeEnvironmentC2Ev
FN:14,16,_ZN7fakelua15TypeEnvironment10EnterScopeEv
FN:18,22,_ZN7fakelua15TypeEnvironment9ExitScopeEv
FN:24,26,_ZN7fakelua15TypeEnvironment6DefineERKNSt7__cxx1112basic_stringIcSt11char_traitsIcESaIcEEENS_12InferredTypeE
FN:28,36,_ZN7fakelua15TypeEnvironment6UpdateERKNSt7__cxx1112basic_stringIcSt11char_traitsIcESaIcEEENS_12InferredTypeE
FN:308,395,_ZN7fakelua14TypeInferencer8InferExpERKSt10shared_ptrINS_13SyntaxTreeExpEE
FN:38,45,_ZNK7fakelua15TypeEnvironment6LookupERKNSt7__cxx1112basic_stringIcSt11char_traitsIcESaIcEEE
FN:397,410,_ZN7fakelua14TypeInferencer14InferPrefixExpERKSt10shared_ptrINS_19SyntaxTreePrefixexpEE
FN:412,433,_ZN7fakelua14TypeInferencer8InferVarERKSt10shared_ptrINS_13SyntaxTreeVarEE
FN:435,478,_ZN7fakelua14TypeInferencer10InferBlockERKSt10shared_ptrINS_15SyntaxTreeBlockEEb
FN:47,61,_ZN7fakelua15TypeEnvironment9MergeTypeENS_12InferredTypeES1_
FN:485,501,_ZNK7fakelua14TypeInferencer17IsArithmeticBinopERKSt10shared_ptrINS_19SyntaxTreeInterfaceEE
FN:505,576,_ZNK7fakelua14TypeInferencer21CollectReassignedVarsERKSt10shared_ptrINS_19SyntaxTreeInterfaceEERSt13unordered_setINSt7__cxx1112basic_stringIcSt11char_traitsIcESaIcEEESt4hashISC_ESt8equal_toISC_ESaISC_EE
FN:578,618,_ZN7fakelua14TypeInferencer17RunTrialInferenceERKSt10shared_ptrINS_19SyntaxTreeInterfaceEERKSt6vectorINSt7__cxx1112basic_stringIcSt11char_traitsIcESaIcEEESaISC_EERKSt13unordered_mapISC_NS_12InferredTypeESt4hashISC_ESt8equal_toISC_ESaISt4pairIKSC_SI_EEE
FN:620,638,_ZNK7fakelua14TypeInferencer24HasArithmeticImprovementERKSt13unordered_mapIPNS_19SyntaxTreeInterfaceENS_12InferredTypeESt4hashIS3_ESt8equal_toIS3_ESaISt4pairIKS3_S4_EEESF_RKSt10shared_ptrIS2_E
FN:623,636,_ZZNK7fakelua14TypeInferencer24HasArithmeticImprovementERKSt13unordered_mapIPNS_19SyntaxTreeInterfaceENS_12InferredTypeESt4hashIS3_ESt8equal_toIS3_ESaISt4pairIKS3_S4_EEESF_RKSt10shared_ptrIS2_EENKUlSJ_E_clESJ_
FN:63,69,_ZN7fakelua14TypeInferencer7ProcessERNS_13CompileResultE
FN:640,658,_ZNK7fakelua14TypeInferencer22ParamAffectsArithmeticERKSt13unordered_mapIPNS_19SyntaxTreeInterfaceENS_12InferredTypeESt4hashIS3_ESt8equal_toIS3_ESaISt4pairIKS3_S4_EEESF_RKSt10shared_ptrIS2_E
FN:643,656,_ZZNK7fakelua14TypeInferencer22ParamAffectsArithmeticERKSt13unordered_mapIPNS_19SyntaxTreeInterfaceENS_12InferredTypeESt4hashIS3_ESt8equal_toIS3_ESaISt4pairIKS3_S4_EEESF_RKSt10shared_ptrIS2_EENKUlSJ_E_clESJ_
FN:660,786,_ZN7fakelua14TypeInferencer18DiscoverMathParamsERNS_13CompileResultE
FN:71,306,_ZN7fakelua14TypeInferencer19InferAndSetEvalTypeERKSt10shared_ptrINS_19SyntaxTreeInterfaceEE
FN:714,721,_ZZN7fakelua14TypeInferencer18DiscoverMathParamsERNS_13CompileResultEENKUlRKNSt7__cxx1112basic_stringIcSt11char_traitsIcESaIcEEENS_12InferredTypeESB_E_clESA_SB_SB_
FNDA:11487,_ZN7fakelua15TypeEnvironmentC2Ev
FNDA:22481,_ZN7fakelua15TypeEnvironment10EnterScopeEv
FNDA:10994,_ZN7fakelua15TypeEnvironment9ExitScopeEv
FNDA:35145,_ZN7fakelua15TypeEnvironment6DefineERKNSt7__cxx1112basic_stringIcSt11char_traitsIcESaIcEEENS_12InferredTypeE
FNDA:4844,_ZN7fakelua15TypeEnvironment6UpdateERKNSt7__cxx1112basic_stringIcSt11char_traitsIcESaIcEEENS_12InferredTypeE
FNDA:93556,_ZN7fakelua14TypeInferencer8InferExpERKSt10shared_ptrINS_13SyntaxTreeExpEE
FNDA:65069,_ZNK7fakelua15TypeEnvironment6LookupERKNSt7__cxx1112basic_stringIcSt11char_traitsIcESaIcEEE
FNDA:52310,_ZN7fakelua14TypeInferencer14InferPrefixExpERKSt10shared_ptrINS_19SyntaxTreePrefixexpEE
FNDA:49089,_ZN7fakelua14TypeInferencer8InferVarERKSt10shared_ptrINS_13SyntaxTreeVarEE
FNDA:22231,_ZN7fakelua14TypeInferencer10InferBlockERKSt10shared_ptrINS_15SyntaxTreeBlockEEb
FNDA:4834,_ZN7fakelua15TypeEnvironment9MergeTypeENS_12InferredTypeES1_
FNDA:42814,_ZNK7fakelua14TypeInferencer17IsArithmeticBinopERKSt10shared_ptrINS_19SyntaxTreeInterfaceEE
FNDA:2786,_ZNK7fakelua14TypeInferencer21CollectReassignedVarsERKSt10shared_ptrINS_19SyntaxTreeInterfaceEERSt13unordered_setINSt7__cxx1112basic_stringIcSt11char_traitsIcESaIcEEESt4hashISC_ESt8equal_toISC_ESaISC_EE
FNDA:4901,_ZN7fakelua14TypeInferencer17RunTrialInferenceERKSt10shared_ptrINS_19SyntaxTreeInterfaceEERKSt6vectorINSt7__cxx1112basic_stringIcSt11char_traitsIcESaIcEEESaISC_EERKSt13unordered_mapISC_NS_12InferredTypeESt4hashISC_ESt8equal_toISC_ESaISt4pairIKSC_SI_EEE
FNDA:1303,_ZNK7fakelua14TypeInferencer24HasArithmeticImprovementERKSt13unordered_mapIPNS_19SyntaxTreeInterfaceENS_12InferredTypeESt4hashIS3_ESt8equal_toIS3_ESaISt4pairIKS3_S4_EEESF_RKSt10shared_ptrIS2_E
FNDA:40669,_ZZNK7fakelua14TypeInferencer24HasArithmeticImprovementERKSt13unordered_mapIPNS_19SyntaxTreeInterfaceENS_12InferredTypeESt4hashIS3_ESt8equal_toIS3_ESaISt4pairIKS3_S4_EEESF_RKSt10shared_ptrIS2_EENKUlSJ_E_clESJ_
FNDA:1685,_ZN7fakelua14TypeInferencer7ProcessERNS_13CompileResultE
FNDA:843,_ZNK7fakelua14TypeInferencer22ParamAffectsArithmeticERKSt13unordered_mapIPNS_19SyntaxTreeInterfaceENS_12InferredTypeESt4hashIS3_ESt8equal_toIS3_ESaISt4pairIKS3_S4_EEESF_RKSt10shared_ptrIS2_E
FNDA:23686,_ZZNK7fakelua14TypeInferencer22ParamAffectsArithmeticERKSt13unordered_mapIPNS_19SyntaxTreeInterfaceENS_12InferredTypeESt4hashIS3_ESt8equal_toIS3_ESaISt4pairIKS3_S4_EEESF_RKSt10shared_ptrIS2_EENKUlSJ_E_clESJ_
FNDA:1685,_ZN7fakelua14TypeInferencer18DiscoverMathParamsERNS_13CompileResultE
FNDA:264372,_ZN7fakelua14TypeInferencer19InferAndSetEvalTypeERKSt10shared_ptrINS_19SyntaxTreeInterfaceEE
FNDA:3449,_ZZN7fakelua14TypeInferencer18DiscoverMathParamsERNS_13CompileResultEENKUlRKNSt7__cxx1112basic_stringIcSt11char_traitsIcESaIcEEENS_12InferredTypeESB_E_clESA_SB_SB_
FNF:22
FNH:22
DA:10,11487
DA:11,11487
DA:12,11487
DA:14,22481
DA:15,22481
DA:16,22481
DA:18,10994
DA:19,10994
DA:20,10994
DA:22,10994
DA:24,35145
DA:25,35145
DA:26,35145
DA:28,4844
DA:29,10324
DA:30,10314
DA:31,4834
DA:32,4834
DA:38,65069
DA:39,90513
DA:40,87497
DA:41,62053
DA:47,4834
DA:48,4834
DA:51,2710
DA:54,2710
DA:57,2710
DA:58,2443
DA:63,1685
DA:64,1685
DA:65,1685
DA:68,1685
DA:69,1685
DA:71,264372
DA:72,264372
DA:76,257821
DA:77,1755
DA:78,1755
DA:81,1755
DA:82,1755
DA:83,1755
DA:84,1755
DA:85,10726
DA:86,10726
DA:87,10726
DA:88,10726
DA:89,10726
DA:90,10710
DA:91,0
DA:93,10726
DA:94,0
DA:95,0
DA:99,21868
DA:100,11142
DA:101,11142
DA:102,10926
DA:106,10926
DA:107,11142
DA:110,11142
DA:113,10726
DA:114,10726
DA:115,32178
DA:116,4844
DA:117,4844
DA:118,4844
DA:119,4844
DA:120,4844
DA:122,4844
DA:124,4844
DA:125,4844
DA:126,14532
DA:128,4844
DA:129,4844
DA:130,10
DA:131,10
DA:132,10
DA:135,4834
DA:136,4834
DA:137,4834
DA:138,4834
DA:139,24220
DA:140,2004
DA:141,2004
DA:142,2004
DA:143,2004
DA:144,2004
DA:151,2004
DA:152,2004
DA:153,4008
DA:154,2169
DA:155,4008
DA:156,5622
DA:157,3393
DA:158,2004
DA:159,1167
DA:160,4338
DA:161,5388
DA:162,2004
DA:164,2004
DA:165,4008
DA:166,4008
DA:167,4008
DA:168,2004
DA:170,2004
DA:171,2004
DA:172,2004
DA:173,2139
DA:174,2139
DA:175,2139
DA:176,2139
DA:177,2139
DA:178,2139
DA:179,88
DA:180,88
DA:181,88
DA:182,88
DA:183,88
DA:184,88
DA:185,2227
DA:186,2227
DA:187,2227
DA:188,2227
DA:189,2227
DA:190,1303
DA:191,3756
DA:192,2453
DA:194,1303
DA:195,0
DA:196,4454
DA:197,2227
DA:198,2227
DA:199,2227
DA:200,2227
DA:201,2227
DA:202,13237
DA:203,13237
DA:204,13237
DA:205,13237
DA:206,13237
DA:207,13237
DA:208,16015
DA:209,16015
DA:210,16015
DA:211,34230
DA:212,18215
DA:214,16015
DA:215,16015
DA:216,16015
DA:217,93556
DA:218,93556
DA:219,93556
DA:220,93556
DA:221,52310
DA:222,52310
DA:223,52310
DA:224,52310
DA:225,49089
DA:226,49089
DA:227,49089
DA:228,49089
DA:229,2496
DA:230,2496
DA:231,2496
DA:232,2496
DA:233,2496
DA:234,2496
DA:235,2496
DA:236,40
DA:237,40
DA:238,40
DA:239,40
DA:240,40
DA:241,40
DA:242,2496
DA:243,2496
DA:244,2496
DA:245,2496
DA:246,2496
DA:247,2496
DA:248,2496
DA:249,2496
DA:250,40
DA:251,40
DA:252,120
DA:253,80
DA:255,40
DA:256,40
DA:257,40
DA:258,80
DA:259,80
DA:260,80
DA:261,80
DA:262,80
DA:263,80
DA:264,80
DA:265,2026
DA:266,2026
DA:267,2026
DA:268,4052
DA:269,2026
DA:270,2638
DA:271,612
DA:272,1224
DA:274,0
DA:275,4052
DA:276,2026
DA:277,2026
DA:278,2026
DA:279,923
DA:280,923
DA:281,923
DA:282,1846
DA:283,923
DA:284,923
DA:285,923
DA:286,416
DA:287,416
DA:288,832
DA:289,416
DA:290,416
DA:291,416
DA:292,416
DA:293,440
DA:294,440
DA:295,440
DA:296,440
DA:297,880
DA:298,440
DA:299,440
DA:300,440
DA:301,874
DA:302,874
DA:303,874
DA:308,93556
DA:309,93556
DA:311,93556
DA:312,19066
DA:313,19066
DA:314,19066
DA:315,19066
DA:316,19066
DA:317,74490
DA:318,48030
DA:319,48030
DA:320,48030
DA:322,26460
DA:323,23539
DA:324,23539
DA:326,23539
DA:327,11238
DA:328,11238
DA:331,12301
DA:332,12301
DA:334,12301
DA:337,12301
DA:338,8350
DA:339,5617
DA:340,5617
DA:342,2733
DA:343,2733
DA:344,2733
DA:349,3951
DA:350,350
DA:351,350
DA:352,350
DA:357,3601
DA:358,1163
DA:359,571
DA:360,571
DA:364,3030
DA:365,3030
DA:366,24602
DA:368,2921
DA:369,572
DA:370,572
DA:371,572
DA:372,572
DA:373,572
DA:374,317
DA:375,158
DA:376,158
DA:378,159
DA:379,79
DA:380,79
DA:383,335
DA:384,95
DA:385,47
DA:386,47
DA:389,288
DA:390,288
DA:391,1144
DA:393,2349
DA:394,2349
DA:395,93556
DA:397,52310
DA:398,52310
DA:399,52310
DA:401,52310
DA:402,101516
DA:403,1552
DA:404,1552
DA:405,3104
DA:408,52310
DA:409,52310
DA:410,52310
DA:412,49089
DA:413,49089
DA:414,47305
DA:415,47305
DA:416,47305
DA:422,1784
DA:423,1784
DA:424,0
DA:425,1784
DA:426,1544
DA:427,1544
DA:428,1544
DA:431,1784
DA:432,1784
DA:435,22231
DA:436,22231
DA:440,20796
DA:441,6763
DA:444,59087
DA:445,38291
DA:452,59087
DA:453,38291
DA:454,27565
DA:456,10726
DA:457,10726
DA:458,10726
DA:459,0
DA:461,10726
DA:462,10726
DA:463,10710
DA:464,0
DA:465,10726
DA:466,21868
DA:467,11142
DA:468,10926
DA:469,10926
DA:472,32178
DA:474,20796
DA:475,20796
DA:476,6763
DA:485,42814
DA:486,42814
DA:489,11670
DA:490,23340
DA:493,3261
DA:494,3261
DA:497,3261
DA:498,2170
DA:499,1686
DA:500,5431
DA:501,18192
DA:505,2786
DA:507,2786
DA:510,2719
DA:511,850
DA:512,850
DA:513,2443
DA:514,1593
DA:516,850
DA:517,850
DA:524,276
DA:525,276
DA:526,276
DA:527,276
DA:528,552
DA:529,276
DA:530,276
DA:531,552
DA:532,552
DA:534,276
DA:536,276
DA:537,552
DA:538,552
DA:540,276
DA:541,276
DA:542,99
DA:543,99
DA:544,99
DA:545,99
DA:546,111
DA:547,24
DA:549,0
DA:550,99
DA:551,99
DA:552,99
DA:553,71
DA:554,71
DA:555,71
DA:556,71
DA:557,71
DA:558,24
DA:559,24
DA:560,24
DA:561,24
DA:562,24
DA:563,102
DA:564,102
DA:565,102
DA:566,102
DA:567,102
DA:568,0
DA:569,0
DA:570,0
DA:571,0
DA:572,0
DA:578,4901
DA:582,4901
DA:583,4901
DA:585,4901
DA:587,9802
DA:589,9802
DA:592,9802
DA:593,9802
DA:594,29348
DA:595,19546
DA:596,39092
DA:600,9802
DA:603,9802
DA:604,299910
DA:606,9802
DA:610,4901
DA:611,9802
DA:614,4901
DA:615,4901
DA:617,4901
DA:618,4901
DA:620,1303
DA:622,1303
DA:623,1303
DA:624,40669
DA:625,39648
DA:627,1021
DA:628,1021
DA:629,1021
DA:633,2074
DA:634,510
DA:637,1303
DA:640,843
DA:642,843
DA:643,843
DA:644,23686
DA:645,22740
DA:647,946
DA:648,946
DA:649,946
DA:653,1956
DA:654,726
DA:657,843
DA:660,1685
DA:661,1685
DA:662,1685
DA:663,0
DA:666,1685
DA:667,3976
DA:669,2291
DA:670,2291
DA:672,2291
DA:673,2139
DA:674,2139
DA:676,2139
DA:677,2139
DA:678,2139
DA:679,6569
DA:680,88
DA:681,176
DA:682,88
DA:683,88
DA:685,2291
DA:686,64
DA:689,2227
DA:690,2227
DA:691,2227
DA:692,924
DA:694,1303
DA:696,1303
DA:697,1303
DA:698,0
DA:700,1303
DA:701,1303
DA:702,0
DA:705,1303
DA:708,1303
DA:709,0
DA:710,41972
DA:714,4752
DA:716,3449
DA:717,10234
DA:718,12727
DA:720,3449
DA:721,1303
DA:724,2606
DA:727,2606
DA:730,1303
DA:731,25487
DA:732,24694
DA:734,793
DA:735,793
DA:741,510
DA:742,510
DA:744,510
DA:745,1488
DA:747,978
DA:748,135
DA:751,843
DA:752,843
DA:753,843
DA:754,726
DA:756,843
DA:759,16485
DA:760,15975
DA:763,510
DA:764,431
DA:765,431
DA:770,431
DA:771,431
DA:772,431
DA:773,1883
DA:774,1452
DA:775,4440
DA:776,2988
DA:778,4084
DA:779,3948
DA:780,2632
DA:782,1452
DA:783,1452
DA:785,11957
DA:786,3370
LF:532
LH:514
end_of_record
TN:
SF:/home/runner/work/fakelua/fakelua/src/compile/type_inferencer.h
FNF:0
FNH:0
DA:7,22701
DA:28,6194
LF:2
LH:2
end_of_record
TN:
SF:/home/runner/work/fakelua/fakelua/src/jit/gcc_handle.cpp
FN:12,24,_ZN7fakelua9GCCHandleD0Ev
FN:12,24,_ZN7fakelua9GCCHandleD2Ev
FNDA:0,_ZN7fakelua9GCCHandleD0Ev
FNDA:2816,_ZN7fakelua9GCCHandleD2Ev
FNF:2
FNH:1
DA:12,2816
DA:19,2816
DA:20,2816
DA:21,2816
DA:24,2816
LF:5
LH:5
end_of_record
TN:
SF:/home/runner/work/fakelua/fakelua/src/jit/gcc_handle.h
FNF:0
FNH:0
DA:10,2816
DA:11,2816
LF:2
LH:2
end_of_record
TN:
SF:/home/runner/work/fakelua/fakelua/src/jit/gcc_jit.cpp
FN:83,84,_ZN7fakelua9GccJitterC2EPNS_5StateE
FN:86,234,_ZN7fakelua9GccJitter7CompileERNS_13CompileResultERKNS_13CompileConfigE
FNDA:2816,_ZN7fakelua9GccJitterC2EPNS_5StateE
FNDA:2816,_ZN7fakelua9GccJitter7CompileERNS_13CompileResultERKNS_13CompileConfigE
FNF:2
FNH:2
DA:83,2816
DA:84,2816
DA:86,2816
DA:87,5632
DA:88,2816
DA:94,2816
DA:96,5632
DA:98,2816
DA:99,0
DA:101,2816
DA:102,2816
DA:103,2816
DA:105,2816
DA:106,2816
DA:107,2816
DA:108,2816
DA:109,2816
DA:111,2816
DA:119,4192
DA:120,8448
DA:121,2816
DA:122,0
DA:130,2816
DA:131,0
DA:133,2816
DA:134,0
DA:136,2816
DA:137,2816
DA:138,2816
DA:177,2816
DA:178,2816
DA:179,30976
DA:180,28160
DA:182,2816
DA:184,2816
DA:185,2816
DA:186,0
DA:189,2816
DA:190,5632
DA:191,0
DA:192,0
DA:195,5632
DA:196,2816
DA:197,2816
DA:198,2816
DA:199,2816
DA:200,2816
DA:202,2816
DA:204,2816
DA:205,2816
DA:206,0
DA:208,2816
DA:209,0
DA:210,0
DA:211,0
DA:212,0
DA:213,0
DA:214,0
DA:215,0
DA:217,2816
DA:218,2816
DA:219,0
DA:221,2816
DA:223,16160
DA:224,6672
DA:225,6672
DA:226,0
DA:228,13344
DA:229,6672
DA:232,2816
DA:234,2816
LF:71
LH:54
end_of_record
TN:
SF:/home/runner/work/fakelua/fakelua/src/jit/jit_common.h
FNF:0
FNH:0
DA:9,8464
DA:10,5640
LF:2
LH:2
end_of_record
TN:
SF:/home/runner/work/fakelua/fakelua/src/jit/tcc_handle.cpp
FN:36,41,_ZN7fakelua9TCCHandleD0Ev
FN:36,41,_ZN7fakelua9TCCHandleD2Ev
FN:8,34,_ZN7fakelua9TCCHandleC2EPNS_5StateERKNS_13CompileConfigE
FNDA:0,_ZN7fakelua9TCCHandleD0Ev
FNDA:2824,_ZN7fakelua9TCCHandleD2Ev
FNDA:2824,_ZN7fakelua9TCCHandleC2EPNS_5StateERKNS_13CompileConfigE
FNF:3
FNH:2
DA:8,2824
DA:10,2824
DA:11,2824
DA:12,0
DA:14,2824
DA:15,1376
DA:17,5648
DA:18,2824
DA:20,5648
DA:21,2824
DA:23,2824
DA:24,0
DA:27,2824
DA:30,2824
DA:31,2824
DA:32,2824
DA:33,2824
DA:34,2824
DA:36,2824
DA:37,2824
DA:38,2824
DA:39,2824
DA:41,2824
LF:23
LH:21
end_of_record
TN:
SF:/home/runner/work/fakelua/fakelua/src/jit/tcc_handle.h
FNF:0
FNH:0
DA:20,2824
DA:21,2824
LF:2
LH:2
end_of_record
TN:
SF:/home/runner/work/fakelua/fakelua/src/jit/tcc_jit.cpp
FN:10,36,_ZN7fakelua9TccJitter7CompileERNS_13CompileResultERKNS_13CompileConfigE
FN:7,8,_ZN7fakelua9TccJitterC2EPNS_5StateE
FNDA:2824,_ZN7fakelua9TccJitter7CompileERNS_13CompileResultERKNS_13CompileConfigE
FNDA:2824,_ZN7fakelua9TccJitterC2EPNS_5StateE
FNF:2
FNH:2
DA:7,2824
DA:8,2824
DA:10,2824
DA:11,2824
DA:12,2824
DA:14,2824
DA:15,16
DA:18,2816
DA:19,0
DA:22,16160
DA:23,6672
DA:24,6672
DA:25,0
DA:31,13344
DA:32,6672
DA:35,2824
DA:36,2816
LF:17
LH:15
end_of_record
TN:
SF:/home/runner/work/fakelua/fakelua/src/jit/vm.cpp
FN:13,15,FakeluaThrowError
FN:17,59,FakeluaCallByName
FN:9,11,FakeluaAllocTemp
FNDA:2,FakeluaThrowError
FNDA:44,FakeluaCallByName
FNDA:802,FakeluaAllocTemp
FNF:3
FNH:3
DA:9,802
DA:10,802
DA:13,2
DA:14,2
DA:17,44
DA:18,44
DA:19,44
DA:20,4
DA:22,42
DA:23,42
DA:24,4
DA:28,40
DA:29,2
DA:30,4
DA:34,38
DA:35,8
DA:36,4
DA:39,34
DA:40,34
DA:41,34
DA:42,138
DA:43,104
DA:45,34
DA:47,34
DA:48,2
DA:49,2
DA:50,18
DA:51,2
DA:52,2
DA:53,2
DA:54,2
DA:55,2
DA:56,2
DA:57,0
DA:59,44
LF:35
LH:34
end_of_record
TN:
SF:/home/runner/work/fakelua/fakelua/src/jit/vm.h
FN:22,30,_ZN7fakelua2Vm16RegisterFunctionERKNS_10VmFunctionE
FN:33,39,_ZNK7fakelua2Vm11GetFunctionERKNSt7__cxx1112basic_stringIcSt11char_traitsIcESaIcEEE
FNDA:13388,_ZN7fakelua2Vm16RegisterFunctionERKNS_10VmFunctionE
FNDA:4744,_ZNK7fakelua2Vm11GetFunctionERKNSt7__cxx1112basic_stringIcSt11char_traitsIcESaIcEEE
FNF:2
FNH:2
DA:17,1860
DA:19,1854
DA:22,13388
DA:23,13388
DA:24,13388
DA:25,13388
DA:26,1760
DA:27,1760
DA:29,11628
DA:33,4744
DA:34,4744
DA:35,4744
DA:36,6
DA:38,4738
LF:14
LH:14
end_of_record
TN:
SF:/home/runner/work/fakelua/fakelua/src/jit/vm_function.h
FN:14,18,_ZN7fakelua10VmFunctionC2ENSt7__cxx1112basic_stringIcSt11char_traitsIcESaIcEEEiPvRKSt10shared_ptrINS_9TCCHandleEE
FN:20,25,_ZN7fakelua10VmFunctionC2ENSt7__cxx1112basic_stringIcSt11char_traitsIcESaIcEEEiNS_7JITTypeEPvRKSt10shared_ptrINS_9JITHandleEE
FN:27,27,_ZN7fakelua10VmFunctionD2Ev
FN:41,44,_ZNK7fakelua10VmFunction7GetAddrENS_7JITTypeE
FN:51,59,_ZN7fakelua10VmFunction5MergeERKS0_
FNDA:6676,_ZN7fakelua10VmFunctionC2ENSt7__cxx1112basic_stringIcSt11char_traitsIcESaIcEEEiPvRKSt10shared_ptrINS_9TCCHandleEE
FNDA:6712,_ZN7fakelua10VmFunctionC2ENSt7__cxx1112basic_stringIcSt11char_traitsIcESaIcEEEiNS_7JITTypeEPvRKSt10shared_ptrINS_9JITHandleEE
FNDA:19902,_ZN7fakelua10VmFunctionD2Ev
FNDA:4738,_ZNK7fakelua10VmFunction7GetAddrENS_7JITTypeE
FNDA:11628,_ZN7fakelua10VmFunction5MergeERKS0_
FNF:5
FNH:5
DA:12,6
DA:14,6676
DA:15,6676
DA:16,6676
DA:17,6676
DA:18,6676
DA:20,6712
DA:21,6712
DA:22,6712
DA:23,6712
DA:24,6712
DA:25,6712
DA:27,59706
DA:29,4744
DA:30,4744
DA:33,13388
DA:34,13388
DA:37,4734
DA:38,4734
DA:41,4738
DA:42,4738
DA:43,4738
DA:51,11628
DA:52,34884
DA:53,23256
DA:54,11628
DA:56,11628
DA:57,11628
DA:59,11628
LF:29
LH:29
end_of_record
TN:
SF:/home/runner/work/fakelua/fakelua/src/platform/FlexLexer.h
FNF:0
FNH:0
DA:58,3581
DA:61,3581
DA:99,3571
LF:3
LH:3
end_of_record
TN:
SF:/home/runner/work/fakelua/fakelua/src/state/const_string.cpp
FN:11,23,_ZN7fakelua11ConstString5AllocERKSt17basic_string_viewIcSt11char_traitsIcEE
FN:25,28,_ZN7fakelua11ConstString9GetStringEl
FN:30,32,_ZN7fakelua11ConstString12GetVarStringEl
FN:8,9,_ZN7fakelua11ConstStringC2EPNS_5StateE
FNDA:1026,_ZN7fakelua11ConstString5AllocERKSt17basic_string_viewIcSt11char_traitsIcEE
FNDA:10,_ZN7fakelua11ConstString9GetStringEl
FNDA:344,_ZN7fakelua11ConstString12GetVarStringEl
FNDA:1860,_ZN7fakelua11ConstStringC2EPNS_5StateE
FNF:4
FNH:4
DA:8,1860
DA:9,1860
DA:11,1026
DA:12,1026
DA:13,780
DA:16,246
DA:17,246
DA:18,246
DA:20,246
DA:21,246
DA:22,246
DA:25,10
DA:26,10
DA:27,10
DA:30,344
DA:31,344
LF:16
LH:16
end_of_record
TN:
SF:/home/runner/work/fakelua/fakelua/src/state/const_string.h
FNF:0
FNH:0
DA:11,1854
LF:1
LH:1
end_of_record
TN:
SF:/home/runner/work/fakelua/fakelua/src/state/fakelua.cpp
FN:100,105,_ZN7fakelua5inter18NativeToFakeluaStrEPNS_5StateEPc
FN:107,111,_ZN7fakelua5inter21NativeToFakeluaStringEPNS_5StateERKNSt7__cxx1112basic_stringIcSt11char_traitsIcESaIcEEE
FN:11,13,_ZN7fakelua5inter18NativeToFakeluaNilEPNS_5StateE
FN:113,117,_ZN7fakelua5inter25NativeToFakeluaStringViewEPNS_5StateERKSt17basic_string_viewIcSt11char_traitsIcEE
FN:119,151,_ZN7fakelua5inter7ViToVarEPNS_5StateEPKNS_12VarInterfaceE
FN:15,19,_ZN7fakelua5inter19NativeToFakeluaBoolEPNS_5StateEb
FN:153,155,_ZN7fakelua5inter18NativeToFakeluaObjEPNS_5StateEPKNS_12VarInterfaceE
FN:157,163,_ZN7fakelua5inter19FakeluaToNativeBoolEPNS_5StateENS_4CVarE
FN:165,171,_ZN7fakelua5inter19FakeluaToNativeCharEPNS_5StateENS_4CVarE
FN:173,179,_ZN7fakelua5inter20FakeluaToNativeUcharEPNS_5StateENS_4CVarE
FN:181,187,_ZN7fakelua5inter20FakeluaToNativeShortEPNS_5StateENS_4CVarE
FN:189,195,_ZN7fakelua5inter21FakeluaToNativeUshortEPNS_5StateENS_4CVarE
FN:197,203,_ZN7fakelua5inter18FakeluaToNativeIntEPNS_5StateENS_4CVarE
FN:205,211,_ZN7fakelua5inter19FakeluaToNativeUintEPNS_5StateENS_4CVarE
FN:21,25,_ZN7fakelua5inter19NativeToFakeluaCharEPNS_5StateEc
FN:213,219,_ZN7fakelua5inter19FakeluaToNativeLongEPNS_5StateENS_4CVarE
FN:221,227,_ZN7fakelua5inter20FakeluaToNativeUlongEPNS_5StateENS_4CVarE
FN:229,235,_ZN7fakelua5inter23FakeluaToNativeLonglongEPNS_5StateENS_4CVarE
FN:237,243,_ZN7fakelua5inter24FakeluaToNativeUlonglongEPNS_5StateENS_4CVarE
FN:245,254,_ZN7fakelua5inter20FakeluaToNativeFloatEPNS_5StateENS_4CVarE
FN:256,265,_ZN7fakelua5inter21FakeluaToNativeDoubleEPNS_5StateENS_4CVarE
FN:267,273,_ZN7fakelua5inter21FakeluaToNativeStringB5cxx11EPNS_5StateENS_4CVarE
FN:27,31,_ZN7fakelua5inter20NativeToFakeluaUcharEPNS_5StateEh
FN:275,281,_ZN7fakelua5inter25FakeluaToNativeStringViewEPNS_5StateENS_4CVarE
FN:283,338,_ZN7fakelua5inter7VarToViEPNS_5StateENS_4CVarEPNS_12VarInterfaceE
FN:33,37,_ZN7fakelua5inter20NativeToFakeluaShortEPNS_5StateEs
FN:340,344,_ZN7fakelua5inter18FakeluaToNativeObjEPNS_5StateENS_4CVarE
FN:346,353,_ZN7fakelua5inter11GetFuncAddrEPNS_5StateENS_7JITTypeERKSt17basic_string_viewIcSt11char_traitsIcEERi
FN:355,357,_ZN7fakelua5inter26ThrowInterFakeluaExceptionERKNSt7__cxx1112basic_stringIcSt11char_traitsIcESaIcEEE
FN:359,361,_ZN7fakelua5inter17GetReentrantCountEPNS_5StateE
FN:363,365,_ZN7fakelua5inter17AddReentrantCountEPNS_5StateE
FN:367,369,_ZN7fakelua5inter17SubReentrantCountEPNS_5StateE
FN:371,373,_ZN7fakelua5inter5ResetEPNS_5StateE
FN:377,379,_ZN7fakelua15FakeluaNewStateERKNS_11StateConfigE
FN:381,383,_ZN7fakelua18FakeluaDeleteStateEPNS_5StateE
FN:385,387,_ZN7fakelua11CompileFileEPNS_5StateERKNSt7__cxx1112basic_stringIcSt11char_traitsIcESaIcEEERKNS_13CompileConfigE
FN:389,391,_ZN7fakelua13CompileStringEPNS_5StateERKNSt7__cxx1112basic_stringIcSt11char_traitsIcESaIcEEERKNS_13CompileConfigE
FN:39,43,_ZN7fakelua5inter21NativeToFakeluaUshortEPNS_5StateEt
FN:393,395,_ZN7fakelua20GetLastRecordedCCodeB5cxx11EPNS_5StateE
FN:397,399,_ZN7fakelua22SetVarInterfaceNewFuncEPNS_5StateERKSt8functionIFPNS_12VarInterfaceEvEE
FN:401,403,_ZN7fakelua22GetVarInterfaceNewFuncEPNS_5StateE
FN:405,407,_ZN7fakelua16SetDebugLogLevelEi
FN:45,49,_ZN7fakelua5inter18NativeToFakeluaIntEPNS_5StateEi
FN:51,55,_ZN7fakelua5inter19NativeToFakeluaUintEPNS_5StateEj
FN:57,61,_ZN7fakelua5inter19NativeToFakeluaLongEPNS_5StateEl
FN:63,67,_ZN7fakelua5inter20NativeToFakeluaUlongEPNS_5StateEm
FN:69,73,_ZN7fakelua5inter23NativeToFakeluaLonglongEPNS_5StateEx
FN:75,79,_ZN7fakelua5inter24NativeToFakeluaUlonglongEPNS_5StateEy
FN:81,85,_ZN7fakelua5inter20NativeToFakeluaFloatEPNS_5StateEf
FN:87,91,_ZN7fakelua5inter21NativeToFakeluaDoubleEPNS_5StateEd
FN:93,98,_ZN7fakelua5inter19NativeToFakeluaCstrEPNS_5StateEPKc
FNDA:4,_ZN7fakelua5inter18NativeToFakeluaStrEPNS_5StateEPc
FNDA:84,_ZN7fakelua5inter21NativeToFakeluaStringEPNS_5StateERKNSt7__cxx1112basic_stringIcSt11char_traitsIcESaIcEEE
FNDA:68,_ZN7fakelua5inter18NativeToFakeluaNilEPNS_5StateE
FNDA:4,_ZN7fakelua5inter25NativeToFakeluaStringViewEPNS_5StateERKSt17basic_string_viewIcSt11char_traitsIcEE
FNDA:36,_ZN7fakelua5inter7ViToVarEPNS_5StateEPKNS_12VarInterfaceE
FNDA:280,_ZN7fakelua5inter19NativeToFakeluaBoolEPNS_5StateEb
FNDA:20,_ZN7fakelua5inter18NativeToFakeluaObjEPNS_5StateEPKNS_12VarInterfaceE
FNDA:488,_ZN7fakelua5inter19FakeluaToNativeBoolEPNS_5StateENS_4CVarE
FNDA:8,_ZN7fakelua5inter19FakeluaToNativeCharEPNS_5StateENS_4CVarE
FNDA:8,_ZN7fakelua5inter20FakeluaToNativeUcharEPNS_5StateENS_4CVarE
FNDA:8,_ZN7fakelua5inter20FakeluaToNativeShortEPNS_5StateENS_4CVarE
FNDA:8,_ZN7fakelua5inter21FakeluaToNativeUshortEPNS_5StateENS_4CVarE
FNDA:3180,_ZN7fakelua5inter18FakeluaToNativeIntEPNS_5StateENS_4CVarE
FNDA:8,_ZN7fakelua5inter19FakeluaToNativeUintEPNS_5StateENS_4CVarE
FNDA:4,_ZN7fakelua5inter19NativeToFakeluaCharEPNS_5StateEc
FNDA:8,_ZN7fakelua5inter19FakeluaToNativeLongEPNS_5StateENS_4CVarE
FNDA:8,_ZN7fakelua5inter20FakeluaToNativeUlongEPNS_5StateENS_4CVarE
FNDA:8,_ZN7fakelua5inter23FakeluaToNativeLonglongEPNS_5StateENS_4CVarE
FNDA:8,_ZN7fakelua5inter24FakeluaToNativeUlonglongEPNS_5StateENS_4CVarE
FNDA:60,_ZN7fakelua5inter20FakeluaToNativeFloatEPNS_5StateENS_4CVarE
FNDA:544,_ZN7fakelua5inter21FakeluaToNativeDoubleEPNS_5StateENS_4CVarE
FNDA:248,_ZN7fakelua5inter21FakeluaToNativeStringB5cxx11EPNS_5StateENS_4CVarE
FNDA:4,_ZN7fakelua5inter20NativeToFakeluaUcharEPNS_5StateEh
FNDA:8,_ZN7fakelua5inter25FakeluaToNativeStringViewEPNS_5StateENS_4CVarE
FNDA:976,_ZN7fakelua5inter7VarToViEPNS_5StateENS_4CVarEPNS_12VarInterfaceE
FNDA:4,_ZN7fakelua5inter20NativeToFakeluaShortEPNS_5StateEs
FNDA:104,_ZN7fakelua5inter18FakeluaToNativeObjEPNS_5StateENS_4CVarE
FNDA:4700,_ZN7fakelua5inter11GetFuncAddrEPNS_5StateENS_7JITTypeERKSt17basic_string_viewIcSt11char_traitsIcEERi
FNDA:8,_ZN7fakelua5inter26ThrowInterFakeluaExceptionERKNSt7__cxx1112basic_stringIcSt11char_traitsIcESaIcEEE
FNDA:4692,_ZN7fakelua5inter17GetReentrantCountEPNS_5StateE
FNDA:4692,_ZN7fakelua5inter17AddReentrantCountEPNS_5StateE
FNDA:4692,_ZN7fakelua5inter17SubReentrantCountEPNS_5StateE
FNDA:4692,_ZN7fakelua5inter5ResetEPNS_5StateE
FNDA:1840,_ZN7fakelua15FakeluaNewStateERKNS_11StateConfigE
FNDA:1834,_ZN7fakelua18FakeluaDeleteStateEPNS_5StateE
FNDA:3391,_ZN7fakelua11CompileFileEPNS_5StateERKNSt7__cxx1112basic_stringIcSt11char_traitsIcESaIcEEERKNS_13CompileConfigE
FNDA:32,_ZN7fakelua13CompileStringEPNS_5StateERKNSt7__cxx1112basic_stringIcSt11char_traitsIcESaIcEEERKNS_13CompileConfigE
FNDA:4,_ZN7fakelua5inter21NativeToFakeluaUshortEPNS_5StateEt
FNDA:257,_ZN7fakelua20GetLastRecordedCCodeB5cxx11EPNS_5StateE
FNDA:36,_ZN7fakelua22SetVarInterfaceNewFuncEPNS_5StateERKSt8functionIFPNS_12VarInterfaceEvEE
FNDA:976,_ZN7fakelua22GetVarInterfaceNewFuncEPNS_5StateE
FNDA:224,_ZN7fakelua16SetDebugLogLevelEi
FNDA:5348,_ZN7fakelua5inter18NativeToFakeluaIntEPNS_5StateEi
FNDA:4,_ZN7fakelua5inter19NativeToFakeluaUintEPNS_5StateEj
FNDA:4,_ZN7fakelua5inter19NativeToFakeluaLongEPNS_5StateEl
FNDA:4,_ZN7fakelua5inter20NativeToFakeluaUlongEPNS_5StateEm
FNDA:4,_ZN7fakelua5inter23NativeToFakeluaLonglongEPNS_5StateEx
FNDA:4,_ZN7fakelua5inter24NativeToFakeluaUlonglongEPNS_5StateEy
FNDA:4,_ZN7fakelua5inter20NativeToFakeluaFloatEPNS_5StateEf
FNDA:616,_ZN7fakelua5inter21NativeToFakeluaDoubleEPNS_5StateEd
FNDA:276,_ZN7fakelua5inter19NativeToFakeluaCstrEPNS_5StateEPKc
FNF:51
FNH:51
DA:11,68
DA:12,68
DA:15,280
DA:16,280
DA:17,280
DA:18,280
DA:21,4
DA:22,4
DA:23,4
DA:24,4
DA:27,4
DA:28,4
DA:29,4
DA:30,4
DA:33,4
DA:34,4
DA:35,4
DA:36,4
DA:39,4
DA:40,4
DA:41,4
DA:42,4
DA:45,5348
DA:46,5348
DA:47,5348
DA:48,5348
DA:51,4
DA:52,4
DA:53,4
DA:54,4
DA:57,4
DA:58,4
DA:59,4
DA:60,4
DA:63,4
DA:64,4
DA:65,4
DA:66,4
DA:69,4
DA:70,4
DA:71,4
DA:72,4
DA:75,4
DA:76,4
DA:77,4
DA:78,4
DA:81,4
DA:82,4
DA:83,4
DA:84,4
DA:87,616
DA:88,616
DA:89,616
DA:90,616
DA:93,276
DA:94,276
DA:96,276
DA:97,276
DA:100,4
DA:101,4
DA:103,4
DA:104,4
DA:107,84
DA:108,84
DA:109,84
DA:110,84
DA:113,4
DA:114,4
DA:115,4
DA:116,4
DA:119,36
DA:120,40
DA:121,32
DA:122,32
DA:123,4
DA:124,4
DA:125,4
DA:126,4
DA:127,4
DA:128,4
DA:129,4
DA:130,4
DA:131,4
DA:132,4
DA:133,4
DA:134,4
DA:135,8
DA:136,8
DA:137,8
DA:138,8
DA:139,8
DA:140,16
DA:141,8
DA:142,8
DA:143,8
DA:144,8
DA:147,0
DA:148,0
DA:150,32
DA:153,20
DA:154,20
DA:157,488
DA:158,488
DA:159,488
DA:160,484
DA:162,8
DA:165,8
DA:166,8
DA:167,8
DA:168,4
DA:170,8
DA:173,8
DA:174,8
DA:175,8
DA:176,4
DA:178,8
DA:181,8
DA:182,8
DA:183,8
DA:184,4
DA:186,8
DA:189,8
DA:190,8
DA:191,8
DA:192,4
DA:194,8
DA:197,3180
DA:198,3180
DA:199,3180
DA:200,3176
DA:202,8
DA:205,8
DA:206,8
DA:207,8
DA:208,4
DA:210,8
DA:213,8
DA:214,8
DA:215,8
DA:216,4
DA:218,8
DA:221,8
DA:222,8
DA:223,8
DA:224,4
DA:226,8
DA:229,8
DA:230,8
DA:231,8
DA:232,4
DA:234,8
DA:237,8
DA:238,8
DA:239,8
DA:240,4
DA:242,8
DA:245,60
DA:246,60
DA:247,60
DA:248,36
DA:250,24
DA:251,20
DA:253,8
DA:256,544
DA:257,544
DA:258,544
DA:259,536
DA:261,8
DA:262,4
DA:264,8
DA:267,248
DA:268,248
DA:269,248
DA:270,244
DA:272,8
DA:275,8
DA:276,8
DA:277,8
DA:278,4
DA:280,8
DA:283,976
DA:284,976
DA:285,976
DA:286,976
DA:287,8
DA:288,8
DA:290,8
DA:291,8
DA:293,664
DA:294,664
DA:296,8
DA:297,8
DA:299,12
DA:300,12
DA:301,12
DA:302,164
DA:303,164
DA:304,164
DA:305,112
DA:306,112
DA:307,112
DA:308,112
DA:309,112
DA:310,112
DA:311,112
DA:312,372
DA:313,276
DA:314,276
DA:315,276
DA:316,276
DA:317,276
DA:318,276
DA:319,276
DA:320,276
DA:323,176
DA:324,160
DA:325,160
DA:326,160
DA:327,160
DA:328,160
DA:329,160
DA:330,160
DA:331,160
DA:334,112
DA:335,112
DA:336,112
DA:338,976
DA:340,104
DA:341,104
DA:342,104
DA:343,104
DA:346,4700
DA:347,4700
DA:348,4700
DA:351,4696
DA:352,4696
DA:353,4700
DA:355,8
DA:356,8
DA:359,4692
DA:360,4692
DA:363,4692
DA:364,4692
DA:365,4692
DA:367,4692
DA:368,4692
DA:369,4692
DA:371,4692
DA:372,4692
DA:373,4692
DA:377,1840
DA:378,1840
DA:381,1834
DA:382,1834
DA:383,1834
DA:385,3391
DA:386,3391
DA:387,3041
DA:389,32
DA:390,32
DA:391,32
DA:393,257
DA:394,257
DA:397,36
DA:398,36
DA:399,36
DA:401,976
DA:402,976
DA:405,224
DA:406,224
DA:407,224
LF:271
LH:269
end_of_record
TN:
SF:/home/runner/work/fakelua/fakelua/src/state/heap.cpp
FN:19,55,_ZN7fakelua13HeapAllocator5AllocEm
FN:57,64,_ZN7fakelua13HeapAllocator5ResetEv
FN:66,68,_ZNK7fakelua13HeapAllocator4SizeEv
FN:7,17,_ZN7fakelua13HeapAllocatorD2Ev
FNDA:2808,_ZN7fakelua13HeapAllocator5AllocEm
FNDA:8412,_ZN7fakelua13HeapAllocator5ResetEv
FNDA:8,_ZNK7fakelua13HeapAllocator4SizeEv
FNDA:3716,_ZN7fakelua13HeapAllocatorD2Ev
FNF:4
FNH:4
DA:7,3716
DA:8,3716
DA:9,4342
DA:13,626
DA:16,3716
DA:17,3755
DA:19,2808
DA:20,2808
DA:24,2808
DA:25,8
DA:28,2804
DA:30,2804
DA:31,8
DA:32,8
DA:33,8
DA:36,2804
DA:43,626
DA:45,626
DA:46,0
DA:48,626
DA:51,2804
DA:52,2804
DA:53,2804
DA:54,2804
DA:57,8412
DA:58,8473
DA:59,61
DA:61,8412
DA:62,8412
DA:63,8412
DA:64,8412
DA:66,8
DA:67,8
LF:33
LH:32
end_of_record
TN:
SF:/home/runner/work/fakelua/fakelua/src/state/heap.h
FN:19,24,_ZN7fakelua13HeapAllocator3NewINS_8VarTableEJEEEPT_DpOT0_
FNDA:61,_ZN7fakelua13HeapAllocator3NewINS_8VarTableEJEEEPT_DpOT0_
FNF:1
FNH:1
DA:10,1860
DA:19,61
DA:20,61
DA:21,61
DA:22,61
DA:23,61
DA:47,3714
DA:49,1756
DA:50,1756
DA:53,246
DA:54,246
DA:57,4692
DA:58,4692
LF:13
LH:13
end_of_record
TN:
SF:/home/runner/work/fakelua/fakelua/src/state/state.cpp
FN:7,8,_ZN7fakelua5StateC2ERKNS_11StateConfigE
FNDA:1860,_ZN7fakelua5StateC2ERKNS_11StateConfigE
FNF:1
FNH:1
DA:7,1860
DA:8,1860
LF:2
LH:2
end_of_record
TN:
SF:/home/runner/work/fakelua/fakelua/src/state/state.h
FN:24,24,_ZN7fakelua5StateD2Ev
FN:26,29,_ZN7fakelua5State5ResetEv
FN:65,68,_ZN7fakelua5State22SetVarInterfaceNewFuncERKSt8functionIFPNS_12VarInterfaceEvEE
FNDA:1854,_ZN7fakelua5StateD2Ev
FNDA:4692,_ZN7fakelua5State5ResetEv
FNDA:36,_ZN7fakelua5State22SetVarInterfaceNewFuncERKSt8functionIFPNS_12VarInterfaceEvEE
FNF:3
FNH:3
DA:24,5562
DA:26,4692
DA:27,4692
DA:28,4692
DA:29,4692
DA:31,2824
DA:32,2824
DA:35,3423
DA:36,3680
DA:40,2002
DA:43,1026
DA:44,1026
DA:47,18132
DA:48,18132
DA:51,4692
DA:52,4692
DA:56,4692
DA:57,4692
DA:61,4692
DA:62,4692
DA:65,36
DA:66,36
DA:67,36
DA:68,36
DA:70,976
DA:71,976
LF:26
LH:26
end_of_record
TN:
SF:/home/runner/work/fakelua/fakelua/src/util/debug.cpp
FN:6,8,_ZN7fakelua15DebugAssertFailERKNSt7__cxx1112basic_stringIcSt11char_traitsIcESaIcEEERKSt15source_location
FNDA:12,_ZN7fakelua15DebugAssertFailERKNSt7__cxx1112basic_stringIcSt11char_traitsIcESaIcEEERKSt15source_location
FNF:1
FNH:1
DA:6,12
DA:7,48
LF:2
LH:2
end_of_record
TN:
SF:/home/runner/work/fakelua/fakelua/src/util/debug.h
FNF:0
FNH:0
DA:8,75
LF:1
LH:1
end_of_record
TN:
SF:/home/runner/work/fakelua/fakelua/src/util/exception.cpp
FN:23,27,_ZN7fakelua21ThrowFakeluaExceptionERKNSt7__cxx1112basic_stringIcSt11char_traitsIcESaIcEEE
FN:6,21,_ZN7fakelua17StacktraceCurrentB5cxx11Ev
FNDA:650,_ZN7fakelua21ThrowFakeluaExceptionERKNSt7__cxx1112basic_stringIcSt11char_traitsIcESaIcEEE
FNDA:650,_ZN7fakelua17StacktraceCurrentB5cxx11Ev
FNF:2
FNH:2
DA:6,650
DA:7,650
DA:9,650
DA:10,650
DA:11,650
DA:12,650
DA:13,650
DA:14,13235
DA:15,12585
DA:16,12585
DA:18,650
DA:20,650
DA:21,0
DA:23,650
DA:24,650
DA:25,1300
DA:26,1300
DA:27,650
LF:18
LH:17
end_of_record
TN:
SF:/home/runner/work/fakelua/fakelua/src/util/exception.h
FNF:0
FNH:0
DA:7,650
LF:1
LH:1
end_of_record
TN:
SF:/home/runner/work/fakelua/fakelua/src/util/file_util.cpp
FN:5,24,_ZN7fakelua19GenerateTmpFilenameERKNSt7__cxx1112basic_stringIcSt11char_traitsIcESaIcEEES7_
FNDA:7246,_ZN7fakelua19GenerateTmpFilenameERKNSt7__cxx1112basic_stringIcSt11char_traitsIcESaIcEEES7_
FNF:1
FNH:1
DA:5,7246
DA:6,7246
DA:7,7246
DA:8,7246
DA:9,7246
DA:10,7246
DA:11,5
DA:13,7246
DA:15,7255
DA:16,7246
DA:19,7246
DA:20,7246
DA:21,14492
DA:22,7246
DA:23,7246
DA:24,7246
LF:16
LH:16
end_of_record
TN:
SF:/home/runner/work/fakelua/fakelua/src/util/logging.cpp
FN:11,13,_ZN7fakelua13CheckLogLevelERKNS_8LogLevelE
FN:15,41,_ZN7fakelua3LogERKNS_8LogLevelERKSt17basic_string_viewIcSt11char_traitsIcEERKSt15source_location
FN:7,9,_ZN7fakelua11SetLogLevelERKNS_8LogLevelE
FNDA:342786,_ZN7fakelua13CheckLogLevelERKNS_8LogLevelE
FNDA:19581,_ZN7fakelua3LogERKNS_8LogLevelERKSt17basic_string_viewIcSt11char_traitsIcEERKSt15source_location
FNDA:229,_ZN7fakelua11SetLogLevelERKNS_8LogLevelE
FNF:3
FNH:3
DA:7,229
DA:8,229
DA:9,229
DA:11,342786
DA:12,342786
DA:15,19581
DA:17,19581
DA:18,19581
DA:19,19581
DA:23,19581
DA:25,19581
DA:30,19581
DA:32,19581
DA:33,78324
DA:34,39107
DA:35,19581
DA:36,19581
DA:37,55
DA:39,19581
DA:41,19581
LF:20
LH:20
end_of_record
TN:
SF:/home/runner/work/fakelua/fakelua/src/util/os.cpp
FN:5,18,_ZN7fakelua4ExecB5cxx11EPKc
FNDA:4,_ZN7fakelua4ExecB5cxx11EPKc
FNF:1
FNH:1
DA:5,4
DA:6,4
DA:8,4
DA:9,0
DA:12,4
DA:13,4
DA:14,12
DA:15,12
DA:17,4
DA:18,4
LF:10
LH:9
end_of_record
TN:
SF:/home/runner/work/fakelua/fakelua/src/util/string_util.cpp
FN:102,154,_ZN7fakelua9ToIntegerERKSt17basic_string_viewIcSt11char_traitsIcEE
FN:156,225,_ZN7fakelua7ToFloatERKSt17basic_string_viewIcSt11char_traitsIcEE
FN:19,100,_ZN7fakelua18ReplaceEscapeCharsERKNSt7__cxx1112basic_stringIcSt11char_traitsIcESaIcEEE
FNDA:7332,_ZN7fakelua9ToIntegerERKSt17basic_string_viewIcSt11char_traitsIcEE
FNDA:497,_ZN7fakelua7ToFloatERKSt17basic_string_viewIcSt11char_traitsIcEE
FNDA:501,_ZN7fakelua18ReplaceEscapeCharsERKNSt7__cxx1112basic_stringIcSt11char_traitsIcESaIcEEE
FNF:3
FNH:3
DA:19,501
DA:20,501
DA:21,501
DA:22,1817
DA:23,124
DA:24,124
DA:27,124
DA:28,6
DA:29,6
DA:30,6
DA:31,6
DA:32,6
DA:33,6
DA:34,6
DA:35,6
DA:36,3
DA:37,3
DA:38,3
DA:39,3
DA:40,6
DA:41,6
DA:42,6
DA:43,6
DA:44,6
DA:45,6
DA:46,6
DA:47,6
DA:48,6
DA:49,6
DA:50,6
DA:51,6
DA:52,6
DA:53,6
DA:54,6
DA:55,6
DA:56,6
DA:57,6
DA:58,6
DA:59,6
DA:60,12
DA:61,12
DA:62,12
DA:63,12
DA:64,12
DA:65,12
DA:66,12
DA:67,12
DA:68,36
DA:70,36
DA:71,138
DA:72,102
DA:75,19
DA:76,19
DA:77,4
DA:81,59
DA:82,51
DA:85,42
DA:86,42
DA:88,17
DA:89,10
DA:91,2329
DA:95,1693
DA:96,1693
DA:99,497
DA:100,4
DA:102,7332
DA:103,7332
DA:105,7332
DA:106,7332
DA:107,7332
DA:108,7332
DA:109,775
DA:110,6
DA:111,6
DA:112,3
DA:113,3
DA:115,769
DA:116,118
DA:117,21
DA:118,21
DA:119,97
DA:120,18
DA:121,18
DA:122,18
DA:129,7332
DA:130,7332
DA:131,7332
DA:133,7332
DA:136,18
DA:137,18
DA:138,6
DA:139,15
DA:140,6
DA:143,12
DA:145,7314
DA:146,7314
DA:147,4
DA:148,7312
DA:149,16
DA:153,7320
DA:154,7320
DA:156,497
DA:157,497
DA:160,497
DA:161,497
DA:162,497
DA:164,497
DA:165,492
DA:168,453
DA:171,435
DA:180,497
DA:181,497
DA:183,497
DA:185,102
DA:186,78
DA:187,21
DA:189,78
DA:192,57
DA:193,57
DA:194,57
DA:195,57
DA:196,6
DA:198,57
DA:201,21
DA:202,21
DA:203,21
DA:204,21
DA:205,6
DA:207,21
DA:209,419
DA:210,419
DA:211,419
DA:212,4
DA:214,419
DA:216,489
DA:217,2
DA:220,487
DA:221,6
DA:224,487
LF:139
LH:139
end_of_record
TN:
SF:/home/runner/work/fakelua/fakelua/src/util/string_util.h
FN:25,31,_ZN7fakelua10JoinStringERKSt6vectorINSt7__cxx1112basic_stringIcSt11char_traitsIcESaIcEEESaIS6_EERKS6_
FN:30,30,_ZZN7fakelua10JoinStringERKSt6vectorINSt7__cxx1112basic_stringIcSt11char_traitsIcESaIcEEESaIS6_EERKS6_ENKUlS6_SC_E_clES6_SC_
FNDA:12,_ZN7fakelua10JoinStringERKSt6vectorINSt7__cxx1112basic_stringIcSt11char_traitsIcESaIcEEESaIS6_EERKS6_
FNDA:9,_ZZN7fakelua10JoinStringERKSt6vectorINSt7__cxx1112basic_stringIcSt11char_traitsIcESaIcEEESaIS6_EERKS6_ENKUlS6_SC_E_clES6_SC_
FNF:2
FNH:2
DA:13,48
DA:14,48
DA:17,27868
DA:18,27868
DA:25,12
DA:26,12
DA:27,3
DA:29,9
DA:30,45
LF:9
LH:9
end_of_record
TN:
SF:/home/runner/work/fakelua/fakelua/src/var/var.cpp
FN:126,162,_ZNK7fakelua3Var5EqualERKS0_
FN:14,37,_ZNK7fakelua3Var25TryConvertNumberToIntegerERl
FN:164,166,_ZNK7fakelua3Var12IsCalculableEv
FN:168,170,_ZNK7fakelua3Var19IsCalculableIntegerEv
FN:172,174,_ZNK7fakelua3Var16GetCalculableIntEv
FN:176,182,_ZNK7fakelua3Var19GetCalculableNumberEv
FN:184,194,_ZNK7fakelua3Var4PlusERKS0_RS0_
FN:196,206,_ZNK7fakelua3Var5MinusERKS0_RS0_
FN:208,218,_ZNK7fakelua3Var4StarERKS0_RS0_
FN:220,226,_ZNK7fakelua3Var5SlashERKS0_RS0_
FN:228,255,_ZNK7fakelua3Var11DoubleSlashERKS0_RS0_
FN:257,263,_ZNK7fakelua3Var3PowERKS0_RS0_
FN:265,295,_ZNK7fakelua3Var3ModERKS0_RS0_
FN:297,305,_ZNK7fakelua3Var6BitandERKS0_RS0_
FN:307,315,_ZNK7fakelua3Var3XorERKS0_RS0_
FN:317,325,_ZNK7fakelua3Var5BitorERKS0_RS0_
FN:327,345,_ZNK7fakelua3Var10RightShiftERKS0_RS0_
FN:347,365,_ZNK7fakelua3Var9LeftShiftERKS0_RS0_
FN:367,369,_ZNK7fakelua3Var6ConcatEPNS_5StateERKS0_RS0_
FN:371,382,_ZNK7fakelua3Var4LessERKS0_RS0_
FN:384,395,_ZNK7fakelua3Var9LessEqualERKS0_RS0_
FN:39,46,_ZNK7fakelua3Var9GetStringEv
FN:397,408,_ZNK7fakelua3Var4MoreERKS0_RS0_
FN:410,421,_ZNK7fakelua3Var9MoreEqualERKS0_RS0_
FN:423,425,_ZNK7fakelua3Var5EqualERKS0_RS0_
FN:427,429,_ZNK7fakelua3Var8NotEqualERKS0_RS0_
FN:431,440,_ZNK7fakelua3Var8TestTrueEv
FN:442,455,_ZNK7fakelua3Var9UnopMinusERS0_
FN:457,459,_ZNK7fakelua3Var7UnopNotERS0_
FN:461,473,_ZNK7fakelua3Var14UnopNumberSignERS0_
FN:475,482,_ZNK7fakelua3Var10UnopBitnotERS0_
FN:48,51,_ZN7fakelua3Var13SetTempStringEPNS_5StateERKSt17basic_string_viewIcSt11char_traitsIcEE
FN:484,490,_ZNK7fakelua3Var8TableSetEPNS_5StateERKS0_S4_b
FN:492,498,_ZNK7fakelua3Var8TableGetERKS0_
FN:500,506,_ZNK7fakelua3Var9TableSizeEv
FN:53,56,_ZN7fakelua3Var14SetConstStringEPNS_5StateERKSt17basic_string_viewIcSt11char_traitsIcEE
FN:58,61,_ZN7fakelua3Var8SetTableEPNS_5StateE
FN:63,92,_ZNK7fakelua3Var8ToStringB5cxx11Ebb
FN:94,124,_ZNK7fakelua3Var4HashEv
FNDA:19377,_ZNK7fakelua3Var5EqualERKS0_
FNDA:190,_ZNK7fakelua3Var25TryConvertNumberToIntegerERl
FNDA:425,_ZNK7fakelua3Var12IsCalculableEv
FNDA:275,_ZNK7fakelua3Var19IsCalculableIntegerEv
FNDA:205,_ZNK7fakelua3Var16GetCalculableIntEv
FNDA:205,_ZNK7fakelua3Var19GetCalculableNumberEv
FNDA:20,_ZNK7fakelua3Var4PlusERKS0_RS0_
FNDA:15,_ZNK7fakelua3Var5MinusERKS0_RS0_
FNDA:20,_ZNK7fakelua3Var4StarERKS0_RS0_
FNDA:15,_ZNK7fakelua3Var5SlashERKS0_RS0_
FNDA:45,_ZNK7fakelua3Var11DoubleSlashERKS0_RS0_
FNDA:10,_ZNK7fakelua3Var3PowERKS0_RS0_
FNDA:40,_ZNK7fakelua3Var3ModERKS0_RS0_
FNDA:20,_ZNK7fakelua3Var6BitandERKS0_RS0_
FNDA:10,_ZNK7fakelua3Var3XorERKS0_RS0_
FNDA:10,_ZNK7fakelua3Var5BitorERKS0_RS0_
FNDA:30,_ZNK7fakelua3Var10RightShiftERKS0_RS0_
FNDA:30,_ZNK7fakelua3Var9LeftShiftERKS0_RS0_
FNDA:5,_ZNK7fakelua3Var6ConcatEPNS_5StateERKS0_RS0_
FNDA:15,_ZNK7fakelua3Var4LessERKS0_RS0_
FNDA:15,_ZNK7fakelua3Var9LessEqualERKS0_RS0_
FNDA:596,_ZNK7fakelua3Var9GetStringEv
FNDA:15,_ZNK7fakelua3Var4MoreERKS0_RS0_
FNDA:15,_ZNK7fakelua3Var9MoreEqualERKS0_RS0_
FNDA:10,_ZNK7fakelua3Var5EqualERKS0_RS0_
FNDA:5,_ZNK7fakelua3Var8NotEqualERKS0_RS0_
FNDA:30,_ZNK7fakelua3Var8TestTrueEv
FNDA:15,_ZNK7fakelua3Var9UnopMinusERS0_
FNDA:10,_ZNK7fakelua3Var7UnopNotERS0_
FNDA:18,_ZNK7fakelua3Var14UnopNumberSignERS0_
FNDA:20,_ZNK7fakelua3Var10UnopBitnotERS0_
FNDA:565,_ZN7fakelua3Var13SetTempStringEPNS_5StateERKSt17basic_string_viewIcSt11char_traitsIcEE
FNDA:32,_ZNK7fakelua3Var8TableSetEPNS_5StateERKS0_S4_b
FNDA:10,_ZNK7fakelua3Var8TableGetERKS0_
FNDA:15,_ZNK7fakelua3Var9TableSizeEv
FNDA:47,_ZN7fakelua3Var14SetConstStringEPNS_5StateERKSt17basic_string_viewIcSt11char_traitsIcEE
FNDA:61,_ZN7fakelua3Var8SetTableEPNS_5StateE
FNDA:265,_ZNK7fakelua3Var8ToStringB5cxx11Ebb
FNDA:32435,_ZNK7fakelua3Var4HashEv
FNF:39
FNH:39
DA:14,190
DA:15,190
DA:16,140
DA:17,140
DA:19,50
DA:23,50
DA:24,50
DA:27,50
DA:28,50
DA:31,10
DA:35,10
DA:36,10
DA:39,596
DA:40,596
DA:41,596
DA:42,255
DA:44,341
DA:48,565
DA:49,565
DA:50,565
DA:51,565
DA:53,47
DA:54,47
DA:55,47
DA:56,47
DA:58,61
DA:59,61
DA:60,61
DA:61,61
DA:63,265
DA:64,265
DA:65,265
DA:66,265
DA:67,20
DA:68,20
DA:70,25
DA:71,25
DA:73,95
DA:74,95
DA:75,95
DA:76,55
DA:77,55
DA:78,55
DA:80,55
DA:81,55
DA:82,55
DA:83,10
DA:84,10
DA:85,10
DA:86,5
DA:87,5
DA:88,5
DA:91,265
DA:92,0
DA:94,32435
DA:95,32435
DA:99,20
DA:100,20
DA:102,32237
DA:103,32237
DA:105,51
DA:106,51
DA:110,51
DA:111,51
DA:113,92
DA:114,92
DA:115,134
DA:117,25
DA:118,25
DA:126,19377
DA:127,19377
DA:128,60
DA:129,20
DA:131,50
DA:132,10
DA:135,45
DA:136,20
DA:138,25
DA:139,20
DA:144,19317
DA:147,10
DA:148,10
DA:149,19159
DA:150,19159
DA:151,53
DA:152,53
DA:153,45
DA:154,90
DA:155,10
DA:156,10
DA:157,20
DA:158,20
DA:164,425
DA:165,425
DA:168,275
DA:169,275
DA:172,205
DA:173,205
DA:176,205
DA:177,205
DA:178,55
DA:180,150
DA:184,20
DA:185,20
DA:186,15
DA:187,10
DA:189,15
DA:190,5
DA:192,10
DA:194,15
DA:196,15
DA:197,15
DA:198,15
DA:199,10
DA:201,10
DA:202,5
DA:204,5
DA:206,10
DA:208,20
DA:209,20
DA:210,15
DA:211,10
DA:213,15
DA:214,5
DA:216,10
DA:218,15
DA:220,15
DA:221,15
DA:222,15
DA:223,10
DA:225,10
DA:226,10
DA:228,45
DA:229,45
DA:230,15
DA:231,10
DA:233,40
DA:234,25
DA:235,5
DA:239,20
DA:240,20
DA:246,20
DA:248,20
DA:249,10
DA:251,20
DA:253,15
DA:255,35
DA:257,10
DA:258,10
DA:259,15
DA:260,10
DA:262,5
DA:263,5
DA:265,40
DA:266,40
DA:267,15
DA:268,10
DA:270,35
DA:271,25
DA:272,5
DA:276,20
DA:277,20
DA:283,20
DA:285,20
DA:286,10
DA:288,20
DA:291,10
DA:292,10
DA:293,10
DA:295,30
DA:297,20
DA:298,20
DA:299,20
DA:300,20
DA:301,30
DA:302,20
DA:304,10
DA:305,10
DA:307,10
DA:308,10
DA:309,10
DA:310,10
DA:311,15
DA:312,10
DA:314,5
DA:315,5
DA:317,10
DA:318,10
DA:319,10
DA:320,10
DA:321,15
DA:322,10
DA:324,5
DA:325,5
DA:327,30
DA:328,30
DA:329,30
DA:330,30
DA:331,15
DA:332,10
DA:334,25
DA:336,25
DA:337,15
DA:338,15
DA:340,10
DA:341,5
DA:343,5
DA:347,30
DA:348,30
DA:349,30
DA:350,30
DA:351,15
DA:352,10
DA:354,25
DA:356,25
DA:357,15
DA:358,15
DA:360,10
DA:361,5
DA:363,5
DA:367,5
DA:368,10
DA:369,5
DA:371,15
DA:372,15
DA:373,15
DA:374,10
DA:377,10
DA:378,5
DA:380,5
DA:382,10
DA:384,15
DA:385,15
DA:386,15
DA:387,10
DA:390,10
DA:391,5
DA:393,5
DA:395,10
DA:397,15
DA:398,15
DA:399,15
DA:400,10
DA:403,10
DA:404,5
DA:406,5
DA:408,10
DA:410,15
DA:411,15
DA:412,15
DA:413,10
DA:416,10
DA:417,5
DA:419,5
DA:421,10
DA:423,10
DA:424,10
DA:425,10
DA:427,5
DA:428,5
DA:429,5
DA:431,30
DA:432,30
DA:435,15
DA:436,15
DA:437,5
DA:438,5
DA:442,15
DA:443,15
DA:444,15
DA:446,10
DA:451,5
DA:453,5
DA:455,10
DA:457,10
DA:458,10
DA:459,10
DA:461,18
DA:462,18
DA:463,15
DA:466,13
DA:467,5
DA:468,8
DA:469,3
DA:471,5
DA:473,13
DA:475,20
DA:476,20
DA:477,20
DA:478,30
DA:481,10
DA:482,10
DA:484,32
DA:485,32
DA:486,15
DA:489,27
DA:490,27
DA:492,10
DA:493,10
DA:494,15
DA:497,5
DA:500,15
DA:501,15
DA:502,15
DA:505,10
LF:305
LH:304
end_of_record
TN:
SF:/home/runner/work/fakelua/fakelua/src/var/var.h
FN:45,48,_ZNK7fakelua3Var7GetBoolEv
FN:51,54,_ZNK7fakelua3Var6GetIntEv
FN:57,60,_ZNK7fakelua3Var8GetFloatEv
FN:66,69,_ZNK7fakelua3Var8GetTableEv
FNDA:574,_ZNK7fakelua3Var7GetBoolEv
FNDA:11248,_ZNK7fakelua3Var6GetIntEv
FNDA:734,_ZNK7fakelua3Var8GetFloatEv
FNDA:165,_ZNK7fakelua3Var8GetTableEv
FNF:4
FNH:4
DA:17,74
DA:20,21
DA:21,24
DA:25,19439
DA:26,19500
DA:30,102
DA:31,111
DA:35,27
DA:36,27
DA:40,201621
DA:41,201346
DA:45,574
DA:46,574
DA:47,574
DA:51,11248
DA:52,11248
DA:53,11248
DA:57,734
DA:58,734
DA:59,734
DA:66,165
DA:67,165
DA:68,165
DA:73,45626
DA:74,41596
DA:75,4034
DA:78,382
DA:79,382
DA:80,102
DA:81,44
DA:84,19706
DA:85,25094
DA:86,19582
DA:87,97
DA:90,215
DA:91,835
DA:92,160
DA:93,59
LF:38
LH:38
end_of_record
TN:
SF:/home/runner/work/fakelua/fakelua/src/var/var_string.cpp
FN:6,10,_ZN7fakelua9VarString9AllocTempEPNS_5StateERKSt17basic_string_viewIcSt11char_traitsIcEE
FNDA:565,_ZN7fakelua9VarString9AllocTempEPNS_5StateERKSt17basic_string_viewIcSt11char_traitsIcEE
FNF:1
FNH:1
DA:6,565
DA:7,565
DA:8,565
DA:9,565
LF:4
LH:4
end_of_record
TN:
SF:/home/runner/work/fakelua/fakelua/src/var/var_string.h
FN:13,18,_ZN7fakelua9VarStringC2ERKSt17basic_string_viewIcSt11char_traitsIcEE
FNDA:811,_ZN7fakelua9VarStringC2ERKSt17basic_string_viewIcSt11char_traitsIcEE
FNF:1
FNH:1
DA:13,811
DA:14,811
DA:15,811
DA:16,811
DA:17,811
DA:18,811
DA:21,840
DA:22,815
DA:25,8
DA:26,8
DA:29,92
DA:30,92
DA:31,42
DA:32,42
DA:33,224
DA:34,182
DA:36,42
DA:38,92
LF:18
LH:18
end_of_record
TN:
SF:/home/runner/work/fakelua/fakelua/src/var/var_table.cpp
FN:13,34,_ZNK7fakelua8VarTable17NormalizeTableKeyERKNS_3VarE
FN:284,335,_ZN7fakelua8VarTable9InsertRawERKNS_3VarES3_j
FN:337,441,_ZN7fakelua8VarTable6RehashEPNS_5StateE
FN:36,96,_ZNK7fakelua8VarTable3GetERKNS_3VarE
FN:98,282,_ZN7fakelua8VarTable3SetEPNS_5StateERKNS_3VarES5_b
FNDA:32405,_ZNK7fakelua8VarTable17NormalizeTableKeyERKNS_3VarE
FNDA:28410,_ZN7fakelua8VarTable9InsertRawERKNS_3VarES3_j
FNDA:328,_ZN7fakelua8VarTable6RehashEPNS_5StateE
FNDA:12147,_ZNK7fakelua8VarTable3GetERKNS_3VarE
FNDA:20268,_ZN7fakelua8VarTable3SetEPNS_5StateERKNS_3VarES5_b
FNF:5
FNH:5
DA:13,32405
DA:14,32405
DA:15,32334
DA:18,71
DA:19,71
DA:20,20
DA:22,51
DA:23,51
DA:24,20
DA:26,31
DA:28,6
DA:31,25
DA:32,25
DA:33,25
DA:36,12147
DA:37,12147
DA:38,5
DA:40,12142
DA:42,12142
DA:43,5
DA:46,12137
DA:48,12137
DA:50,208
DA:51,53
DA:53,155
DA:54,35
DA:56,120
DA:57,25
DA:59,95
DA:60,15
DA:62,80
DA:63,15
DA:65,65
DA:66,15
DA:68,50
DA:69,10
DA:71,40
DA:72,10
DA:74,30
DA:76,11929
DA:77,11929
DA:78,11929
DA:80,11929
DA:81,10
DA:84,11925
DA:85,11922
DA:86,11909
DA:88,13
DA:89,13
DA:92,3
DA:95,10
DA:98,20268
DA:99,20268
DA:100,10
DA:102,20263
DA:103,20263
DA:105,20263
DA:106,4200
DA:107,5612
DA:110,4195
DA:112,135
DA:113,25
DA:114,15
DA:116,25
DA:117,25
DA:119,110
DA:120,15
DA:121,5
DA:123,15
DA:124,15
DA:126,95
DA:127,25
DA:128,5
DA:130,25
DA:131,25
DA:133,70
DA:134,15
DA:135,5
DA:137,15
DA:138,15
DA:140,55
DA:141,15
DA:142,5
DA:144,15
DA:145,15
DA:147,40
DA:148,15
DA:149,5
DA:151,15
DA:152,15
DA:154,25
DA:155,15
DA:156,5
DA:158,15
DA:159,15
DA:161,10
DA:162,10
DA:163,10
DA:166,4060
DA:167,4060
DA:168,4060
DA:170,4060
DA:174,4055
DA:175,4035
DA:176,5
DA:177,5
DA:180,5
DA:181,5
DA:182,5
DA:183,5
DA:185,5
DA:187,5
DA:188,5
DA:189,5
DA:190,5
DA:193,4030
DA:194,4030
DA:195,4030
DA:196,4030
DA:198,4030
DA:199,4030
DA:201,4035
DA:202,4035
DA:205,20
DA:206,20
DA:207,35
DA:208,25
DA:209,25
DA:211,10
DA:212,10
DA:213,10
DA:214,10
DA:216,10
DA:218,10
DA:219,10
DA:220,10
DA:221,10
DA:222,10
DA:224,15
DA:225,15
DA:228,10
DA:231,16063
DA:233,1515
DA:234,25
DA:235,25
DA:237,1490
DA:238,10
DA:239,10
DA:241,1480
DA:242,5
DA:243,5
DA:245,1475
DA:246,5
DA:247,5
DA:249,1470
DA:250,5
DA:251,5
DA:253,1465
DA:254,5
DA:255,5
DA:257,1460
DA:258,5
DA:259,5
DA:261,1455
DA:262,5
DA:263,5
DA:266,1450
DA:267,1347
DA:268,1347
DA:269,1347
DA:270,1347
DA:271,1347
DA:273,103
DA:276,14651
DA:277,225
DA:280,14651
DA:281,14651
DA:284,28410
DA:285,28410
DA:286,28410
DA:287,28410
DA:288,28410
DA:290,28410
DA:291,25357
DA:292,25357
DA:293,25357
DA:294,25357
DA:296,25357
DA:297,25357
DA:299,25357
DA:300,25357
DA:304,3593
DA:305,3593
DA:306,3593
DA:307,2850
DA:308,2850
DA:310,743
DA:316,203
DA:320,203
DA:321,203
DA:322,203
DA:324,203
DA:325,203
DA:326,203
DA:327,203
DA:328,203
DA:330,203
DA:331,203
DA:333,203
DA:334,203
DA:337,328
DA:338,328
DA:339,328
DA:340,328
DA:342,328
DA:343,328
DA:344,10
DA:347,328
DA:348,328
DA:349,328
DA:351,328
DA:352,328
DA:353,328
DA:355,328
DA:356,328
DA:358,41920
DA:359,41592
DA:360,41592
DA:361,41592
DA:364,328
DA:365,328
DA:366,328
DA:367,328
DA:368,328
DA:370,328
DA:371,328
DA:372,328
DA:373,328
DA:374,328
DA:375,13864
DA:376,13536
DA:378,328
DA:379,328
DA:381,0
DA:384,328
DA:385,328
DA:387,103
DA:390,103
DA:393,103
DA:396,103
DA:399,103
DA:402,103
DA:405,103
DA:408,103
DA:412,13265
DA:414,26200
DA:415,13160
DA:416,13160
DA:417,12935
DA:422,13160
DA:424,13040
DA:430,328
DA:433,0
DA:434,0
DA:435,0
DA:436,0
DA:437,0
DA:438,0
DA:440,0
DA:441,328
LF:270
LH:262
end_of_record
TN:
SF:/home/runner/work/fakelua/fakelua/src/var/var_table.h
FNF:0
FNH:0
DA:14,61
DA:45,265
DA:46,265
DA:50,112
DA:51,112
DA:55,112
DA:56,112
DA:60,112
DA:61,112
LF:9
LH:9
end_of_record
TN:
SF:/home/runner/work/fakelua/fakelua/src/var/var_type.h
FN:21,40,_ZN7fakelua15VarTypeToStringB5cxx11ENS_7VarTypeE
FNDA:268,_ZN7fakelua15VarTypeToStringB5cxx11ENS_7VarTypeE
FNF:1
FNH:1
DA:21,289
DA:22,268
DA:23,18
DA:24,18
DA:25,23
DA:26,23
DA:27,105
DA:28,105
DA:29,43
DA:30,43
DA:31,91
DA:32,91
DA:33,3
DA:34,3
DA:35,3
DA:36,3
DA:37,3
DA:38,3
LF:18
LH:18
end_of_record
TN:
SF:/home/runner/work/fakelua/fakelua/test/main.cpp
FN:5,8,main
FNDA:14,main
FNF:1
FNH:1
DA:5,14
DA:6,14
DA:7,14
LF:3
LH:3
end_of_record
TN:
SF:/home/runner/work/fakelua/fakelua/test/test_algo.cpp
FN:107,135,_ZN13algo_gcd_Test8TestBodyEv
FN:107,135,_ZN13algo_gcd_TestD0Ev
FN:107,135,_ZN13algo_gcd_TestD2Ev
FN:108,125,_ZZN13algo_gcd_Test8TestBodyEvENKUlPN7fakelua5StateENS0_7JITTypeEbE_clES2_S3_b
FN:127,134,_ZZN13algo_gcd_Test8TestBodyEvENKUlP9lua_StateE_clES1_
FN:139,139,_ZN15algo_sieve_Test8TestBodyEv
FN:139,139,_ZN15algo_sieve_TestD0Ev
FN:139,139,_ZN15algo_sieve_TestD2Ev
FN:140,156,_ZZN15algo_sieve_Test8TestBodyEvENKUlPN7fakelua5StateENS0_7JITTypeEbE_clES2_S3_b
FN:15,23,_ZL13AlgoRunHelperRKSt8functionIFvPN7fakelua5StateENS0_7JITTypeEbEE
FN:158,165,_ZZN15algo_sieve_Test8TestBodyEvENKUlP9lua_StateE_clES1_
FN:170,194,_ZN23algo_binary_search_Test8TestBodyEv
FN:170,194,_ZN23algo_binary_search_TestD0Ev
FN:170,194,_ZN23algo_binary_search_TestD2Ev
FN:171,185,_ZZN23algo_binary_search_Test8TestBodyEvENKUlPN7fakelua5StateENS0_7JITTypeEbE_clES2_S3_b
FN:187,193,_ZZN23algo_binary_search_Test8TestBodyEvENKUlP9lua_StateE_clES1_
FN:199,199,_ZN18algo_fast_pow_Test8TestBodyEv
FN:199,199,_ZN18algo_fast_pow_TestD0Ev
FN:199,199,_ZN18algo_fast_pow_TestD2Ev
FN:200,223,_ZZN18algo_fast_pow_Test8TestBodyEvENKUlPN7fakelua5StateENS0_7JITTypeEbE_clES2_S3_b
FN:225,235,_ZZN18algo_fast_pow_Test8TestBodyEvENKUlP9lua_StateE_clES1_
FN:241,267,_ZN24algo_insertion_sort_Test8TestBodyEv
FN:241,267,_ZN24algo_insertion_sort_TestD0Ev
FN:241,267,_ZN24algo_insertion_sort_TestD2Ev
FN:242,258,_ZZN24algo_insertion_sort_Test8TestBodyEvENKUlPN7fakelua5StateENS0_7JITTypeEbE_clES2_S3_b
FN:260,266,_ZZN24algo_insertion_sort_Test8TestBodyEvENKUlP9lua_StateE_clES1_
FN:271,292,_ZN16algo_matrix_Test8TestBodyEv
FN:271,292,_ZN16algo_matrix_TestD0Ev
FN:271,292,_ZN16algo_matrix_TestD2Ev
FN:272,284,_ZZN16algo_matrix_Test8TestBodyEvENKUlPN7fakelua5StateENS0_7JITTypeEbE_clES2_S3_b
FN:286,291,_ZZN16algo_matrix_Test8TestBodyEvENKUlP9lua_StateE_clES1_
FN:32,49,_Z7LuaCallIdJEET_P9lua_StatePKcDpT0_
FN:32,49,_Z7LuaCallIiJEET_P9lua_StatePKcDpT0_
FN:32,49,_Z7LuaCallIiJiEET_P9lua_StatePKcDpT0_
FN:32,49,_Z7LuaCallIiJiiEET_P9lua_StatePKcDpT0_
FN:32,49,_Z7LuaCallIiJiiiEET_P9lua_StatePKcDpT0_
FN:53,66,_ZL16LuaAlgoRunHelperRKNSt7__cxx1112basic_stringIcSt11char_traitsIcESaIcEEERKSt8functionIFvP9lua_StateEE
FN:68,68,_ZN19algo_fibonacci_Test8TestBodyEv
FN:68,68,_ZN19algo_fibonacci_TestD0Ev
FN:68,68,_ZN19algo_fibonacci_TestD2Ev
FN:69,74,_ZZN19algo_fibonacci_Test8TestBodyEvENKUlPN7fakelua5StateENS0_7JITTypeEbE_clES2_S3_b
FN:76,78,_ZZN19algo_fibonacci_Test8TestBodyEvENKUlP9lua_StateE_clES1_
FN:83,83,_ZN21algo_bubble_sort_Test8TestBodyEv
FN:83,83,_ZN21algo_bubble_sort_TestD0Ev
FN:83,83,_ZN21algo_bubble_sort_TestD2Ev
FN:84,95,_ZZN21algo_bubble_sort_Test8TestBodyEvENKUlPN7fakelua5StateENS0_7JITTypeEbE_clES2_S3_b
FN:97,102,_ZZN21algo_bubble_sort_Test8TestBodyEvENKUlP9lua_StateE_clES1_
FNDA:4,_ZN13algo_gcd_Test8TestBodyEv
FNDA:4,_ZN13algo_gcd_TestD0Ev
FNDA:0,_ZN13algo_gcd_TestD2Ev
FNDA:16,_ZZN13algo_gcd_Test8TestBodyEvENKUlPN7fakelua5StateENS0_7JITTypeEbE_clES2_S3_b
FNDA:4,_ZZN13algo_gcd_Test8TestBodyEvENKUlP9lua_StateE_clES1_
FNDA:4,_ZN15algo_sieve_Test8TestBodyEv
FNDA:4,_ZN15algo_sieve_TestD0Ev
FNDA:0,_ZN15algo_sieve_TestD2Ev
FNDA:16,_ZZN15algo_sieve_Test8TestBodyEvENKUlPN7fakelua5StateENS0_7JITTypeEbE_clES2_S3_b
FNDA:32,_ZL13AlgoRunHelperRKSt8functionIFvPN7fakelua5StateENS0_7JITTypeEbEE
FNDA:4,_ZZN15algo_sieve_Test8TestBodyEvENKUlP9lua_StateE_clES1_
FNDA:4,_ZN23algo_binary_search_Test8TestBodyEv
FNDA:4,_ZN23algo_binary_search_TestD0Ev
FNDA:0,_ZN23algo_binary_search_TestD2Ev
FNDA:16,_ZZN23algo_binary_search_Test8TestBodyEvENKUlPN7fakelua5StateENS0_7JITTypeEbE_clES2_S3_b
FNDA:4,_ZZN23algo_binary_search_Test8TestBodyEvENKUlP9lua_StateE_clES1_
FNDA:4,_ZN18algo_fast_pow_Test8TestBodyEv
FNDA:4,_ZN18algo_fast_pow_TestD0Ev
FNDA:0,_ZN18algo_fast_pow_TestD2Ev
FNDA:16,_ZZN18algo_fast_pow_Test8TestBodyEvENKUlPN7fakelua5StateENS0_7JITTypeEbE_clES2_S3_b
FNDA:4,_ZZN18algo_fast_pow_Test8TestBodyEvENKUlP9lua_StateE_clES1_
FNDA:4,_ZN24algo_insertion_sort_Test8TestBodyEv
FNDA:4,_ZN24algo_insertion_sort_TestD0Ev
FNDA:0,_ZN24algo_insertion_sort_TestD2Ev
FNDA:16,_ZZN24algo_insertion_sort_Test8TestBodyEvENKUlPN7fakelua5StateENS0_7JITTypeEbE_clES2_S3_b
FNDA:4,_ZZN24algo_insertion_sort_Test8TestBodyEvENKUlP9lua_StateE_clES1_
FNDA:4,_ZN16algo_matrix_Test8TestBodyEv
FNDA:4,_ZN16algo_matrix_TestD0Ev
FNDA:0,_ZN16algo_matrix_TestD2Ev
FNDA:16,_ZZN16algo_matrix_Test8TestBodyEvENKUlPN7fakelua5StateENS0_7JITTypeEbE_clES2_S3_b
FNDA:4,_ZZN16algo_matrix_Test8TestBodyEvENKUlP9lua_StateE_clES1_
FNDA:4,_Z7LuaCallIdJEET_P9lua_StatePKcDpT0_
FNDA:12,_Z7LuaCallIiJEET_P9lua_StatePKcDpT0_
FNDA:96,_Z7LuaCallIiJiEET_P9lua_StatePKcDpT0_
FNDA:36,_Z7LuaCallIiJiiEET_P9lua_StatePKcDpT0_
FNDA:12,_Z7LuaCallIiJiiiEET_P9lua_StatePKcDpT0_
FNDA:32,_ZL16LuaAlgoRunHelperRKNSt7__cxx1112basic_stringIcSt11char_traitsIcESaIcEEERKSt8functionIFvP9lua_StateEE
FNDA:4,_ZN19algo_fibonacci_Test8TestBodyEv
FNDA:4,_ZN19algo_fibonacci_TestD0Ev
FNDA:0,_ZN19algo_fibonacci_TestD2Ev
FNDA:16,_ZZN19algo_fibonacci_Test8TestBodyEvENKUlPN7fakelua5StateENS0_7JITTypeEbE_clES2_S3_b
FNDA:4,_ZZN19algo_fibonacci_Test8TestBodyEvENKUlP9lua_StateE_clES1_
FNDA:4,_ZN21algo_bubble_sort_Test8TestBodyEv
FNDA:4,_ZN21algo_bubble_sort_TestD0Ev
FNDA:0,_ZN21algo_bubble_sort_TestD2Ev
FNDA:16,_ZZN21algo_bubble_sort_Test8TestBodyEvENKUlPN7fakelua5StateENS0_7JITTypeEbE_clES2_S3_b
FNDA:4,_ZZN21algo_bubble_sort_Test8TestBodyEvENKUlP9lua_StateE_clES1_
FNF:47
FNH:39
DA:9,32
DA:10,64
DA:15,32
DA:16,64
DA:17,32
DA:18,96
DA:19,64
DA:20,128
DA:21,32
DA:22,32
DA:23,64
DA:26,204
DA:32,160
DA:33,160
DA:34,144
DA:35,160
DA:36,160
DA:37,0
DA:38,0
DA:39,0
DA:41,160
DA:43,4
DA:45,156
DA:47,160
DA:48,160
DA:53,32
DA:54,32
DA:55,32
DA:56,32
DA:57,32
DA:58,32
DA:59,0
DA:60,0
DA:61,0
DA:63,0
DA:64,32
DA:65,32
DA:68,12
DA:69,20
DA:70,16
DA:71,16
DA:72,16
DA:73,32
DA:76,12
DA:77,8
DA:79,4
DA:83,12
DA:84,20
DA:85,16
DA:86,16
DA:87,16
DA:88,16
DA:89,16
DA:90,16
DA:91,16
DA:92,16
DA:93,16
DA:94,32
DA:97,12
DA:98,4
DA:99,4
DA:100,4
DA:101,8
DA:103,4
DA:107,12
DA:108,20
DA:109,16
DA:110,16
DA:111,16
DA:112,16
DA:113,16
DA:114,16
DA:115,16
DA:116,16
DA:118,16
DA:119,16
DA:120,16
DA:121,16
DA:123,16
DA:124,32
DA:127,12
DA:128,4
DA:129,4
DA:130,4
DA:131,4
DA:132,4
DA:133,8
DA:135,4
DA:139,12
DA:140,20
DA:141,16
DA:142,16
DA:143,16
DA:144,16
DA:145,16
DA:146,16
DA:147,16
DA:148,16
DA:150,16
DA:151,16
DA:152,16
DA:153,16
DA:154,16
DA:155,32
DA:158,12
DA:159,4
DA:160,4
DA:161,4
DA:162,4
DA:163,4
DA:164,8
DA:166,4
DA:170,12
DA:171,20
DA:172,16
DA:173,16
DA:174,16
DA:175,16
DA:176,16
DA:177,16
DA:178,16
DA:179,16
DA:180,16
DA:181,16
DA:183,16
DA:184,32
DA:187,12
DA:188,4
DA:189,4
DA:190,4
DA:191,4
DA:192,8
DA:194,4
DA:199,12
DA:200,20
DA:201,16
DA:202,16
DA:203,16
DA:204,16
DA:205,16
DA:206,16
DA:207,16
DA:208,16
DA:210,16
DA:211,16
DA:212,16
DA:213,16
DA:214,16
DA:215,16
DA:217,16
DA:218,16
DA:219,16
DA:220,16
DA:221,16
DA:222,32
DA:225,12
DA:226,4
DA:227,4
DA:228,4
DA:229,4
DA:230,4
DA:231,4
DA:232,4
DA:233,4
DA:234,8
DA:236,4
DA:241,12
DA:242,20
DA:243,16
DA:244,16
DA:245,16
DA:246,16
DA:247,16
DA:248,16
DA:249,16
DA:250,16
DA:252,16
DA:253,16
DA:255,16
DA:256,16
DA:257,32
DA:260,12
DA:261,4
DA:262,4
DA:263,4
DA:264,4
DA:265,8
DA:267,4
DA:271,12
DA:272,20
DA:273,16
DA:274,16
DA:275,16
DA:276,16
DA:278,16
DA:279,16
DA:280,16
DA:281,16
DA:282,16
DA:283,32
DA:286,12
DA:287,4
DA:288,4
DA:289,4
DA:290,8
DA:292,4
LF:206
LH:199
end_of_record
TN:
SF:/home/runner/work/fakelua/fakelua/test/test_common.cpp
FN:139,139,_ZN20common_IsNumber_Test8TestBodyEv
FN:139,139,_ZN20common_IsNumber_TestD0Ev
FN:139,139,_ZN20common_IsNumber_TestD2Ev
FN:162,162,_ZN21common_IsInteger_Test8TestBodyEv
FN:162,162,_ZN21common_IsInteger_TestD0Ev
FN:162,162,_ZN21common_IsInteger_TestD2Ev
FN:183,183,_ZN21common_ToInteger_Test8TestBodyEv
FN:183,183,_ZN21common_ToInteger_TestD0Ev
FN:183,183,_ZN21common_ToInteger_TestD2Ev
FN:204,204,_ZN19common_ToFloat_Test8TestBodyEv
FN:204,204,_ZN19common_ToFloat_TestD0Ev
FN:204,204,_ZN19common_ToFloat_TestD2Ev
FN:259,259,_ZN35common_ToInteger_hex_int64_min_Test8TestBodyEv
FN:259,259,_ZN35common_ToInteger_hex_int64_min_TestD0Ev
FN:259,259,_ZN35common_ToInteger_hex_int64_min_TestD2Ev
FN:268,268,_ZN29common_ToFloat_hex_large_Test8TestBodyEv
FN:268,268,_ZN29common_ToFloat_hex_large_TestD0Ev
FN:268,268,_ZN29common_ToFloat_hex_large_TestD2Ev
FN:278,283,_ZN28common_JoinString_empty_Test8TestBodyEv
FN:278,283,_ZN28common_JoinString_empty_TestD0Ev
FN:278,283,_ZN28common_JoinString_empty_TestD2Ev
FN:286,286,_ZN27common_flag_bit_macros_Test8TestBodyEv
FN:286,286,_ZN27common_flag_bit_macros_TestD0Ev
FN:286,286,_ZN27common_flag_bit_macros_TestD2Ev
FN:311,316,_ZN36common_ToInteger_neg_hex_errors_Test8TestBodyEv
FN:311,316,_ZN36common_ToInteger_neg_hex_errors_TestD0Ev
FN:311,316,_ZN36common_ToInteger_neg_hex_errors_TestD2Ev
FN:319,324,_ZN30common_ToFloat_hex_errors_Test8TestBodyEv
FN:319,324,_ZN30common_ToFloat_hex_errors_TestD0Ev
FN:319,324,_ZN30common_ToFloat_hex_errors_TestD2Ev
FN:72,72,_ZN19common_logging_Test8TestBodyEv
FN:72,72,_ZN19common_logging_TestD0Ev
FN:72,72,_ZN19common_logging_TestD2Ev
FN:78,78,_ZN19common_vi_sort_Test8TestBodyEv
FN:78,78,_ZN19common_vi_sort_TestD0Ev
FN:78,78,_ZN19common_vi_sort_TestD2Ev
FN:9,9,_ZN26common_escapse_string_Test8TestBodyEv
FN:9,9,_ZN26common_escapse_string_TestD0Ev
FN:9,9,_ZN26common_escapse_string_TestD2Ev
FNDA:3,_ZN20common_IsNumber_Test8TestBodyEv
FNDA:3,_ZN20common_IsNumber_TestD0Ev
FNDA:0,_ZN20common_IsNumber_TestD2Ev
FNDA:3,_ZN21common_IsInteger_Test8TestBodyEv
FNDA:3,_ZN21common_IsInteger_TestD0Ev
FNDA:0,_ZN21common_IsInteger_TestD2Ev
FNDA:3,_ZN21common_ToInteger_Test8TestBodyEv
FNDA:3,_ZN21common_ToInteger_TestD0Ev
FNDA:0,_ZN21common_ToInteger_TestD2Ev
FNDA:3,_ZN19common_ToFloat_Test8TestBodyEv
FNDA:3,_ZN19common_ToFloat_TestD0Ev
FNDA:0,_ZN19common_ToFloat_TestD2Ev
FNDA:3,_ZN35common_ToInteger_hex_int64_min_Test8TestBodyEv
FNDA:3,_ZN35common_ToInteger_hex_int64_min_TestD0Ev
FNDA:0,_ZN35common_ToInteger_hex_int64_min_TestD2Ev
FNDA:3,_ZN29common_ToFloat_hex_large_Test8TestBodyEv
FNDA:3,_ZN29common_ToFloat_hex_large_TestD0Ev
FNDA:0,_ZN29common_ToFloat_hex_large_TestD2Ev
FNDA:3,_ZN28common_JoinString_empty_Test8TestBodyEv
FNDA:3,_ZN28common_JoinString_empty_TestD0Ev
FNDA:0,_ZN28common_JoinString_empty_TestD2Ev
FNDA:3,_ZN27common_flag_bit_macros_Test8TestBodyEv
FNDA:3,_ZN27common_flag_bit_macros_TestD0Ev
FNDA:0,_ZN27common_flag_bit_macros_TestD2Ev
FNDA:3,_ZN36common_ToInteger_neg_hex_errors_Test8TestBodyEv
FNDA:3,_ZN36common_ToInteger_neg_hex_errors_TestD0Ev
FNDA:0,_ZN36common_ToInteger_neg_hex_errors_TestD2Ev
FNDA:3,_ZN30common_ToFloat_hex_errors_Test8TestBodyEv
FNDA:3,_ZN30common_ToFloat_hex_errors_TestD0Ev
FNDA:0,_ZN30common_ToFloat_hex_errors_TestD2Ev
FNDA:3,_ZN19common_logging_Test8TestBodyEv
FNDA:3,_ZN19common_logging_TestD0Ev
FNDA:0,_ZN19common_logging_TestD2Ev
FNDA:3,_ZN19common_vi_sort_Test8TestBodyEv
FNDA:3,_ZN19common_vi_sort_TestD0Ev
FNDA:0,_ZN19common_vi_sort_TestD2Ev
FNDA:3,_ZN26common_escapse_string_Test8TestBodyEv
FNDA:3,_ZN26common_escapse_string_TestD0Ev
FNDA:0,_ZN26common_escapse_string_TestD2Ev
FNF:39
FNH:26
DA:9,9
DA:10,3
DA:11,3
DA:12,3
DA:14,3
DA:15,3
DA:16,3
DA:18,3
DA:19,3
DA:20,3
DA:22,3
DA:23,3
DA:24,3
DA:26,3
DA:27,3
DA:28,3
DA:30,3
DA:31,3
DA:32,3
DA:34,3
DA:35,3
DA:36,3
DA:39,3
DA:40,3
DA:41,3
DA:43,3
DA:44,3
DA:45,3
DA:47,3
DA:48,3
DA:49,3
DA:51,3
DA:52,3
DA:53,3
DA:55,3
DA:56,3
DA:57,3
DA:59,3
DA:60,3
DA:61,3
DA:63,3
DA:64,3
DA:65,3
DA:67,3
DA:68,3
DA:69,6
DA:70,3
DA:72,9
DA:73,3
DA:74,3
DA:75,3
DA:76,3
DA:78,9
DA:79,3
DA:80,3
DA:82,3
DA:83,3
DA:84,3
DA:85,3
DA:86,3
DA:88,3
DA:89,3
DA:90,3
DA:91,3
DA:92,3
DA:94,3
DA:95,3
DA:96,3
DA:97,3
DA:98,3
DA:100,3
DA:101,3
DA:102,3
DA:103,3
DA:104,3
DA:106,3
DA:107,3
DA:108,3
DA:109,3
DA:110,3
DA:112,3
DA:113,3
DA:114,3
DA:115,3
DA:116,3
DA:118,3
DA:119,6
DA:120,3
DA:121,3
DA:122,3
DA:124,3
DA:125,6
DA:126,3
DA:127,3
DA:128,3
DA:130,9
DA:132,3
DA:133,3
DA:135,6
DA:136,3
DA:137,51
DA:139,9
DA:140,6
DA:141,3
DA:142,3
DA:144,3
DA:145,3
DA:146,3
DA:148,3
DA:149,3
DA:150,3
DA:152,3
DA:153,3
DA:154,3
DA:155,3
DA:157,3
DA:158,3
DA:159,6
DA:162,9
DA:163,3
DA:164,3
DA:165,3
DA:167,3
DA:168,3
DA:170,3
DA:171,3
DA:172,3
DA:173,3
DA:174,3
DA:175,3
DA:176,3
DA:177,3
DA:178,3
DA:179,3
DA:180,6
DA:183,9
DA:184,3
DA:185,3
DA:186,3
DA:187,3
DA:188,3
DA:189,3
DA:190,3
DA:192,3
DA:193,3
DA:194,3
DA:195,3
DA:197,3
DA:198,3
DA:200,3
DA:201,6
DA:204,9
DA:205,3
DA:206,3
DA:207,3
DA:208,3
DA:209,3
DA:210,3
DA:211,3
DA:212,3
DA:213,3
DA:215,3
DA:217,3
DA:218,3
DA:219,3
DA:221,3
DA:222,3
DA:223,3
DA:225,3
DA:226,3
DA:227,3
DA:228,3
DA:229,3
DA:230,3
DA:232,3
DA:233,3
DA:234,3
DA:235,3
DA:236,3
DA:237,3
DA:239,3
DA:240,3
DA:241,3
DA:242,3
DA:243,3
DA:244,3
DA:246,3
DA:247,3
DA:249,3
DA:250,3
DA:251,3
DA:252,3
DA:253,3
DA:254,3
DA:255,6
DA:259,9
DA:260,3
DA:261,3
DA:263,3
DA:264,6
DA:268,9
DA:270,3
DA:272,3
DA:274,6
DA:278,9
DA:279,6
DA:280,6
DA:281,6
DA:282,9
DA:286,9
DA:288,3
DA:289,3
DA:290,3
DA:291,3
DA:292,3
DA:295,3
DA:296,3
DA:297,3
DA:298,3
DA:301,3
DA:302,3
DA:303,3
DA:304,3
DA:305,3
DA:306,3
DA:307,6
DA:311,9
DA:313,3
DA:315,3
DA:316,3
DA:319,9
DA:321,3
DA:323,3
DA:324,3
LF:234
LH:234
end_of_record
TN:
SF:/home/runner/work/fakelua/fakelua/test/test_exception.cpp
FN:11,11,_ZN39exception_function_param_duplicate_Test8TestBodyEv
FN:11,11,_ZN39exception_function_param_duplicate_TestD0Ev
FN:11,11,_ZN39exception_function_param_duplicate_TestD2Ev
FN:113,113,_ZN30exception_compile_no_file_Test8TestBodyEv
FN:113,113,_ZN30exception_compile_no_file_TestD0Ev
FN:113,113,_ZN30exception_compile_no_file_TestD2Ev
FN:128,128,_ZN27exception_debug_assert_Test8TestBodyEv
FN:128,128,_ZN27exception_debug_assert_TestD0Ev
FN:128,128,_ZN27exception_debug_assert_TestD2Ev
FN:137,137,_ZN30exception_DebugAssertFail_Test8TestBodyEv
FN:137,137,_ZN30exception_DebugAssertFail_TestD0Ev
FN:137,137,_ZN30exception_DebugAssertFail_TestD2Ev
FN:147,147,_ZN33exception_ReplaceEscapeChars_Test8TestBodyEv
FN:147,147,_ZN33exception_ReplaceEscapeChars_TestD0Ev
FN:147,147,_ZN33exception_ReplaceEscapeChars_TestD2Ev
FN:167,167,_ZN37exception_return_type_error_bool_Test8TestBodyEv
FN:167,167,_ZN37exception_return_type_error_bool_TestD0Ev
FN:167,167,_ZN37exception_return_type_error_bool_TestD2Ev
FN:184,184,_ZN37exception_return_type_error_char_Test8TestBodyEv
FN:184,184,_ZN37exception_return_type_error_char_TestD0Ev
FN:184,184,_ZN37exception_return_type_error_char_TestD2Ev
FN:201,201,_ZN38exception_return_type_error_uchar_Test8TestBodyEv
FN:201,201,_ZN38exception_return_type_error_uchar_TestD0Ev
FN:201,201,_ZN38exception_return_type_error_uchar_TestD2Ev
FN:218,218,_ZN38exception_return_type_error_short_Test8TestBodyEv
FN:218,218,_ZN38exception_return_type_error_short_TestD0Ev
FN:218,218,_ZN38exception_return_type_error_short_TestD2Ev
FN:235,235,_ZN39exception_return_type_error_ushort_Test8TestBodyEv
FN:235,235,_ZN39exception_return_type_error_ushort_TestD0Ev
FN:235,235,_ZN39exception_return_type_error_ushort_TestD2Ev
FN:252,252,_ZN36exception_return_type_error_int_Test8TestBodyEv
FN:252,252,_ZN36exception_return_type_error_int_TestD0Ev
FN:252,252,_ZN36exception_return_type_error_int_TestD2Ev
FN:26,26,_ZN37exception_const_define_duplicate_Test8TestBodyEv
FN:26,26,_ZN37exception_const_define_duplicate_TestD0Ev
FN:26,26,_ZN37exception_const_define_duplicate_TestD2Ev
FN:269,269,_ZN37exception_return_type_error_uint_Test8TestBodyEv
FN:269,269,_ZN37exception_return_type_error_uint_TestD0Ev
FN:269,269,_ZN37exception_return_type_error_uint_TestD2Ev
FN:286,301,_ZN37exception_return_type_error_long_Test8TestBodyEv
FN:286,301,_ZN37exception_return_type_error_long_TestD0Ev
FN:286,301,_ZN37exception_return_type_error_long_TestD2Ev
FN:303,303,_ZN38exception_return_type_error_ulong_Test8TestBodyEv
FN:303,303,_ZN38exception_return_type_error_ulong_TestD0Ev
FN:303,303,_ZN38exception_return_type_error_ulong_TestD2Ev
FN:320,320,_ZN42exception_return_type_error_long_long_Test8TestBodyEv
FN:320,320,_ZN42exception_return_type_error_long_long_TestD0Ev
FN:320,320,_ZN42exception_return_type_error_long_long_TestD2Ev
FN:337,337,_ZN43exception_return_type_error_ulong_long_Test8TestBodyEv
FN:337,337,_ZN43exception_return_type_error_ulong_long_TestD0Ev
FN:337,337,_ZN43exception_return_type_error_ulong_long_TestD2Ev
FN:354,354,_ZN38exception_return_type_error_float_Test8TestBodyEv
FN:354,354,_ZN38exception_return_type_error_float_TestD0Ev
FN:354,354,_ZN38exception_return_type_error_float_TestD2Ev
FN:371,386,_ZN39exception_return_type_error_double_Test8TestBodyEv
FN:371,386,_ZN39exception_return_type_error_double_TestD0Ev
FN:371,386,_ZN39exception_return_type_error_double_TestD2Ev
FN:388,388,_ZN39exception_return_type_error_string_Test8TestBodyEv
FN:388,388,_ZN39exception_return_type_error_string_TestD0Ev
FN:388,388,_ZN39exception_return_type_error_string_TestD2Ev
FN:405,405,_ZN43exception_return_type_error_stringview_Test8TestBodyEv
FN:405,405,_ZN43exception_return_type_error_stringview_TestD0Ev
FN:405,405,_ZN43exception_return_type_error_stringview_TestD2Ev
FN:41,41,_ZN48exception_const_define_func_param_duplicate_Test8TestBodyEv
FN:41,41,_ZN48exception_const_define_func_param_duplicate_TestD0Ev
FN:41,41,_ZN48exception_const_define_func_param_duplicate_TestD2Ev
FN:422,422,_ZN36exception_const_define_variadic_Test8TestBodyEv
FN:422,422,_ZN36exception_const_define_variadic_TestD0Ev
FN:422,422,_ZN36exception_const_define_variadic_TestD2Ev
FN:437,450,_ZN42exception_test_const_binop_plus_error_Test8TestBodyEv
FN:437,450,_ZN42exception_test_const_binop_plus_error_TestD0Ev
FN:437,450,_ZN42exception_test_const_binop_plus_error_TestD2Ev
FN:452,452,_ZN24exception_ToInteger_Test8TestBodyEv
FN:452,452,_ZN24exception_ToInteger_TestD0Ev
FN:452,452,_ZN24exception_ToInteger_TestD2Ev
FN:458,458,_ZN22exception_ToFloat_Test8TestBodyEv
FN:458,458,_ZN22exception_ToFloat_TestD0Ev
FN:458,458,_ZN22exception_ToFloat_TestD2Ev
FN:463,476,_ZN43exception_test_const_binop_minus_error_Test8TestBodyEv
FN:463,476,_ZN43exception_test_const_binop_minus_error_TestD0Ev
FN:463,476,_ZN43exception_test_const_binop_minus_error_TestD2Ev
FN:478,478,_ZN42exception_test_const_binop_star_error_Test8TestBodyEv
FN:478,478,_ZN42exception_test_const_binop_star_error_TestD0Ev
FN:478,478,_ZN42exception_test_const_binop_star_error_TestD2Ev
FN:493,493,_ZN43exception_test_const_binop_slash_error_Test8TestBodyEv
FN:493,493,_ZN43exception_test_const_binop_slash_error_TestD0Ev
FN:493,493,_ZN43exception_test_const_binop_slash_error_TestD2Ev
FN:508,508,_ZN50exception_test_const_binop_double_slash_error_Test8TestBodyEv
FN:508,508,_ZN50exception_test_const_binop_double_slash_error_TestD0Ev
FN:508,508,_ZN50exception_test_const_binop_double_slash_error_TestD2Ev
FN:523,536,_ZN41exception_test_const_binop_pow_error_Test8TestBodyEv
FN:523,536,_ZN41exception_test_const_binop_pow_error_TestD0Ev
FN:523,536,_ZN41exception_test_const_binop_pow_error_TestD2Ev
FN:538,551,_ZN41exception_test_const_binop_mod_error_Test8TestBodyEv
FN:538,551,_ZN41exception_test_const_binop_mod_error_TestD0Ev
FN:538,551,_ZN41exception_test_const_binop_mod_error_TestD2Ev
FN:553,553,_ZN44exception_test_const_binop_bitand_error_Test8TestBodyEv
FN:553,553,_ZN44exception_test_const_binop_bitand_error_TestD0Ev
FN:553,553,_ZN44exception_test_const_binop_bitand_error_TestD2Ev
FN:56,56,_ZN36exception_const_define_no_match_Test8TestBodyEv
FN:56,56,_ZN36exception_const_define_no_match_TestD0Ev
FN:56,56,_ZN36exception_const_define_no_match_TestD2Ev
FN:568,581,_ZN41exception_test_const_binop_xor_error_Test8TestBodyEv
FN:568,581,_ZN41exception_test_const_binop_xor_error_TestD0Ev
FN:568,581,_ZN41exception_test_const_binop_xor_error_TestD2Ev
FN:583,596,_ZN43exception_test_const_binop_bitor_error_Test8TestBodyEv
FN:583,596,_ZN43exception_test_const_binop_bitor_error_TestD0Ev
FN:583,596,_ZN43exception_test_const_binop_bitor_error_TestD2Ev
FN:598,611,_ZN49exception_test_const_binop_right_shift_error_Test8TestBodyEv
FN:598,611,_ZN49exception_test_const_binop_right_shift_error_TestD0Ev
FN:598,611,_ZN49exception_test_const_binop_right_shift_error_TestD2Ev
FN:613,613,_ZN48exception_test_const_binop_left_shift_error_Test8TestBodyEv
FN:613,613,_ZN48exception_test_const_binop_left_shift_error_TestD0Ev
FN:613,613,_ZN48exception_test_const_binop_left_shift_error_TestD2Ev
FN:628,641,_ZN42exception_test_const_binop_less_error_Test8TestBodyEv
FN:628,641,_ZN42exception_test_const_binop_less_error_TestD0Ev
FN:628,641,_ZN42exception_test_const_binop_less_error_TestD2Ev
FN:643,643,_ZN48exception_test_const_binop_less_equal_error_Test8TestBodyEv
FN:643,643,_ZN48exception_test_const_binop_less_equal_error_TestD0Ev
FN:643,643,_ZN48exception_test_const_binop_less_equal_error_TestD2Ev
FN:658,658,_ZN42exception_test_const_binop_more_error_Test8TestBodyEv
FN:658,658,_ZN42exception_test_const_binop_more_error_TestD0Ev
FN:658,658,_ZN42exception_test_const_binop_more_error_TestD2Ev
FN:673,673,_ZN48exception_test_const_binop_more_equal_error_Test8TestBodyEv
FN:673,673,_ZN48exception_test_const_binop_more_equal_error_TestD0Ev
FN:673,673,_ZN48exception_test_const_binop_more_equal_error_TestD2Ev
FN:688,688,_ZN40exception_test_const_unop_len_error_Test8TestBodyEv
FN:688,688,_ZN40exception_test_const_unop_len_error_TestD0Ev
FN:688,688,_ZN40exception_test_const_unop_len_error_TestD2Ev
FN:703,716,_ZN43exception_test_const_unop_bitnot_error_Test8TestBodyEv
FN:703,716,_ZN43exception_test_const_unop_bitnot_error_TestD0Ev
FN:703,716,_ZN43exception_test_const_unop_bitnot_error_TestD2Ev
FN:71,71,_ZN38exception_function_call_exception_Test8TestBodyEv
FN:71,71,_ZN38exception_function_call_exception_TestD0Ev
FN:71,71,_ZN38exception_function_call_exception_TestD2Ev
FN:718,731,_ZN33exception_stmt_support_error_Test8TestBodyEv
FN:718,731,_ZN33exception_stmt_support_error_TestD0Ev
FN:718,731,_ZN33exception_stmt_support_error_TestD2Ev
FN:733,733,_ZN34exception_label_support_error_Test8TestBodyEv
FN:733,733,_ZN34exception_label_support_error_TestD0Ev
FN:733,733,_ZN34exception_label_support_error_TestD2Ev
FN:748,748,_ZN36exception_const_func_call_error_Test8TestBodyEv
FN:748,748,_ZN36exception_const_func_call_error_TestD0Ev
FN:748,748,_ZN36exception_const_func_call_error_TestD2Ev
FN:763,776,_ZN37exception_no_define_lvalue_error_Test8TestBodyEv
FN:763,776,_ZN37exception_no_define_lvalue_error_TestD0Ev
FN:763,776,_ZN37exception_no_define_lvalue_error_TestD2Ev
FN:778,791,_ZN44exception_global_duplicate_lvalue_error_Test8TestBodyEv
FN:778,791,_ZN44exception_global_duplicate_lvalue_error_TestD0Ev
FN:778,791,_ZN44exception_global_duplicate_lvalue_error_TestD2Ev
FN:793,806,_ZN31exception_test_break_error_Test8TestBodyEv
FN:793,806,_ZN31exception_test_break_error_TestD0Ev
FN:793,806,_ZN31exception_test_break_error_TestD2Ev
FN:808,821,_ZN41exception_test_for_in_namelist_error_Test8TestBodyEv
FN:808,821,_ZN41exception_test_for_in_namelist_error_TestD0Ev
FN:808,821,_ZN41exception_test_for_in_namelist_error_TestD2Ev
FN:823,823,_ZN36exception_test_for_in_exp_error_Test8TestBodyEv
FN:823,823,_ZN36exception_test_for_in_exp_error_TestD0Ev
FN:823,823,_ZN36exception_test_for_in_exp_error_TestD2Ev
FN:838,838,_ZN38exception_test_for_in_pairs_error_Test8TestBodyEv
FN:838,838,_ZN38exception_test_for_in_pairs_error_TestD0Ev
FN:838,838,_ZN38exception_test_for_in_pairs_error_TestD2Ev
FN:853,853,_ZN40exception_test_for_in_explist_error_Test8TestBodyEv
FN:853,853,_ZN40exception_test_for_in_explist_error_TestD0Ev
FN:853,853,_ZN40exception_test_for_in_explist_error_TestD2Ev
FN:868,868,_ZN39exception_test_for_in_prefix_error_Test8TestBodyEv
FN:868,868,_ZN39exception_test_for_in_prefix_error_TestD0Ev
FN:868,868,_ZN39exception_test_for_in_prefix_error_TestD2Ev
FN:883,883,_ZN37exception_test_for_in_func_error_Test8TestBodyEv
FN:883,883,_ZN37exception_test_for_in_func_error_TestD0Ev
FN:883,883,_ZN37exception_test_for_in_func_error_TestD2Ev
FN:898,898,_ZN42exception_test_for_in_func_args_error_Test8TestBodyEv
FN:898,898,_ZN42exception_test_for_in_func_args_error_TestD0Ev
FN:898,898,_ZN42exception_test_for_in_func_args_error_TestD2Ev
FN:913,913,_ZN44exception_test_for_in_prefix_func_error_Test8TestBodyEv
FN:913,913,_ZN44exception_test_for_in_prefix_func_error_TestD0Ev
FN:913,913,_ZN44exception_test_for_in_prefix_func_error_TestD2Ev
FN:928,941,_ZN39exception_function_too_many_params_Test8TestBodyEv
FN:928,941,_ZN39exception_function_too_many_params_TestD0Ev
FN:928,941,_ZN39exception_function_too_many_params_TestD2Ev
FN:98,98,_ZN27exception_compile_fail_Test8TestBodyEv
FN:98,98,_ZN27exception_compile_fail_TestD0Ev
FN:98,98,_ZN27exception_compile_fail_TestD2Ev
FNDA:4,_ZN39exception_function_param_duplicate_Test8TestBodyEv
FNDA:4,_ZN39exception_function_param_duplicate_TestD0Ev
FNDA:0,_ZN39exception_function_param_duplicate_TestD2Ev
FNDA:4,_ZN30exception_compile_no_file_Test8TestBodyEv
FNDA:4,_ZN30exception_compile_no_file_TestD0Ev
FNDA:0,_ZN30exception_compile_no_file_TestD2Ev
FNDA:4,_ZN27exception_debug_assert_Test8TestBodyEv
FNDA:4,_ZN27exception_debug_assert_TestD0Ev
FNDA:0,_ZN27exception_debug_assert_TestD2Ev
FNDA:4,_ZN30exception_DebugAssertFail_Test8TestBodyEv
FNDA:4,_ZN30exception_DebugAssertFail_TestD0Ev
FNDA:0,_ZN30exception_DebugAssertFail_TestD2Ev
FNDA:4,_ZN33exception_ReplaceEscapeChars_Test8TestBodyEv
FNDA:4,_ZN33exception_ReplaceEscapeChars_TestD0Ev
FNDA:0,_ZN33exception_ReplaceEscapeChars_TestD2Ev
FNDA:4,_ZN37exception_return_type_error_bool_Test8TestBodyEv
FNDA:4,_ZN37exception_return_type_error_bool_TestD0Ev
FNDA:0,_ZN37exception_return_type_error_bool_TestD2Ev
FNDA:4,_ZN37exception_return_type_error_char_Test8TestBodyEv
FNDA:4,_ZN37exception_return_type_error_char_TestD0Ev
FNDA:0,_ZN37exception_return_type_error_char_TestD2Ev
FNDA:4,_ZN38exception_return_type_error_uchar_Test8TestBodyEv
FNDA:4,_ZN38exception_return_type_error_uchar_TestD0Ev
FNDA:0,_ZN38exception_return_type_error_uchar_TestD2Ev
FNDA:4,_ZN38exception_return_type_error_short_Test8TestBodyEv
FNDA:4,_ZN38exception_return_type_error_short_TestD0Ev
FNDA:0,_ZN38exception_return_type_error_short_TestD2Ev
FNDA:4,_ZN39exception_return_type_error_ushort_Test8TestBodyEv
FNDA:4,_ZN39exception_return_type_error_ushort_TestD0Ev
FNDA:0,_ZN39exception_return_type_error_ushort_TestD2Ev
FNDA:4,_ZN36exception_return_type_error_int_Test8TestBodyEv
FNDA:4,_ZN36exception_return_type_error_int_TestD0Ev
FNDA:0,_ZN36exception_return_type_error_int_TestD2Ev
FNDA:4,_ZN37exception_const_define_duplicate_Test8TestBodyEv
FNDA:4,_ZN37exception_const_define_duplicate_TestD0Ev
FNDA:0,_ZN37exception_const_define_duplicate_TestD2Ev
FNDA:4,_ZN37exception_return_type_error_uint_Test8TestBodyEv
FNDA:4,_ZN37exception_return_type_error_uint_TestD0Ev
FNDA:0,_ZN37exception_return_type_error_uint_TestD2Ev
FNDA:4,_ZN37exception_return_type_error_long_Test8TestBodyEv
FNDA:4,_ZN37exception_return_type_error_long_TestD0Ev
FNDA:0,_ZN37exception_return_type_error_long_TestD2Ev
FNDA:4,_ZN38exception_return_type_error_ulong_Test8TestBodyEv
FNDA:4,_ZN38exception_return_type_error_ulong_TestD0Ev
FNDA:0,_ZN38exception_return_type_error_ulong_TestD2Ev
FNDA:4,_ZN42exception_return_type_error_long_long_Test8TestBodyEv
FNDA:4,_ZN42exception_return_type_error_long_long_TestD0Ev
FNDA:0,_ZN42exception_return_type_error_long_long_TestD2Ev
FNDA:4,_ZN43exception_return_type_error_ulong_long_Test8TestBodyEv
FNDA:4,_ZN43exception_return_type_error_ulong_long_TestD0Ev
FNDA:0,_ZN43exception_return_type_error_ulong_long_TestD2Ev
FNDA:4,_ZN38exception_return_type_error_float_Test8TestBodyEv
FNDA:4,_ZN38exception_return_type_error_float_TestD0Ev
FNDA:0,_ZN38exception_return_type_error_float_TestD2Ev
FNDA:4,_ZN39exception_return_type_error_double_Test8TestBodyEv
FNDA:4,_ZN39exception_return_type_error_double_TestD0Ev
FNDA:0,_ZN39exception_return_type_error_double_TestD2Ev
FNDA:4,_ZN39exception_return_type_error_string_Test8TestBodyEv
FNDA:4,_ZN39exception_return_type_error_string_TestD0Ev
FNDA:0,_ZN39exception_return_type_error_string_TestD2Ev
FNDA:4,_ZN43exception_return_type_error_stringview_Test8TestBodyEv
FNDA:4,_ZN43exception_return_type_error_stringview_TestD0Ev
FNDA:0,_ZN43exception_return_type_error_stringview_TestD2Ev
FNDA:4,_ZN48exception_const_define_func_param_duplicate_Test8TestBodyEv
FNDA:4,_ZN48exception_const_define_func_param_duplicate_TestD0Ev
FNDA:0,_ZN48exception_const_define_func_param_duplicate_TestD2Ev
FNDA:4,_ZN36exception_const_define_variadic_Test8TestBodyEv
FNDA:4,_ZN36exception_const_define_variadic_TestD0Ev
FNDA:0,_ZN36exception_const_define_variadic_TestD2Ev
FNDA:4,_ZN42exception_test_const_binop_plus_error_Test8TestBodyEv
FNDA:4,_ZN42exception_test_const_binop_plus_error_TestD0Ev
FNDA:0,_ZN42exception_test_const_binop_plus_error_TestD2Ev
FNDA:4,_ZN24exception_ToInteger_Test8TestBodyEv
FNDA:4,_ZN24exception_ToInteger_TestD0Ev
FNDA:0,_ZN24exception_ToInteger_TestD2Ev
FNDA:4,_ZN22exception_ToFloat_Test8TestBodyEv
FNDA:4,_ZN22exception_ToFloat_TestD0Ev
FNDA:0,_ZN22exception_ToFloat_TestD2Ev
FNDA:4,_ZN43exception_test_const_binop_minus_error_Test8TestBodyEv
FNDA:4,_ZN43exception_test_const_binop_minus_error_TestD0Ev
FNDA:0,_ZN43exception_test_const_binop_minus_error_TestD2Ev
FNDA:4,_ZN42exception_test_const_binop_star_error_Test8TestBodyEv
FNDA:4,_ZN42exception_test_const_binop_star_error_TestD0Ev
FNDA:0,_ZN42exception_test_const_binop_star_error_TestD2Ev
FNDA:4,_ZN43exception_test_const_binop_slash_error_Test8TestBodyEv
FNDA:4,_ZN43exception_test_const_binop_slash_error_TestD0Ev
FNDA:0,_ZN43exception_test_const_binop_slash_error_TestD2Ev
FNDA:4,_ZN50exception_test_const_binop_double_slash_error_Test8TestBodyEv
FNDA:4,_ZN50exception_test_const_binop_double_slash_error_TestD0Ev
FNDA:0,_ZN50exception_test_const_binop_double_slash_error_TestD2Ev
FNDA:4,_ZN41exception_test_const_binop_pow_error_Test8TestBodyEv
FNDA:4,_ZN41exception_test_const_binop_pow_error_TestD0Ev
FNDA:0,_ZN41exception_test_const_binop_pow_error_TestD2Ev
FNDA:4,_ZN41exception_test_const_binop_mod_error_Test8TestBodyEv
FNDA:4,_ZN41exception_test_const_binop_mod_error_TestD0Ev
FNDA:0,_ZN41exception_test_const_binop_mod_error_TestD2Ev
FNDA:4,_ZN44exception_test_const_binop_bitand_error_Test8TestBodyEv
FNDA:4,_ZN44exception_test_const_binop_bitand_error_TestD0Ev
FNDA:0,_ZN44exception_test_const_binop_bitand_error_TestD2Ev
FNDA:4,_ZN36exception_const_define_no_match_Test8TestBodyEv
FNDA:4,_ZN36exception_const_define_no_match_TestD0Ev
FNDA:0,_ZN36exception_const_define_no_match_TestD2Ev
FNDA:4,_ZN41exception_test_const_binop_xor_error_Test8TestBodyEv
FNDA:4,_ZN41exception_test_const_binop_xor_error_TestD0Ev
FNDA:0,_ZN41exception_test_const_binop_xor_error_TestD2Ev
FNDA:4,_ZN43exception_test_const_binop_bitor_error_Test8TestBodyEv
FNDA:4,_ZN43exception_test_const_binop_bitor_error_TestD0Ev
FNDA:0,_ZN43exception_test_const_binop_bitor_error_TestD2Ev
FNDA:4,_ZN49exception_test_const_binop_right_shift_error_Test8TestBodyEv
FNDA:4,_ZN49exception_test_const_binop_right_shift_error_TestD0Ev
FNDA:0,_ZN49exception_test_const_binop_right_shift_error_TestD2Ev
FNDA:4,_ZN48exception_test_const_binop_left_shift_error_Test8TestBodyEv
FNDA:4,_ZN48exception_test_const_binop_left_shift_error_TestD0Ev
FNDA:0,_ZN48exception_test_const_binop_left_shift_error_TestD2Ev
FNDA:4,_ZN42exception_test_const_binop_less_error_Test8TestBodyEv
FNDA:4,_ZN42exception_test_const_binop_less_error_TestD0Ev
FNDA:0,_ZN42exception_test_const_binop_less_error_TestD2Ev
FNDA:4,_ZN48exception_test_const_binop_less_equal_error_Test8TestBodyEv
FNDA:4,_ZN48exception_test_const_binop_less_equal_error_TestD0Ev
FNDA:0,_ZN48exception_test_const_binop_less_equal_error_TestD2Ev
FNDA:4,_ZN42exception_test_const_binop_more_error_Test8TestBodyEv
FNDA:4,_ZN42exception_test_const_binop_more_error_TestD0Ev
FNDA:0,_ZN42exception_test_const_binop_more_error_TestD2Ev
FNDA:4,_ZN48exception_test_const_binop_more_equal_error_Test8TestBodyEv
FNDA:4,_ZN48exception_test_const_binop_more_equal_error_TestD0Ev
FNDA:0,_ZN48exception_test_const_binop_more_equal_error_TestD2Ev
FNDA:4,_ZN40exception_test_const_unop_len_error_Test8TestBodyEv
FNDA:4,_ZN40exception_test_const_unop_len_error_TestD0Ev
FNDA:0,_ZN40exception_test_const_unop_len_error_TestD2Ev
FNDA:4,_ZN43exception_test_const_unop_bitnot_error_Test8TestBodyEv
FNDA:4,_ZN43exception_test_const_unop_bitnot_error_TestD0Ev
FNDA:0,_ZN43exception_test_const_unop_bitnot_error_TestD2Ev
FNDA:4,_ZN38exception_function_call_exception_Test8TestBodyEv
FNDA:4,_ZN38exception_function_call_exception_TestD0Ev
FNDA:0,_ZN38exception_function_call_exception_TestD2Ev
FNDA:4,_ZN33exception_stmt_support_error_Test8TestBodyEv
FNDA:4,_ZN33exception_stmt_support_error_TestD0Ev
FNDA:0,_ZN33exception_stmt_support_error_TestD2Ev
FNDA:4,_ZN34exception_label_support_error_Test8TestBodyEv
FNDA:4,_ZN34exception_label_support_error_TestD0Ev
FNDA:0,_ZN34exception_label_support_error_TestD2Ev
FNDA:4,_ZN36exception_const_func_call_error_Test8TestBodyEv
FNDA:4,_ZN36exception_const_func_call_error_TestD0Ev
FNDA:0,_ZN36exception_const_func_call_error_TestD2Ev
FNDA:4,_ZN37exception_no_define_lvalue_error_Test8TestBodyEv
FNDA:4,_ZN37exception_no_define_lvalue_error_TestD0Ev
FNDA:0,_ZN37exception_no_define_lvalue_error_TestD2Ev
FNDA:4,_ZN44exception_global_duplicate_lvalue_error_Test8TestBodyEv
FNDA:4,_ZN44exception_global_duplicate_lvalue_error_TestD0Ev
FNDA:0,_ZN44exception_global_duplicate_lvalue_error_TestD2Ev
FNDA:4,_ZN31exception_test_break_error_Test8TestBodyEv
FNDA:4,_ZN31exception_test_break_error_TestD0Ev
FNDA:0,_ZN31exception_test_break_error_TestD2Ev
FNDA:4,_ZN41exception_test_for_in_namelist_error_Test8TestBodyEv
FNDA:4,_ZN41exception_test_for_in_namelist_error_TestD0Ev
FNDA:0,_ZN41exception_test_for_in_namelist_error_TestD2Ev
FNDA:4,_ZN36exception_test_for_in_exp_error_Test8TestBodyEv
FNDA:4,_ZN36exception_test_for_in_exp_error_TestD0Ev
FNDA:0,_ZN36exception_test_for_in_exp_error_TestD2Ev
FNDA:4,_ZN38exception_test_for_in_pairs_error_Test8TestBodyEv
FNDA:4,_ZN38exception_test_for_in_pairs_error_TestD0Ev
FNDA:0,_ZN38exception_test_for_in_pairs_error_TestD2Ev
FNDA:4,_ZN40exception_test_for_in_explist_error_Test8TestBodyEv
FNDA:4,_ZN40exception_test_for_in_explist_error_TestD0Ev
FNDA:0,_ZN40exception_test_for_in_explist_error_TestD2Ev
FNDA:4,_ZN39exception_test_for_in_prefix_error_Test8TestBodyEv
FNDA:4,_ZN39exception_test_for_in_prefix_error_TestD0Ev
FNDA:0,_ZN39exception_test_for_in_prefix_error_TestD2Ev
FNDA:4,_ZN37exception_test_for_in_func_error_Test8TestBodyEv
FNDA:4,_ZN37exception_test_for_in_func_error_TestD0Ev
FNDA:0,_ZN37exception_test_for_in_func_error_TestD2Ev
FNDA:4,_ZN42exception_test_for_in_func_args_error_Test8TestBodyEv
FNDA:4,_ZN42exception_test_for_in_func_args_error_TestD0Ev
FNDA:0,_ZN42exception_test_for_in_func_args_error_TestD2Ev
FNDA:4,_ZN44exception_test_for_in_prefix_func_error_Test8TestBodyEv
FNDA:4,_ZN44exception_test_for_in_prefix_func_error_TestD0Ev
FNDA:0,_ZN44exception_test_for_in_prefix_func_error_TestD2Ev
FNDA:4,_ZN39exception_function_too_many_params_Test8TestBodyEv
FNDA:4,_ZN39exception_function_too_many_params_TestD0Ev
FNDA:0,_ZN39exception_function_too_many_params_TestD2Ev
FNDA:4,_ZN27exception_compile_fail_Test8TestBodyEv
FNDA:4,_ZN27exception_compile_fail_TestD0Ev
FNDA:0,_ZN27exception_compile_fail_TestD2Ev
FNF:183
FNH:122
DA:11,12
DA:12,8
DA:13,4
DA:14,4
DA:15,4
DA:17,4
DA:18,8
DA:19,0
DA:20,4
DA:21,4
DA:22,4
DA:23,4
DA:24,12
DA:26,12
DA:27,8
DA:28,4
DA:29,4
DA:30,4
DA:32,4
DA:33,8
DA:34,0
DA:35,4
DA:36,4
DA:37,4
DA:38,4
DA:39,12
DA:41,12
DA:42,8
DA:43,4
DA:44,4
DA:45,4
DA:47,4
DA:48,8
DA:49,0
DA:50,4
DA:51,4
DA:52,4
DA:53,4
DA:54,12
DA:56,12
DA:57,8
DA:58,4
DA:59,4
DA:60,4
DA:62,4
DA:63,8
DA:64,0
DA:65,4
DA:66,4
DA:67,4
DA:68,4
DA:69,12
DA:71,12
DA:72,8
DA:73,4
DA:74,4
DA:75,4
DA:77,4
DA:79,4
DA:80,4
DA:81,4
DA:82,0
DA:83,4
DA:84,4
DA:85,4
DA:86,4
DA:88,4
DA:89,4
DA:90,4
DA:91,0
DA:92,4
DA:93,4
DA:94,4
DA:95,4
DA:96,12
DA:98,12
DA:99,8
DA:100,4
DA:101,4
DA:102,4
DA:104,4
DA:105,8
DA:106,0
DA:107,4
DA:108,4
DA:109,4
DA:110,4
DA:111,12
DA:113,12
DA:114,8
DA:115,4
DA:116,4
DA:117,4
DA:119,4
DA:120,8
DA:121,0
DA:122,4
DA:123,4
DA:124,4
DA:125,4
DA:126,12
DA:128,12
DA:129,4
DA:130,12
DA:131,8
DA:132,4
DA:133,4
DA:134,4
DA:137,12
DA:138,4
DA:139,8
DA:141,8
DA:142,4
DA:143,4
DA:144,4
DA:147,12
DA:148,4
DA:149,4
DA:150,4
DA:151,0
DA:152,4
DA:153,4
DA:154,4
DA:155,4
DA:157,4
DA:158,4
DA:159,4
DA:160,0
DA:161,8
DA:162,4
DA:163,8
DA:164,4
DA:167,12
DA:168,8
DA:169,4
DA:170,4
DA:171,4
DA:172,4
DA:174,4
DA:175,4
DA:176,4
DA:177,0
DA:178,4
DA:179,4
DA:180,4
DA:181,4
DA:182,12
DA:184,12
DA:185,8
DA:186,4
DA:187,4
DA:188,4
DA:189,4
DA:191,4
DA:192,4
DA:193,4
DA:194,0
DA:195,4
DA:196,4
DA:197,4
DA:198,4
DA:199,12
DA:201,12
DA:202,8
DA:203,4
DA:204,4
DA:205,4
DA:206,4
DA:208,4
DA:209,4
DA:210,4
DA:211,0
DA:212,4
DA:213,4
DA:214,4
DA:215,4
DA:216,12
DA:218,12
DA:219,8
DA:220,4
DA:221,4
DA:222,4
DA:223,4
DA:225,4
DA:226,4
DA:227,4
DA:228,0
DA:229,4
DA:230,4
DA:231,4
DA:232,4
DA:233,12
DA:235,12
DA:236,8
DA:237,4
DA:238,4
DA:239,4
DA:240,4
DA:242,4
DA:243,4
DA:244,4
DA:245,0
DA:246,4
DA:247,4
DA:248,4
DA:249,4
DA:250,12
DA:252,12
DA:253,8
DA:254,4
DA:255,4
DA:256,4
DA:257,4
DA:259,4
DA:260,4
DA:261,4
DA:262,0
DA:263,4
DA:264,4
DA:265,4
DA:266,4
DA:267,12
DA:269,12
DA:270,8
DA:271,4
DA:272,4
DA:273,4
DA:274,4
DA:276,4
DA:277,4
DA:278,4
DA:279,0
DA:280,4
DA:281,4
DA:282,4
DA:283,4
DA:284,12
DA:286,12
DA:287,8
DA:288,4
DA:289,4
DA:290,4
DA:291,4
DA:293,4
DA:294,4
DA:295,4
DA:296,0
DA:297,4
DA:298,4
DA:299,4
DA:300,4
DA:301,12
DA:303,12
DA:304,8
DA:305,4
DA:306,4
DA:307,4
DA:308,4
DA:310,4
DA:311,4
DA:312,4
DA:313,0
DA:314,4
DA:315,4
DA:316,4
DA:317,4
DA:318,12
DA:320,12
DA:321,8
DA:322,4
DA:323,4
DA:324,4
DA:325,4
DA:327,4
DA:328,4
DA:329,4
DA:330,0
DA:331,4
DA:332,4
DA:333,4
DA:334,4
DA:335,12
DA:337,12
DA:338,8
DA:339,4
DA:340,4
DA:341,4
DA:342,4
DA:344,4
DA:345,4
DA:346,4
DA:347,0
DA:348,4
DA:349,4
DA:350,4
DA:351,4
DA:352,12
DA:354,12
DA:355,8
DA:356,4
DA:357,4
DA:358,4
DA:359,4
DA:361,4
DA:362,4
DA:363,4
DA:364,0
DA:365,4
DA:366,4
DA:367,4
DA:368,4
DA:369,12
DA:371,12
DA:372,8
DA:373,4
DA:374,4
DA:375,4
DA:376,4
DA:378,4
DA:379,4
DA:380,4
DA:381,0
DA:382,4
DA:383,4
DA:384,4
DA:385,4
DA:386,12
DA:388,12
DA:389,8
DA:390,4
DA:391,4
DA:392,4
DA:393,4
DA:395,4
DA:396,4
DA:397,4
DA:398,0
DA:399,4
DA:400,4
DA:401,4
DA:402,4
DA:403,12
DA:405,12
DA:406,8
DA:407,4
DA:408,4
DA:409,4
DA:410,4
DA:412,4
DA:413,4
DA:414,4
DA:415,0
DA:416,4
DA:417,4
DA:418,4
DA:419,4
DA:420,12
DA:422,12
DA:423,8
DA:424,4
DA:425,4
DA:426,4
DA:428,4
DA:429,8
DA:430,0
DA:431,4
DA:432,4
DA:433,4
DA:434,4
DA:435,12
DA:437,12
DA:438,8
DA:439,4
DA:440,4
DA:441,4
DA:443,4
DA:444,8
DA:445,0
DA:446,4
DA:447,4
DA:448,4
DA:449,4
DA:450,12
DA:452,12
DA:453,4
DA:454,4
DA:455,4
DA:458,12
DA:459,4
DA:460,4
DA:463,12
DA:464,8
DA:465,4
DA:466,4
DA:467,4
DA:469,4
DA:470,8
DA:471,0
DA:472,4
DA:473,4
DA:474,4
DA:475,4
DA:476,12
DA:478,12
DA:479,8
DA:480,4
DA:481,4
DA:482,4
DA:484,4
DA:485,8
DA:486,0
DA:487,4
DA:488,4
DA:489,4
DA:490,4
DA:491,12
DA:493,12
DA:494,8
DA:495,4
DA:496,4
DA:497,4
DA:499,4
DA:500,8
DA:501,0
DA:502,4
DA:503,4
DA:504,4
DA:505,4
DA:506,12
DA:508,12
DA:509,8
DA:510,4
DA:511,4
DA:512,4
DA:514,4
DA:515,8
DA:516,0
DA:517,4
DA:518,4
DA:519,4
DA:520,4
DA:521,12
DA:523,12
DA:524,8
DA:525,4
DA:526,4
DA:527,4
DA:529,4
DA:530,8
DA:531,0
DA:532,4
DA:533,4
DA:534,4
DA:535,4
DA:536,12
DA:538,12
DA:539,8
DA:540,4
DA:541,4
DA:542,4
DA:544,4
DA:545,8
DA:546,0
DA:547,4
DA:548,4
DA:549,4
DA:550,4
DA:551,12
DA:553,12
DA:554,8
DA:555,4
DA:556,4
DA:557,4
DA:559,4
DA:560,8
DA:561,0
DA:562,4
DA:563,4
DA:564,4
DA:565,4
DA:566,12
DA:568,12
DA:569,8
DA:570,4
DA:571,4
DA:572,4
DA:574,4
DA:575,8
DA:576,0
DA:577,4
DA:578,4
DA:579,4
DA:580,4
DA:581,12
DA:583,12
DA:584,8
DA:585,4
DA:586,4
DA:587,4
DA:589,4
DA:590,8
DA:591,0
DA:592,4
DA:593,4
DA:594,4
DA:595,4
DA:596,12
DA:598,12
DA:599,8
DA:600,4
DA:601,4
DA:602,4
DA:604,4
DA:605,8
DA:606,0
DA:607,4
DA:608,4
DA:609,4
DA:610,4
DA:611,12
DA:613,12
DA:614,8
DA:615,4
DA:616,4
DA:617,4
DA:619,4
DA:620,8
DA:621,0
DA:622,4
DA:623,4
DA:624,4
DA:625,4
DA:626,12
DA:628,12
DA:629,8
DA:630,4
DA:631,4
DA:632,4
DA:634,4
DA:635,8
DA:636,0
DA:637,4
DA:638,4
DA:639,4
DA:640,4
DA:641,12
DA:643,12
DA:644,8
DA:645,4
DA:646,4
DA:647,4
DA:649,4
DA:650,8
DA:651,0
DA:652,4
DA:653,4
DA:654,4
DA:655,4
DA:656,12
DA:658,12
DA:659,8
DA:660,4
DA:661,4
DA:662,4
DA:664,4
DA:665,8
DA:666,0
DA:667,4
DA:668,4
DA:669,4
DA:670,4
DA:671,12
DA:673,12
DA:674,8
DA:675,4
DA:676,4
DA:677,4
DA:679,4
DA:680,8
DA:681,0
DA:682,4
DA:683,4
DA:684,4
DA:685,4
DA:686,12
DA:688,12
DA:689,8
DA:690,4
DA:691,4
DA:692,4
DA:694,4
DA:695,8
DA:696,0
DA:697,4
DA:698,4
DA:699,4
DA:700,4
DA:701,12
DA:703,12
DA:704,8
DA:705,4
DA:706,4
DA:707,4
DA:709,4
DA:710,8
DA:711,0
DA:712,4
DA:713,4
DA:714,4
DA:715,4
DA:716,12
DA:718,12
DA:719,8
DA:720,4
DA:721,4
DA:722,4
DA:724,4
DA:725,8
DA:726,0
DA:727,4
DA:728,4
DA:729,4
DA:730,4
DA:731,12
DA:733,12
DA:734,8
DA:735,4
DA:736,4
DA:737,4
DA:739,4
DA:740,8
DA:741,0
DA:742,4
DA:743,4
DA:744,4
DA:745,4
DA:746,12
DA:748,12
DA:749,8
DA:750,4
DA:751,4
DA:752,4
DA:754,4
DA:755,8
DA:756,0
DA:757,4
DA:758,4
DA:759,4
DA:760,4
DA:761,12
DA:763,12
DA:764,8
DA:765,4
DA:766,4
DA:767,4
DA:769,4
DA:770,8
DA:771,0
DA:772,4
DA:773,4
DA:774,4
DA:775,4
DA:776,12
DA:778,12
DA:779,8
DA:780,4
DA:781,4
DA:782,4
DA:784,4
DA:785,8
DA:786,0
DA:787,4
DA:788,4
DA:789,4
DA:790,4
DA:791,12
DA:793,12
DA:794,8
DA:795,4
DA:796,4
DA:797,4
DA:799,4
DA:800,8
DA:801,0
DA:802,4
DA:803,4
DA:804,4
DA:805,4
DA:806,12
DA:808,12
DA:809,8
DA:810,4
DA:811,4
DA:812,4
DA:814,4
DA:815,8
DA:816,0
DA:817,4
DA:818,4
DA:819,4
DA:820,4
DA:821,12
DA:823,12
DA:824,8
DA:825,4
DA:826,4
DA:827,4
DA:829,4
DA:830,8
DA:831,0
DA:832,4
DA:833,4
DA:834,4
DA:835,4
DA:836,12
DA:838,12
DA:839,8
DA:840,4
DA:841,4
DA:842,4
DA:844,4
DA:845,8
DA:846,0
DA:847,4
DA:848,4
DA:849,4
DA:850,4
DA:851,12
DA:853,12
DA:854,8
DA:855,4
DA:856,4
DA:857,4
DA:859,4
DA:860,8
DA:861,0
DA:862,4
DA:863,4
DA:864,4
DA:865,4
DA:866,12
DA:868,12
DA:869,8
DA:870,4
DA:871,4
DA:872,4
DA:874,4
DA:875,8
DA:876,0
DA:877,4
DA:878,4
DA:879,4
DA:880,4
DA:881,12
DA:883,12
DA:884,8
DA:885,4
DA:886,4
DA:887,4
DA:889,4
DA:890,8
DA:891,0
DA:892,4
DA:893,4
DA:894,4
DA:895,4
DA:896,12
DA:898,12
DA:899,8
DA:900,4
DA:901,4
DA:902,4
DA:904,4
DA:905,8
DA:906,0
DA:907,4
DA:908,4
DA:909,4
DA:910,4
DA:911,12
DA:913,12
DA:914,8
DA:915,4
DA:916,4
DA:917,4
DA:919,4
DA:920,8
DA:921,0
DA:922,4
DA:923,4
DA:924,4
DA:925,4
DA:926,12
DA:928,12
DA:929,8
DA:930,4
DA:931,4
DA:932,4
DA:934,4
DA:935,8
DA:936,0
DA:937,4
DA:938,4
DA:939,4
DA:940,4
DA:941,12
LF:806
LH:747
end_of_record
TN:
SF:/home/runner/work/fakelua/fakelua/test/test_infer.cpp
FN:100,100,_ZN39infer_test_infer_degrade_func_call_Test8TestBodyEv
FN:100,100,_ZN39infer_test_infer_degrade_func_call_TestD0Ev
FN:100,100,_ZN39infer_test_infer_degrade_func_call_TestD2Ev
FN:107,112,_ZZN39infer_test_infer_degrade_func_call_Test8TestBodyEvENKUlPN7fakelua5StateENS0_7JITTypeEbE_clES2_S3_b
FN:118,118,_ZN35infer_test_infer_degrade_param_Test8TestBodyEv
FN:118,118,_ZN35infer_test_infer_degrade_param_TestD0Ev
FN:118,118,_ZN35infer_test_infer_degrade_param_TestD2Ev
FN:129,134,_ZZN35infer_test_infer_degrade_param_Test8TestBodyEvENKUlPN7fakelua5StateENS0_7JITTypeEbE_clES2_S3_b
FN:13,21,_ZL14InferRunHelperRKSt8functionIFvPN7fakelua5StateENS0_7JITTypeEbEE
FN:139,139,_ZN37infer_test_infer_reassign_stable_Test8TestBodyEv
FN:139,139,_ZN37infer_test_infer_reassign_stable_TestD0Ev
FN:139,139,_ZN37infer_test_infer_reassign_stable_TestD2Ev
FN:146,151,_ZZN37infer_test_infer_reassign_stable_Test8TestBodyEvENKUlPN7fakelua5StateENS0_7JITTypeEbE_clES2_S3_b
FN:157,157,_ZN34infer_test_infer_for_step_int_Test8TestBodyEv
FN:157,157,_ZN34infer_test_infer_for_step_int_TestD0Ev
FN:157,157,_ZN34infer_test_infer_for_step_int_TestD2Ev
FN:166,171,_ZZN34infer_test_infer_for_step_int_Test8TestBodyEvENKUlPN7fakelua5StateENS0_7JITTypeEbE_clES2_S3_b
FN:178,178,_ZN38infer_test_infer_for_step_dynamic_Test8TestBodyEv
FN:178,178,_ZN38infer_test_infer_for_step_dynamic_TestD0Ev
FN:178,178,_ZN38infer_test_infer_for_step_dynamic_TestD2Ev
FN:188,193,_ZZN38infer_test_infer_for_step_dynamic_Test8TestBodyEvENKUlPN7fakelua5StateENS0_7JITTypeEbE_clES2_S3_b
FN:199,199,_ZN43infer_test_infer_reassign_int_to_float_Test8TestBodyEv
FN:199,199,_ZN43infer_test_infer_reassign_int_to_float_TestD0Ev
FN:199,199,_ZN43infer_test_infer_reassign_int_to_float_TestD2Ev
FN:206,211,_ZZN43infer_test_infer_reassign_int_to_float_Test8TestBodyEvENKUlPN7fakelua5StateENS0_7JITTypeEbE_clES2_S3_b
FN:216,216,_ZN38infer_test_infer_if_scope_degrade_Test8TestBodyEv
FN:216,216,_ZN38infer_test_infer_if_scope_degrade_TestD0Ev
FN:216,216,_ZN38infer_test_infer_if_scope_degrade_TestD2Ev
FN:222,229,_ZZN38infer_test_infer_if_scope_degrade_Test8TestBodyEvENKUlPN7fakelua5StateENS0_7JITTypeEbE_clES2_S3_b
FN:234,248,_ZN41infer_test_infer_while_scope_degrade_Test8TestBodyEv
FN:234,248,_ZN41infer_test_infer_while_scope_degrade_TestD0Ev
FN:234,248,_ZN41infer_test_infer_while_scope_degrade_TestD2Ev
FN:240,247,_ZZN41infer_test_infer_while_scope_degrade_Test8TestBodyEvENKUlPN7fakelua5StateENS0_7JITTypeEbE_clES2_S3_b
FN:253,267,_ZN36infer_test_infer_type_pollution_Test8TestBodyEv
FN:253,267,_ZN36infer_test_infer_type_pollution_TestD0Ev
FN:253,267,_ZN36infer_test_infer_type_pollution_TestD2Ev
FN:261,266,_ZZN36infer_test_infer_type_pollution_Test8TestBodyEvENKUlPN7fakelua5StateENS0_7JITTypeEbE_clES2_S3_b
FN:27,41,_ZL13InferGetCCodeRKNSt7__cxx1112basic_stringIcSt11char_traitsIcESaIcEEE
FN:272,288,_ZN31infer_test_infer_bottom_up_Test8TestBodyEv
FN:272,288,_ZN31infer_test_infer_bottom_up_TestD0Ev
FN:272,288,_ZN31infer_test_infer_bottom_up_TestD2Ev
FN:282,287,_ZZN31infer_test_infer_bottom_up_Test8TestBodyEvENKUlPN7fakelua5StateENS0_7JITTypeEbE_clES2_S3_b
FN:293,307,_ZN31infer_test_infer_shadowing_Test8TestBodyEv
FN:293,307,_ZN31infer_test_infer_shadowing_TestD0Ev
FN:293,307,_ZN31infer_test_infer_shadowing_TestD2Ev
FN:301,306,_ZZN31infer_test_infer_shadowing_Test8TestBodyEvENKUlPN7fakelua5StateENS0_7JITTypeEbE_clES2_S3_b
FN:312,312,_ZN30infer_test_infer_mutation_Test8TestBodyEv
FN:312,312,_ZN30infer_test_infer_mutation_TestD0Ev
FN:312,312,_ZN30infer_test_infer_mutation_TestD2Ev
FN:320,325,_ZZN30infer_test_infer_mutation_Test8TestBodyEvENKUlPN7fakelua5StateENS0_7JITTypeEbE_clES2_S3_b
FN:334,349,_ZN41infer_test_infer_assign_degraded_var_Test8TestBodyEv
FN:334,349,_ZN41infer_test_infer_assign_degraded_var_TestD0Ev
